
ProdApp009.elf:     file format elf32-littlearm

Sections:
Idx Name          Size      VMA       LMA       File off  Algn
  0 .isr_vector   000001e0  08004000  08004000  00004000  2**0
                  CONTENTS, ALLOC, LOAD, READONLY, DATA
  1 .text         00008cd4  080041e0  080041e0  000041e0  2**4
                  CONTENTS, ALLOC, LOAD, READONLY, CODE
  2 .rodata       00000450  0800ceb4  0800ceb4  0000ceb4  2**2
                  CONTENTS, ALLOC, LOAD, READONLY, DATA
  3 .ARM.extab    00000000  0800d304  0800d304  00010094  2**0
                  CONTENTS
  4 .ARM          00000000  0800d304  0800d304  00010094  2**0
                  CONTENTS
  5 .preinit_array 00000000  0800d304  0800d304  00010094  2**0
                  CONTENTS, ALLOC, LOAD, DATA
  6 .init_array   00000004  0800d304  0800d304  0000d304  2**2
                  CONTENTS, ALLOC, LOAD, DATA
  7 .fini_array   00000004  0800d308  0800d308  0000d308  2**2
                  CONTENTS, ALLOC, LOAD, DATA
  8 .data         00000094  20000000  0800d30c  00010000  2**2
                  CONTENTS, ALLOC, LOAD, DATA
  9 .bss          000152c8  20000094  0800d3a0  00010094  2**2
                  ALLOC
 10 ._user_heap_stack 00000604  2001535c  0800d3a0  0001535c  2**0
                  ALLOC
 11 .ARM.attributes 00000030  00000000  00000000  00010094  2**0
                  CONTENTS, READONLY
 12 .comment      00000053  00000000  00000000  000100c4  2**0
                  CONTENTS, READONLY
 13 .debug_frame  00000970  00000000  00000000  00010118  2**2
                  CONTENTS, READONLY, DEBUGGING, OCTETS

Disassembly of section .text:

080041e0 <__do_global_dtors_aux>:
 80041e0:	b510      	push	{r4, lr}
 80041e2:	4c05      	ldr	r4, [pc, #20]	; (80041f8 <__do_global_dtors_aux+0x18>)
 80041e4:	7823      	ldrb	r3, [r4, #0]
 80041e6:	b933      	cbnz	r3, 80041f6 <__do_global_dtors_aux+0x16>
 80041e8:	4b04      	ldr	r3, [pc, #16]	; (80041fc <__do_global_dtors_aux+0x1c>)
 80041ea:	b113      	cbz	r3, 80041f2 <__do_global_dtors_aux+0x12>
 80041ec:	4804      	ldr	r0, [pc, #16]	; (8004200 <__do_global_dtors_aux+0x20>)
 80041ee:	f3af 8000 	nop.w
 80041f2:	2301      	movs	r3, #1
 80041f4:	7023      	strb	r3, [r4, #0]
 80041f6:	bd10      	pop	{r4, pc}
 80041f8:	20000094 	.word	0x20000094
 80041fc:	00000000 	.word	0x00000000
 8004200:	0800ce9c 	.word	0x0800ce9c

08004204 <frame_dummy>:
 8004204:	b508      	push	{r3, lr}
 8004206:	4b03      	ldr	r3, [pc, #12]	; (8004214 <frame_dummy+0x10>)
 8004208:	b11b      	cbz	r3, 8004212 <frame_dummy+0xe>
 800420a:	4903      	ldr	r1, [pc, #12]	; (8004218 <frame_dummy+0x14>)
 800420c:	4803      	ldr	r0, [pc, #12]	; (800421c <frame_dummy+0x18>)
 800420e:	f3af 8000 	nop.w
 8004212:	bd08      	pop	{r3, pc}
 8004214:	00000000 	.word	0x00000000
 8004218:	20000098 	.word	0x20000098
 800421c:	0800ce9c 	.word	0x0800ce9c

08004220 <strlen>:
 8004220:	4603      	mov	r3, r0
 8004222:	f813 2b01 	ldrb.w	r2, [r3], #1
 8004226:	2a00      	cmp	r2, #0
 8004228:	d1fb      	bne.n	8004222 <strlen+0x2>
 800422a:	1a18      	subs	r0, r3, r0
 800422c:	3801      	subs	r0, #1
 800422e:	4770      	bx	lr

08004230 <memchr>:
 8004230:	f001 01ff 	and.w	r1, r1, #255	; 0xff
 8004234:	2a10      	cmp	r2, #16
 8004236:	db2b      	blt.n	8004290 <memchr+0x60>
 8004238:	f010 0f07 	tst.w	r0, #7
 800423c:	d008      	beq.n	8004250 <memchr+0x20>
 800423e:	f810 3b01 	ldrb.w	r3, [r0], #1
 8004242:	3a01      	subs	r2, #1
 8004244:	428b      	cmp	r3, r1
 8004246:	d02d      	beq.n	80042a4 <memchr+0x74>
 8004248:	f010 0f07 	tst.w	r0, #7
 800424c:	b342      	cbz	r2, 80042a0 <memchr+0x70>
 800424e:	d1f6      	bne.n	800423e <memchr+0xe>
 8004250:	b4f0      	push	{r4, r5, r6, r7}
 8004252:	ea41 2101 	orr.w	r1, r1, r1, lsl #8
 8004256:	ea41 4101 	orr.w	r1, r1, r1, lsl #16
 800425a:	f022 0407 	bic.w	r4, r2, #7
 800425e:	f07f 0700 	mvns.w	r7, #0
 8004262:	2300      	movs	r3, #0
 8004264:	e8f0 5602 	ldrd	r5, r6, [r0], #8
 8004268:	3c08      	subs	r4, #8
 800426a:	ea85 0501 	eor.w	r5, r5, r1
 800426e:	ea86 0601 	eor.w	r6, r6, r1
 8004272:	fa85 f547 	uadd8	r5, r5, r7
 8004276:	faa3 f587 	sel	r5, r3, r7
 800427a:	fa86 f647 	uadd8	r6, r6, r7
 800427e:	faa5 f687 	sel	r6, r5, r7
 8004282:	b98e      	cbnz	r6, 80042a8 <memchr+0x78>
 8004284:	d1ee      	bne.n	8004264 <memchr+0x34>
 8004286:	bcf0      	pop	{r4, r5, r6, r7}
 8004288:	f001 01ff 	and.w	r1, r1, #255	; 0xff
 800428c:	f002 0207 	and.w	r2, r2, #7
 8004290:	b132      	cbz	r2, 80042a0 <memchr+0x70>
 8004292:	f810 3b01 	ldrb.w	r3, [r0], #1
 8004296:	3a01      	subs	r2, #1
 8004298:	ea83 0301 	eor.w	r3, r3, r1
 800429c:	b113      	cbz	r3, 80042a4 <memchr+0x74>
 800429e:	d1f8      	bne.n	8004292 <memchr+0x62>
 80042a0:	2000      	movs	r0, #0
 80042a2:	4770      	bx	lr
 80042a4:	3801      	subs	r0, #1
 80042a6:	4770      	bx	lr
 80042a8:	2d00      	cmp	r5, #0
 80042aa:	bf06      	itte	eq
 80042ac:	4635      	moveq	r5, r6
 80042ae:	3803      	subeq	r0, #3
 80042b0:	3807      	subne	r0, #7
 80042b2:	f015 0f01 	tst.w	r5, #1
 80042b6:	d107      	bne.n	80042c8 <memchr+0x98>
 80042b8:	3001      	adds	r0, #1
 80042ba:	f415 7f80 	tst.w	r5, #256	; 0x100
 80042be:	bf02      	ittt	eq
 80042c0:	3001      	addeq	r0, #1
 80042c2:	f415 3fc0 	tsteq.w	r5, #98304	; 0x18000
 80042c6:	3001      	addeq	r0, #1
 80042c8:	bcf0      	pop	{r4, r5, r6, r7}
 80042ca:	3801      	subs	r0, #1
 80042cc:	4770      	bx	lr
 80042ce:	bf00      	nop

080042d0 <HAL_MspInit>:
 80042d0:	4770      	bx	lr
 80042d2:	bf00      	nop

080042d4 <HAL_InitTick>:
 80042d4:	490e      	ldr	r1, [pc, #56]	; (8004310 <HAL_InitTick+0x3c>)
 80042d6:	f44f 737a 	mov.w	r3, #1000	; 0x3e8
 80042da:	4a0e      	ldr	r2, [pc, #56]	; (8004314 <HAL_InitTick+0x40>)
 80042dc:	b510      	push	{r4, lr}
 80042de:	7809      	ldrb	r1, [r1, #0]
 80042e0:	4604      	mov	r4, r0
 80042e2:	6812      	ldr	r2, [r2, #0]
 80042e4:	fbb3 f3f1 	udiv	r3, r3, r1
 80042e8:	fbb2 f0f3 	udiv	r0, r2, r3
 80042ec:	f000 f87c 	bl	80043e8 <HAL_SYSTICK_Config>
 80042f0:	b908      	cbnz	r0, 80042f6 <HAL_InitTick+0x22>
 80042f2:	2c0f      	cmp	r4, #15
 80042f4:	d901      	bls.n	80042fa <HAL_InitTick+0x26>
 80042f6:	2001      	movs	r0, #1
 80042f8:	bd10      	pop	{r4, pc}
 80042fa:	2200      	movs	r2, #0
 80042fc:	4621      	mov	r1, r4
 80042fe:	f04f 30ff 	mov.w	r0, #4294967295
 8004302:	f000 f837 	bl	8004374 <HAL_NVIC_SetPriority>
 8004306:	4b04      	ldr	r3, [pc, #16]	; (8004318 <HAL_InitTick+0x44>)
 8004308:	2000      	movs	r0, #0
 800430a:	601c      	str	r4, [r3, #0]
 800430c:	bd10      	pop	{r4, pc}
 800430e:	bf00      	nop
 8004310:	20000000 	.word	0x20000000
 8004314:	20000014 	.word	0x20000014
 8004318:	20000004 	.word	0x20000004

0800431c <HAL_Init>:
 800431c:	b508      	push	{r3, lr}
 800431e:	2003      	movs	r0, #3
 8004320:	f000 f814 	bl	800434c <HAL_NVIC_SetPriorityGrouping>
 8004324:	2000      	movs	r0, #0
 8004326:	f7ff ffd5 	bl	80042d4 <HAL_InitTick>
 800432a:	f7ff ffd1 	bl	80042d0 <HAL_MspInit>
 800432e:	2000      	movs	r0, #0
 8004330:	bd08      	pop	{r3, pc}
 8004332:	bf00      	nop

08004334 <HAL_IncTick>:
 8004334:	4a03      	ldr	r2, [pc, #12]	; (8004344 <HAL_IncTick+0x10>)
 8004336:	4b04      	ldr	r3, [pc, #16]	; (8004348 <HAL_IncTick+0x14>)
 8004338:	6811      	ldr	r1, [r2, #0]
 800433a:	781b      	ldrb	r3, [r3, #0]
 800433c:	440b      	add	r3, r1
 800433e:	6013      	str	r3, [r2, #0]
 8004340:	4770      	bx	lr
 8004342:	bf00      	nop
 8004344:	200005b0 	.word	0x200005b0
 8004348:	20000000 	.word	0x20000000

0800434c <HAL_NVIC_SetPriorityGrouping>:
 800434c:	4907      	ldr	r1, [pc, #28]	; (800436c <HAL_NVIC_SetPriorityGrouping+0x20>)
 800434e:	0200      	lsls	r0, r0, #8
 8004350:	4b07      	ldr	r3, [pc, #28]	; (8004370 <HAL_NVIC_SetPriorityGrouping+0x24>)
 8004352:	68ca      	ldr	r2, [r1, #12]
 8004354:	f400 60e0 	and.w	r0, r0, #1792	; 0x700
 8004358:	b410      	push	{r4}
 800435a:	f64f 04ff 	movw	r4, #63743	; 0xf8ff
 800435e:	4022      	ands	r2, r4
 8004360:	f85d 4b04 	ldr.w	r4, [sp], #4
 8004364:	4310      	orrs	r0, r2
 8004366:	4303      	orrs	r3, r0
 8004368:	60cb      	str	r3, [r1, #12]
 800436a:	4770      	bx	lr
 800436c:	e000ed00 	.word	0xe000ed00
 8004370:	05fa0000 	.word	0x05fa0000

08004374 <HAL_NVIC_SetPriority>:
 8004374:	4b19      	ldr	r3, [pc, #100]	; (80043dc <HAL_NVIC_SetPriority+0x68>)
 8004376:	68db      	ldr	r3, [r3, #12]
 8004378:	f3c3 2302 	ubfx	r3, r3, #8, #3
 800437c:	b430      	push	{r4, r5}
 800437e:	f1c3 0507 	rsb	r5, r3, #7
 8004382:	1d1c      	adds	r4, r3, #4
 8004384:	2d04      	cmp	r5, #4
 8004386:	bf28      	it	cs
 8004388:	2504      	movcs	r5, #4
 800438a:	2c06      	cmp	r4, #6
 800438c:	d919      	bls.n	80043c2 <HAL_NVIC_SetPriority+0x4e>
 800438e:	3b03      	subs	r3, #3
 8004390:	f04f 34ff 	mov.w	r4, #4294967295
 8004394:	409c      	lsls	r4, r3
 8004396:	ea22 0204 	bic.w	r2, r2, r4
 800439a:	f04f 34ff 	mov.w	r4, #4294967295
 800439e:	2800      	cmp	r0, #0
 80043a0:	fa04 f405 	lsl.w	r4, r4, r5
 80043a4:	ea21 0104 	bic.w	r1, r1, r4
 80043a8:	fa01 f103 	lsl.w	r1, r1, r3
 80043ac:	ea41 0102 	orr.w	r1, r1, r2
 80043b0:	db0a      	blt.n	80043c8 <HAL_NVIC_SetPriority+0x54>
 80043b2:	0109      	lsls	r1, r1, #4
 80043b4:	4b0a      	ldr	r3, [pc, #40]	; (80043e0 <HAL_NVIC_SetPriority+0x6c>)
 80043b6:	b2c9      	uxtb	r1, r1
 80043b8:	4403      	add	r3, r0
 80043ba:	f883 1300 	strb.w	r1, [r3, #768]	; 0x300
 80043be:	bc30      	pop	{r4, r5}
 80043c0:	4770      	bx	lr
 80043c2:	2200      	movs	r2, #0
 80043c4:	4613      	mov	r3, r2
 80043c6:	e7e8      	b.n	800439a <HAL_NVIC_SetPriority+0x26>
 80043c8:	f000 000f 	and.w	r0, r0, #15
 80043cc:	0109      	lsls	r1, r1, #4
 80043ce:	4b05      	ldr	r3, [pc, #20]	; (80043e4 <HAL_NVIC_SetPriority+0x70>)
 80043d0:	b2c9      	uxtb	r1, r1
 80043d2:	4403      	add	r3, r0
 80043d4:	7619      	strb	r1, [r3, #24]
 80043d6:	bc30      	pop	{r4, r5}
 80043d8:	4770      	bx	lr
 80043da:	bf00      	nop
 80043dc:	e000ed00 	.word	0xe000ed00
 80043e0:	e000e100 	.word	0xe000e100
 80043e4:	e000ecfc 	.word	0xe000ecfc

080043e8 <HAL_SYSTICK_Config>:
 80043e8:	3801      	subs	r0, #1
 80043ea:	f1b0 7f80 	cmp.w	r0, #16777216	; 0x1000000
 80043ee:	d20d      	bcs.n	800440c <HAL_SYSTICK_Config+0x24>
 80043f0:	4b07      	ldr	r3, [pc, #28]	; (8004410 <HAL_SYSTICK_Config+0x28>)
 80043f2:	2200      	movs	r2, #0
 80043f4:	2107      	movs	r1, #7
 80043f6:	b430      	push	{r4, r5}
 80043f8:	25f0      	movs	r5, #240	; 0xf0
 80043fa:	4c06      	ldr	r4, [pc, #24]	; (8004414 <HAL_SYSTICK_Config+0x2c>)
 80043fc:	6058      	str	r0, [r3, #4]
 80043fe:	4610      	mov	r0, r2
 8004400:	f884 5023 	strb.w	r5, [r4, #35]	; 0x23
 8004404:	609a      	str	r2, [r3, #8]
 8004406:	6019      	str	r1, [r3, #0]
 8004408:	bc30      	pop	{r4, r5}
 800440a:	4770      	bx	lr
 800440c:	2001      	movs	r0, #1
 800440e:	4770      	bx	lr
 8004410:	e000e010 	.word	0xe000e010
 8004414:	e000ed00 	.word	0xe000ed00

08004418 <HAL_I2S_MspDeInit>:
 8004418:	4770      	bx	lr
 800441a:	bf00      	nop

0800441c <HAL_I2S_DeInit>:
 800441c:	b198      	cbz	r0, 8004446 <HAL_I2S_DeInit+0x2a>
 800441e:	6802      	ldr	r2, [r0, #0]
 8004420:	2302      	movs	r3, #2
 8004422:	b510      	push	{r4, lr}
 8004424:	f880 3039 	strb.w	r3, [r0, #57]	; 0x39
 8004428:	4604      	mov	r4, r0
 800442a:	69d3      	ldr	r3, [r2, #28]
 800442c:	f423 6380 	bic.w	r3, r3, #1024	; 0x400
 8004430:	61d3      	str	r3, [r2, #28]
 8004432:	f7ff fff1 	bl	8004418 <HAL_I2S_MspDeInit>
 8004436:	2300      	movs	r3, #0
 8004438:	63e3      	str	r3, [r4, #60]	; 0x3c
 800443a:	4618      	mov	r0, r3
 800443c:	f884 3039 	strb.w	r3, [r4, #57]	; 0x39
 8004440:	f884 3038 	strb.w	r3, [r4, #56]	; 0x38
 8004444:	bd10      	pop	{r4, pc}
 8004446:	2001      	movs	r0, #1
 8004448:	4770      	bx	lr
 800444a:	bf00      	nop

0800444c <HAL_TIM_Base_MspInit>:
 800444c:	4770      	bx	lr
 800444e:	bf00      	nop

08004450 <HAL_TIM_Base_Init>:
 8004450:	2800      	cmp	r0, #0
 8004452:	d07d      	beq.n	8004550 <HAL_TIM_Base_Init+0x100>
 8004454:	b5f8      	push	{r3, r4, r5, r6, r7, lr}
 8004456:	f890 303d 	ldrb.w	r3, [r0, #61]	; 0x3d
 800445a:	4604      	mov	r4, r0
 800445c:	f003 02ff 	and.w	r2, r3, #255	; 0xff
 8004460:	2b00      	cmp	r3, #0
 8004462:	d065      	beq.n	8004530 <HAL_TIM_Base_Init+0xe0>
 8004464:	6822      	ldr	r2, [r4, #0]
 8004466:	2302      	movs	r3, #2
 8004468:	493b      	ldr	r1, [pc, #236]	; (8004558 <HAL_TIM_Base_Init+0x108>)
 800446a:	f1b2 4f80 	cmp.w	r2, #1073741824	; 0x40000000
 800446e:	f884 303d 	strb.w	r3, [r4, #61]	; 0x3d
 8004472:	eba2 0101 	sub.w	r1, r2, r1
 8004476:	6813      	ldr	r3, [r2, #0]
 8004478:	fab1 f181 	clz	r1, r1
 800447c:	ea4f 1151 	mov.w	r1, r1, lsr #5
 8004480:	d03a      	beq.n	80044f8 <HAL_TIM_Base_Init+0xa8>
 8004482:	2900      	cmp	r1, #0
 8004484:	d138      	bne.n	80044f8 <HAL_TIM_Base_Init+0xa8>
 8004486:	4d35      	ldr	r5, [pc, #212]	; (800455c <HAL_TIM_Base_Init+0x10c>)
 8004488:	4835      	ldr	r0, [pc, #212]	; (8004560 <HAL_TIM_Base_Init+0x110>)
 800448a:	4282      	cmp	r2, r0
 800448c:	bf18      	it	ne
 800448e:	42aa      	cmpne	r2, r5
 8004490:	d032      	beq.n	80044f8 <HAL_TIM_Base_Init+0xa8>
 8004492:	4f34      	ldr	r7, [pc, #208]	; (8004564 <HAL_TIM_Base_Init+0x114>)
 8004494:	f505 6500 	add.w	r5, r5, #2048	; 0x800
 8004498:	1bd7      	subs	r7, r2, r7
 800449a:	42aa      	cmp	r2, r5
 800449c:	fab7 f787 	clz	r7, r7
 80044a0:	ea4f 1757 	mov.w	r7, r7, lsr #5
 80044a4:	d049      	beq.n	800453a <HAL_TIM_Base_Init+0xea>
 80044a6:	2f00      	cmp	r7, #0
 80044a8:	d147      	bne.n	800453a <HAL_TIM_Base_Init+0xea>
 80044aa:	4f2f      	ldr	r7, [pc, #188]	; (8004568 <HAL_TIM_Base_Init+0x118>)
 80044ac:	482f      	ldr	r0, [pc, #188]	; (800456c <HAL_TIM_Base_Init+0x11c>)
 80044ae:	4282      	cmp	r2, r0
 80044b0:	bf18      	it	ne
 80044b2:	42ba      	cmpne	r2, r7
 80044b4:	bf0c      	ite	eq
 80044b6:	2701      	moveq	r7, #1
 80044b8:	2700      	movne	r7, #0
 80044ba:	d04b      	beq.n	8004554 <HAL_TIM_Base_Init+0x104>
 80044bc:	4d2c      	ldr	r5, [pc, #176]	; (8004570 <HAL_TIM_Base_Init+0x120>)
 80044be:	f5a0 3096 	sub.w	r0, r0, #76800	; 0x12c00
 80044c2:	4282      	cmp	r2, r0
 80044c4:	bf18      	it	ne
 80044c6:	42aa      	cmpne	r2, r5
 80044c8:	d01f      	beq.n	800450a <HAL_TIM_Base_Init+0xba>
 80044ca:	f500 6080 	add.w	r0, r0, #1024	; 0x400
 80044ce:	4282      	cmp	r2, r0
 80044d0:	d040      	beq.n	8004554 <HAL_TIM_Base_Init+0x104>
 80044d2:	f500 6080 	add.w	r0, r0, #1024	; 0x400
 80044d6:	4282      	cmp	r2, r0
 80044d8:	d03c      	beq.n	8004554 <HAL_TIM_Base_Init+0x104>
 80044da:	69a1      	ldr	r1, [r4, #24]
 80044dc:	f023 0380 	bic.w	r3, r3, #128	; 0x80
 80044e0:	68e0      	ldr	r0, [r4, #12]
 80044e2:	430b      	orrs	r3, r1
 80044e4:	6861      	ldr	r1, [r4, #4]
 80044e6:	6013      	str	r3, [r2, #0]
 80044e8:	62d0      	str	r0, [r2, #44]	; 0x2c
 80044ea:	6291      	str	r1, [r2, #40]	; 0x28
 80044ec:	2301      	movs	r3, #1
 80044ee:	2000      	movs	r0, #0
 80044f0:	6153      	str	r3, [r2, #20]
 80044f2:	f884 303d 	strb.w	r3, [r4, #61]	; 0x3d
 80044f6:	bdf8      	pop	{r3, r4, r5, r6, r7, pc}
 80044f8:	4f1a      	ldr	r7, [pc, #104]	; (8004564 <HAL_TIM_Base_Init+0x114>)
 80044fa:	f023 0370 	bic.w	r3, r3, #112	; 0x70
 80044fe:	68a5      	ldr	r5, [r4, #8]
 8004500:	1bd7      	subs	r7, r2, r7
 8004502:	432b      	orrs	r3, r5
 8004504:	fab7 f787 	clz	r7, r7
 8004508:	097f      	lsrs	r7, r7, #5
 800450a:	6920      	ldr	r0, [r4, #16]
 800450c:	f423 7340 	bic.w	r3, r3, #768	; 0x300
 8004510:	69a5      	ldr	r5, [r4, #24]
 8004512:	4303      	orrs	r3, r0
 8004514:	68e6      	ldr	r6, [r4, #12]
 8004516:	6860      	ldr	r0, [r4, #4]
 8004518:	f023 0380 	bic.w	r3, r3, #128	; 0x80
 800451c:	432b      	orrs	r3, r5
 800451e:	6013      	str	r3, [r2, #0]
 8004520:	62d6      	str	r6, [r2, #44]	; 0x2c
 8004522:	6290      	str	r0, [r2, #40]	; 0x28
 8004524:	b909      	cbnz	r1, 800452a <HAL_TIM_Base_Init+0xda>
 8004526:	2f00      	cmp	r7, #0
 8004528:	d0e0      	beq.n	80044ec <HAL_TIM_Base_Init+0x9c>
 800452a:	6963      	ldr	r3, [r4, #20]
 800452c:	6313      	str	r3, [r2, #48]	; 0x30
 800452e:	e7dd      	b.n	80044ec <HAL_TIM_Base_Init+0x9c>
 8004530:	f880 203c 	strb.w	r2, [r0, #60]	; 0x3c
 8004534:	f7ff ff8a 	bl	800444c <HAL_TIM_Base_MspInit>
 8004538:	e794      	b.n	8004464 <HAL_TIM_Base_Init+0x14>
 800453a:	480e      	ldr	r0, [pc, #56]	; (8004574 <HAL_TIM_Base_Init+0x124>)
 800453c:	f023 0370 	bic.w	r3, r3, #112	; 0x70
 8004540:	68a5      	ldr	r5, [r4, #8]
 8004542:	4282      	cmp	r2, r0
 8004544:	ea43 0305 	orr.w	r3, r3, r5
 8004548:	d0df      	beq.n	800450a <HAL_TIM_Base_Init+0xba>
 800454a:	2f00      	cmp	r7, #0
 800454c:	d1dd      	bne.n	800450a <HAL_TIM_Base_Init+0xba>
 800454e:	e7ac      	b.n	80044aa <HAL_TIM_Base_Init+0x5a>
 8004550:	2001      	movs	r0, #1
 8004552:	4770      	bx	lr
 8004554:	2700      	movs	r7, #0
 8004556:	e7d8      	b.n	800450a <HAL_TIM_Base_Init+0xba>
 8004558:	40010000 	.word	0x40010000
 800455c:	40000400 	.word	0x40000400
 8004560:	40000800 	.word	0x40000800
 8004564:	40010400 	.word	0x40010400
 8004568:	40014000 	.word	0x40014000
 800456c:	40014400 	.word	0x40014400
 8004570:	40014800 	.word	0x40014800
 8004574:	40000c00 	.word	0x40000c00

08004578 <HAL_TIM_Base_Start>:
 8004578:	b410      	push	{r4}
 800457a:	6801      	ldr	r1, [r0, #0]
 800457c:	2402      	movs	r4, #2
 800457e:	4a0b      	ldr	r2, [pc, #44]	; (80045ac <HAL_TIM_Base_Start+0x34>)
 8004580:	4603      	mov	r3, r0
 8004582:	f880 403d 	strb.w	r4, [r0, #61]	; 0x3d
 8004586:	6888      	ldr	r0, [r1, #8]
 8004588:	4002      	ands	r2, r0
 800458a:	2a06      	cmp	r2, #6
 800458c:	d006      	beq.n	800459c <HAL_TIM_Base_Start+0x24>
 800458e:	f5b2 3f80 	cmp.w	r2, #65536	; 0x10000
 8004592:	d003      	beq.n	800459c <HAL_TIM_Base_Start+0x24>
 8004594:	680a      	ldr	r2, [r1, #0]
 8004596:	f042 0201 	orr.w	r2, r2, #1
 800459a:	600a      	str	r2, [r1, #0]
 800459c:	2201      	movs	r2, #1
 800459e:	2000      	movs	r0, #0
 80045a0:	f883 203d 	strb.w	r2, [r3, #61]	; 0x3d
 80045a4:	f85d 4b04 	ldr.w	r4, [sp], #4
 80045a8:	4770      	bx	lr
 80045aa:	bf00      	nop
 80045ac:	00010007 	.word	0x00010007

080045b0 <LL_EXTI_Init>:
 80045b0:	4603      	mov	r3, r0
 80045b2:	b410      	push	{r4}
 80045b4:	7900      	ldrb	r0, [r0, #4]
 80045b6:	b1a8      	cbz	r0, 80045e4 <LL_EXTI_Init+0x34>
 80045b8:	6818      	ldr	r0, [r3, #0]
 80045ba:	b180      	cbz	r0, 80045de <LL_EXTI_Init+0x2e>
 80045bc:	795a      	ldrb	r2, [r3, #5]
 80045be:	2a01      	cmp	r2, #1
 80045c0:	d02f      	beq.n	8004622 <LL_EXTI_Init+0x72>
 80045c2:	2a02      	cmp	r2, #2
 80045c4:	d01b      	beq.n	80045fe <LL_EXTI_Init+0x4e>
 80045c6:	b31a      	cbz	r2, 8004610 <LL_EXTI_Init+0x60>
 80045c8:	2201      	movs	r2, #1
 80045ca:	799b      	ldrb	r3, [r3, #6]
 80045cc:	2b00      	cmp	r3, #0
 80045ce:	d032      	beq.n	8004636 <LL_EXTI_Init+0x86>
 80045d0:	2b02      	cmp	r3, #2
 80045d2:	d034      	beq.n	800463e <LL_EXTI_Init+0x8e>
 80045d4:	2b03      	cmp	r3, #3
 80045d6:	d046      	beq.n	8004666 <LL_EXTI_Init+0xb6>
 80045d8:	2b01      	cmp	r3, #1
 80045da:	d03a      	beq.n	8004652 <LL_EXTI_Init+0xa2>
 80045dc:	2001      	movs	r0, #1
 80045de:	f85d 4b04 	ldr.w	r4, [sp], #4
 80045e2:	4770      	bx	lr
 80045e4:	4a22      	ldr	r2, [pc, #136]	; (8004670 <LL_EXTI_Init+0xc0>)
 80045e6:	681c      	ldr	r4, [r3, #0]
 80045e8:	6811      	ldr	r1, [r2, #0]
 80045ea:	ea21 0104 	bic.w	r1, r1, r4
 80045ee:	6011      	str	r1, [r2, #0]
 80045f0:	6853      	ldr	r3, [r2, #4]
 80045f2:	ea23 0304 	bic.w	r3, r3, r4
 80045f6:	f85d 4b04 	ldr.w	r4, [sp], #4
 80045fa:	6053      	str	r3, [r2, #4]
 80045fc:	4770      	bx	lr
 80045fe:	491c      	ldr	r1, [pc, #112]	; (8004670 <LL_EXTI_Init+0xc0>)
 8004600:	2200      	movs	r2, #0
 8004602:	680c      	ldr	r4, [r1, #0]
 8004604:	4304      	orrs	r4, r0
 8004606:	600c      	str	r4, [r1, #0]
 8004608:	684c      	ldr	r4, [r1, #4]
 800460a:	4304      	orrs	r4, r0
 800460c:	604c      	str	r4, [r1, #4]
 800460e:	e7dc      	b.n	80045ca <LL_EXTI_Init+0x1a>
 8004610:	4917      	ldr	r1, [pc, #92]	; (8004670 <LL_EXTI_Init+0xc0>)
 8004612:	684c      	ldr	r4, [r1, #4]
 8004614:	ea24 0400 	bic.w	r4, r4, r0
 8004618:	604c      	str	r4, [r1, #4]
 800461a:	680c      	ldr	r4, [r1, #0]
 800461c:	4304      	orrs	r4, r0
 800461e:	600c      	str	r4, [r1, #0]
 8004620:	e7d3      	b.n	80045ca <LL_EXTI_Init+0x1a>
 8004622:	4913      	ldr	r1, [pc, #76]	; (8004670 <LL_EXTI_Init+0xc0>)
 8004624:	2200      	movs	r2, #0
 8004626:	680c      	ldr	r4, [r1, #0]
 8004628:	ea24 0400 	bic.w	r4, r4, r0
 800462c:	600c      	str	r4, [r1, #0]
 800462e:	684c      	ldr	r4, [r1, #4]
 8004630:	4304      	orrs	r4, r0
 8004632:	604c      	str	r4, [r1, #4]
 8004634:	e7c9      	b.n	80045ca <LL_EXTI_Init+0x1a>
 8004636:	4610      	mov	r0, r2
 8004638:	f85d 4b04 	ldr.w	r4, [sp], #4
 800463c:	4770      	bx	lr
 800463e:	4b0c      	ldr	r3, [pc, #48]	; (8004670 <LL_EXTI_Init+0xc0>)
 8004640:	6899      	ldr	r1, [r3, #8]
 8004642:	ea21 0100 	bic.w	r1, r1, r0
 8004646:	6099      	str	r1, [r3, #8]
 8004648:	68d9      	ldr	r1, [r3, #12]
 800464a:	4301      	orrs	r1, r0
 800464c:	4610      	mov	r0, r2
 800464e:	60d9      	str	r1, [r3, #12]
 8004650:	e7c5      	b.n	80045de <LL_EXTI_Init+0x2e>
 8004652:	4b07      	ldr	r3, [pc, #28]	; (8004670 <LL_EXTI_Init+0xc0>)
 8004654:	68d9      	ldr	r1, [r3, #12]
 8004656:	ea21 0100 	bic.w	r1, r1, r0
 800465a:	60d9      	str	r1, [r3, #12]
 800465c:	6899      	ldr	r1, [r3, #8]
 800465e:	4301      	orrs	r1, r0
 8004660:	4610      	mov	r0, r2
 8004662:	6099      	str	r1, [r3, #8]
 8004664:	e7bb      	b.n	80045de <LL_EXTI_Init+0x2e>
 8004666:	4b02      	ldr	r3, [pc, #8]	; (8004670 <LL_EXTI_Init+0xc0>)
 8004668:	6899      	ldr	r1, [r3, #8]
 800466a:	4301      	orrs	r1, r0
 800466c:	e7eb      	b.n	8004646 <LL_EXTI_Init+0x96>
 800466e:	bf00      	nop
 8004670:	40013c00 	.word	0x40013c00

08004674 <LL_GPIO_Init>:
 8004674:	e92d 4ff0 	stmdb	sp!, {r4, r5, r6, r7, r8, r9, sl, fp, lr}
 8004678:	680c      	ldr	r4, [r1, #0]
 800467a:	fa94 f2a4 	rbit	r2, r4
 800467e:	fab2 f282 	clz	r2, r2
 8004682:	fa34 f302 	lsrs.w	r3, r4, r2
 8004686:	f000 80a4 	beq.w	80047d2 <LL_GPIO_Init+0x15e>
 800468a:	684f      	ldr	r7, [r1, #4]
 800468c:	f04f 0c01 	mov.w	ip, #1
 8004690:	2603      	movs	r6, #3
 8004692:	f04f 080f 	mov.w	r8, #15
 8004696:	f107 3eff 	add.w	lr, r7, #4294967295
 800469a:	e003      	b.n	80046a4 <LL_GPIO_Init+0x30>
 800469c:	3201      	adds	r2, #1
 800469e:	fa34 f302 	lsrs.w	r3, r4, r2
 80046a2:	d071      	beq.n	8004788 <LL_GPIO_Init+0x114>
 80046a4:	fa0c f302 	lsl.w	r3, ip, r2
 80046a8:	4023      	ands	r3, r4
 80046aa:	d0f7      	beq.n	800469c <LL_GPIO_Init+0x28>
 80046ac:	f8d0 9000 	ldr.w	r9, [r0]
 80046b0:	fa93 faa3 	rbit	sl, r3
 80046b4:	faba fa8a 	clz	sl, sl
 80046b8:	fa93 f5a3 	rbit	r5, r3
 80046bc:	fab5 f585 	clz	r5, r5
 80046c0:	ea4f 0a4a 	mov.w	sl, sl, lsl #1
 80046c4:	f1be 0f01 	cmp.w	lr, #1
 80046c8:	ea4f 0545 	mov.w	r5, r5, lsl #1
 80046cc:	fa06 fa0a 	lsl.w	sl, r6, sl
 80046d0:	fa07 f505 	lsl.w	r5, r7, r5
 80046d4:	ea29 090a 	bic.w	r9, r9, sl
 80046d8:	ea49 0505 	orr.w	r5, r9, r5
 80046dc:	6005      	str	r5, [r0, #0]
 80046de:	d817      	bhi.n	8004710 <LL_GPIO_Init+0x9c>
 80046e0:	f8d0 a008 	ldr.w	sl, [r0, #8]
 80046e4:	fa93 f9a3 	rbit	r9, r3
 80046e8:	fab9 f989 	clz	r9, r9
 80046ec:	fa93 fba3 	rbit	fp, r3
 80046f0:	fabb fb8b 	clz	fp, fp
 80046f4:	ea4f 0949 	mov.w	r9, r9, lsl #1
 80046f8:	688d      	ldr	r5, [r1, #8]
 80046fa:	ea4f 0b4b 	mov.w	fp, fp, lsl #1
 80046fe:	fa06 f909 	lsl.w	r9, r6, r9
 8004702:	fa05 f50b 	lsl.w	r5, r5, fp
 8004706:	ea2a 0909 	bic.w	r9, sl, r9
 800470a:	ea49 0505 	orr.w	r5, r9, r5
 800470e:	6085      	str	r5, [r0, #8]
 8004710:	f8d0 a00c 	ldr.w	sl, [r0, #12]
 8004714:	fa93 f9a3 	rbit	r9, r3
 8004718:	fab9 f989 	clz	r9, r9
 800471c:	fa93 fba3 	rbit	fp, r3
 8004720:	fabb fb8b 	clz	fp, fp
 8004724:	ea4f 0949 	mov.w	r9, r9, lsl #1
 8004728:	690d      	ldr	r5, [r1, #16]
 800472a:	2f02      	cmp	r7, #2
 800472c:	ea4f 0b4b 	mov.w	fp, fp, lsl #1
 8004730:	fa06 f909 	lsl.w	r9, r6, r9
 8004734:	fa05 f50b 	lsl.w	r5, r5, fp
 8004738:	ea2a 0909 	bic.w	r9, sl, r9
 800473c:	ea49 0505 	orr.w	r5, r9, r5
 8004740:	60c5      	str	r5, [r0, #12]
 8004742:	d1ab      	bne.n	800469c <LL_GPIO_Init+0x28>
 8004744:	fa93 f9a3 	rbit	r9, r3
 8004748:	fab9 f989 	clz	r9, r9
 800474c:	0a1d      	lsrs	r5, r3, #8
 800474e:	f1b9 0f07 	cmp.w	r9, #7
 8004752:	dc27      	bgt.n	80047a4 <LL_GPIO_Init+0x130>
 8004754:	f8d0 9020 	ldr.w	r9, [r0, #32]
 8004758:	fa93 faa3 	rbit	sl, r3
 800475c:	faba fa8a 	clz	sl, sl
 8004760:	fa93 f3a3 	rbit	r3, r3
 8004764:	fab3 f383 	clz	r3, r3
 8004768:	ea4f 0a8a 	mov.w	sl, sl, lsl #2
 800476c:	694d      	ldr	r5, [r1, #20]
 800476e:	3201      	adds	r2, #1
 8004770:	009b      	lsls	r3, r3, #2
 8004772:	fa08 fa0a 	lsl.w	sl, r8, sl
 8004776:	409d      	lsls	r5, r3
 8004778:	ea29 090a 	bic.w	r9, r9, sl
 800477c:	fa34 f302 	lsrs.w	r3, r4, r2
 8004780:	ea49 0505 	orr.w	r5, r9, r5
 8004784:	6205      	str	r5, [r0, #32]
 8004786:	d18d      	bne.n	80046a4 <LL_GPIO_Init+0x30>
 8004788:	f1be 0f01 	cmp.w	lr, #1
 800478c:	d807      	bhi.n	800479e <LL_GPIO_Init+0x12a>
 800478e:	68ca      	ldr	r2, [r1, #12]
 8004790:	6843      	ldr	r3, [r0, #4]
 8004792:	fb02 f204 	mul.w	r2, r2, r4
 8004796:	ea23 0404 	bic.w	r4, r3, r4
 800479a:	4314      	orrs	r4, r2
 800479c:	6044      	str	r4, [r0, #4]
 800479e:	2000      	movs	r0, #0
 80047a0:	e8bd 8ff0 	ldmia.w	sp!, {r4, r5, r6, r7, r8, r9, sl, fp, pc}
 80047a4:	f8d0 9024 	ldr.w	r9, [r0, #36]	; 0x24
 80047a8:	fa95 faa5 	rbit	sl, r5
 80047ac:	faba fa8a 	clz	sl, sl
 80047b0:	fa95 f5a5 	rbit	r5, r5
 80047b4:	fab5 f585 	clz	r5, r5
 80047b8:	ea4f 0a8a 	mov.w	sl, sl, lsl #2
 80047bc:	694b      	ldr	r3, [r1, #20]
 80047be:	00ad      	lsls	r5, r5, #2
 80047c0:	fa08 fa0a 	lsl.w	sl, r8, sl
 80047c4:	40ab      	lsls	r3, r5
 80047c6:	ea29 090a 	bic.w	r9, r9, sl
 80047ca:	ea49 0303 	orr.w	r3, r9, r3
 80047ce:	6243      	str	r3, [r0, #36]	; 0x24
 80047d0:	e764      	b.n	800469c <LL_GPIO_Init+0x28>
 80047d2:	684b      	ldr	r3, [r1, #4]
 80047d4:	f103 3eff 	add.w	lr, r3, #4294967295
 80047d8:	e7d6      	b.n	8004788 <LL_GPIO_Init+0x114>
 80047da:	bf00      	nop

080047dc <LL_mDelay>:
 80047dc:	4b07      	ldr	r3, [pc, #28]	; (80047fc <LL_mDelay+0x20>)
 80047de:	b082      	sub	sp, #8
 80047e0:	1c42      	adds	r2, r0, #1
 80047e2:	4a06      	ldr	r2, [pc, #24]	; (80047fc <LL_mDelay+0x20>)
 80047e4:	681b      	ldr	r3, [r3, #0]
 80047e6:	bf18      	it	ne
 80047e8:	3001      	addne	r0, #1
 80047ea:	9301      	str	r3, [sp, #4]
 80047ec:	9b01      	ldr	r3, [sp, #4]
 80047ee:	6813      	ldr	r3, [r2, #0]
 80047f0:	03db      	lsls	r3, r3, #15
 80047f2:	d5fc      	bpl.n	80047ee <LL_mDelay+0x12>
 80047f4:	3801      	subs	r0, #1
 80047f6:	d1fa      	bne.n	80047ee <LL_mDelay+0x12>
 80047f8:	b002      	add	sp, #8
 80047fa:	4770      	bx	lr
 80047fc:	e000e010 	.word	0xe000e010

08004800 <disk_status>:
 8004800:	4b03      	ldr	r3, [pc, #12]	; (8004810 <disk_status+0x10>)
 8004802:	eb03 0280 	add.w	r2, r3, r0, lsl #2
 8004806:	4418      	add	r0, r3
 8004808:	6853      	ldr	r3, [r2, #4]
 800480a:	7a00      	ldrb	r0, [r0, #8]
 800480c:	685b      	ldr	r3, [r3, #4]
 800480e:	4718      	bx	r3
 8004810:	200002d8 	.word	0x200002d8

08004814 <disk_initialize>:
 8004814:	4b08      	ldr	r3, [pc, #32]	; (8004838 <disk_initialize+0x24>)
 8004816:	5c1a      	ldrb	r2, [r3, r0]
 8004818:	b95a      	cbnz	r2, 8004832 <disk_initialize+0x1e>
 800481a:	eb03 0280 	add.w	r2, r3, r0, lsl #2
 800481e:	1819      	adds	r1, r3, r0
 8004820:	b410      	push	{r4}
 8004822:	2401      	movs	r4, #1
 8004824:	6852      	ldr	r2, [r2, #4]
 8004826:	541c      	strb	r4, [r3, r0]
 8004828:	f85d 4b04 	ldr.w	r4, [sp], #4
 800482c:	7a08      	ldrb	r0, [r1, #8]
 800482e:	6813      	ldr	r3, [r2, #0]
 8004830:	4718      	bx	r3
 8004832:	2000      	movs	r0, #0
 8004834:	4770      	bx	lr
 8004836:	bf00      	nop
 8004838:	200002d8 	.word	0x200002d8

0800483c <disk_read>:
 800483c:	b430      	push	{r4, r5}
 800483e:	4c05      	ldr	r4, [pc, #20]	; (8004854 <disk_read+0x18>)
 8004840:	eb04 0580 	add.w	r5, r4, r0, lsl #2
 8004844:	4420      	add	r0, r4
 8004846:	686c      	ldr	r4, [r5, #4]
 8004848:	7a00      	ldrb	r0, [r0, #8]
 800484a:	68a4      	ldr	r4, [r4, #8]
 800484c:	46a4      	mov	ip, r4
 800484e:	bc30      	pop	{r4, r5}
 8004850:	4760      	bx	ip
 8004852:	bf00      	nop
 8004854:	200002d8 	.word	0x200002d8

08004858 <disk_write>:
 8004858:	b430      	push	{r4, r5}
 800485a:	4c05      	ldr	r4, [pc, #20]	; (8004870 <disk_write+0x18>)
 800485c:	eb04 0580 	add.w	r5, r4, r0, lsl #2
 8004860:	4420      	add	r0, r4
 8004862:	686c      	ldr	r4, [r5, #4]
 8004864:	7a00      	ldrb	r0, [r0, #8]
 8004866:	68e4      	ldr	r4, [r4, #12]
 8004868:	46a4      	mov	ip, r4
 800486a:	bc30      	pop	{r4, r5}
 800486c:	4760      	bx	ip
 800486e:	bf00      	nop
 8004870:	200002d8 	.word	0x200002d8

08004874 <disk_ioctl>:
 8004874:	4b05      	ldr	r3, [pc, #20]	; (800488c <disk_ioctl+0x18>)
 8004876:	b410      	push	{r4}
 8004878:	eb03 0480 	add.w	r4, r3, r0, lsl #2
 800487c:	4418      	add	r0, r3
 800487e:	6863      	ldr	r3, [r4, #4]
 8004880:	7a00      	ldrb	r0, [r0, #8]
 8004882:	691b      	ldr	r3, [r3, #16]
 8004884:	f85d 4b04 	ldr.w	r4, [sp], #4
 8004888:	4718      	bx	r3
 800488a:	bf00      	nop
 800488c:	200002d8 	.word	0x200002d8

08004890 <get_fileinfo>:
 8004890:	e92d 41f0 	stmdb	sp!, {r4, r5, r6, r7, r8, lr}
 8004894:	2700      	movs	r7, #0
 8004896:	f8d0 8000 	ldr.w	r8, [r0]
 800489a:	758f      	strb	r7, [r1, #22]
 800489c:	69c3      	ldr	r3, [r0, #28]
 800489e:	2b00      	cmp	r3, #0
 80048a0:	d066      	beq.n	8004970 <get_fileinfo+0xe0>
 80048a2:	6b03      	ldr	r3, [r0, #48]	; 0x30
 80048a4:	4606      	mov	r6, r0
 80048a6:	460d      	mov	r5, r1
 80048a8:	3301      	adds	r3, #1
 80048aa:	d01e      	beq.n	80048ea <get_fileinfo+0x5a>
 80048ac:	f8d8 300c 	ldr.w	r3, [r8, #12]
 80048b0:	8818      	ldrh	r0, [r3, #0]
 80048b2:	2800      	cmp	r0, #0
 80048b4:	d06c      	beq.n	8004990 <get_fileinfo+0x100>
 80048b6:	f101 0715 	add.w	r7, r1, #21
 80048ba:	2401      	movs	r4, #1
 80048bc:	e000      	b.n	80048c0 <get_fileinfo+0x30>
 80048be:	461c      	mov	r4, r3
 80048c0:	2100      	movs	r1, #0
 80048c2:	f007 f899 	bl	800b9f8 <ff_convert>
 80048c6:	1c63      	adds	r3, r4, #1
 80048c8:	2800      	cmp	r0, #0
 80048ca:	d061      	beq.n	8004990 <get_fileinfo+0x100>
 80048cc:	f5b4 7f80 	cmp.w	r4, #256	; 0x100
 80048d0:	d05e      	beq.n	8004990 <get_fileinfo+0x100>
 80048d2:	f807 0f01 	strb.w	r0, [r7, #1]!
 80048d6:	f8d8 200c 	ldr.w	r2, [r8, #12]
 80048da:	f832 0014 	ldrh.w	r0, [r2, r4, lsl #1]
 80048de:	2800      	cmp	r0, #0
 80048e0:	d1ed      	bne.n	80048be <get_fileinfo+0x2e>
 80048e2:	442c      	add	r4, r5
 80048e4:	2300      	movs	r3, #0
 80048e6:	75a3      	strb	r3, [r4, #22]
 80048e8:	7daf      	ldrb	r7, [r5, #22]
 80048ea:	6a36      	ldr	r6, [r6, #32]
 80048ec:	2400      	movs	r4, #0
 80048ee:	f04f 082e 	mov.w	r8, #46	; 0x2e
 80048f2:	1e70      	subs	r0, r6, #1
 80048f4:	f106 0c0a 	add.w	ip, r6, #10
 80048f8:	4602      	mov	r2, r0
 80048fa:	f810 3f01 	ldrb.w	r3, [r0, #1]!
 80048fe:	2b20      	cmp	r3, #32
 8004900:	d01c      	beq.n	800493c <get_fileinfo+0xac>
 8004902:	3202      	adds	r2, #2
 8004904:	2b05      	cmp	r3, #5
 8004906:	eba2 0206 	sub.w	r2, r2, r6
 800490a:	bf08      	it	eq
 800490c:	23e5      	moveq	r3, #229	; 0xe5
 800490e:	2a09      	cmp	r2, #9
 8004910:	d030      	beq.n	8004974 <get_fileinfo+0xe4>
 8004912:	1929      	adds	r1, r5, r4
 8004914:	724b      	strb	r3, [r1, #9]
 8004916:	b987      	cbnz	r7, 800493a <get_fileinfo+0xaa>
 8004918:	f1a3 0e41 	sub.w	lr, r3, #65	; 0x41
 800491c:	f1be 0f19 	cmp.w	lr, #25
 8004920:	d80a      	bhi.n	8004938 <get_fileinfo+0xa8>
 8004922:	2a09      	cmp	r2, #9
 8004924:	f896 e00c 	ldrb.w	lr, [r6, #12]
 8004928:	bf34      	ite	cc
 800492a:	2208      	movcc	r2, #8
 800492c:	2210      	movcs	r2, #16
 800492e:	ea1e 0f02 	tst.w	lr, r2
 8004932:	d001      	beq.n	8004938 <get_fileinfo+0xa8>
 8004934:	3320      	adds	r3, #32
 8004936:	b2db      	uxtb	r3, r3
 8004938:	758b      	strb	r3, [r1, #22]
 800493a:	3401      	adds	r4, #1
 800493c:	4584      	cmp	ip, r0
 800493e:	d1db      	bne.n	80048f8 <get_fileinfo+0x68>
 8004940:	1929      	adds	r1, r5, r4
 8004942:	b1ff      	cbz	r7, 8004984 <get_fileinfo+0xf4>
 8004944:	2300      	movs	r3, #0
 8004946:	724b      	strb	r3, [r1, #9]
 8004948:	7af3      	ldrb	r3, [r6, #11]
 800494a:	722b      	strb	r3, [r5, #8]
 800494c:	8bf1      	ldrh	r1, [r6, #30]
 800494e:	7f72      	ldrb	r2, [r6, #29]
 8004950:	7f33      	ldrb	r3, [r6, #28]
 8004952:	ea42 2201 	orr.w	r2, r2, r1, lsl #8
 8004956:	ea43 2302 	orr.w	r3, r3, r2, lsl #8
 800495a:	602b      	str	r3, [r5, #0]
 800495c:	8b31      	ldrh	r1, [r6, #24]
 800495e:	7df2      	ldrb	r2, [r6, #23]
 8004960:	7db3      	ldrb	r3, [r6, #22]
 8004962:	ea42 2201 	orr.w	r2, r2, r1, lsl #8
 8004966:	ea43 2302 	orr.w	r3, r3, r2, lsl #8
 800496a:	0c1a      	lsrs	r2, r3, #16
 800496c:	80eb      	strh	r3, [r5, #6]
 800496e:	80aa      	strh	r2, [r5, #4]
 8004970:	e8bd 81f0 	ldmia.w	sp!, {r4, r5, r6, r7, r8, pc}
 8004974:	1929      	adds	r1, r5, r4
 8004976:	b90f      	cbnz	r7, 800497c <get_fileinfo+0xec>
 8004978:	f881 8016 	strb.w	r8, [r1, #22]
 800497c:	3401      	adds	r4, #1
 800497e:	f881 8009 	strb.w	r8, [r1, #9]
 8004982:	e7c6      	b.n	8004912 <get_fileinfo+0x82>
 8004984:	758f      	strb	r7, [r1, #22]
 8004986:	7b33      	ldrb	r3, [r6, #12]
 8004988:	2b00      	cmp	r3, #0
 800498a:	bf08      	it	eq
 800498c:	4629      	moveq	r1, r5
 800498e:	e7d9      	b.n	8004944 <get_fileinfo+0xb4>
 8004990:	2400      	movs	r4, #0
 8004992:	2300      	movs	r3, #0
 8004994:	442c      	add	r4, r5
 8004996:	75a3      	strb	r3, [r4, #22]
 8004998:	7daf      	ldrb	r7, [r5, #22]
 800499a:	e7a6      	b.n	80048ea <get_fileinfo+0x5a>

0800499c <move_window.part.0>:
 800499c:	b5f0      	push	{r4, r5, r6, r7, lr}
 800499e:	78c3      	ldrb	r3, [r0, #3]
 80049a0:	b083      	sub	sp, #12
 80049a2:	4604      	mov	r4, r0
 80049a4:	460d      	mov	r5, r1
 80049a6:	b973      	cbnz	r3, 80049c6 <move_window.part.0+0x2a>
 80049a8:	f100 0134 	add.w	r1, r0, #52	; 0x34
 80049ac:	2301      	movs	r3, #1
 80049ae:	462a      	mov	r2, r5
 80049b0:	7860      	ldrb	r0, [r4, #1]
 80049b2:	f7ff ff43 	bl	800483c <disk_read>
 80049b6:	b910      	cbnz	r0, 80049be <move_window.part.0+0x22>
 80049b8:	6325      	str	r5, [r4, #48]	; 0x30
 80049ba:	b003      	add	sp, #12
 80049bc:	bdf0      	pop	{r4, r5, r6, r7, pc}
 80049be:	2001      	movs	r0, #1
 80049c0:	f04f 35ff 	mov.w	r5, #4294967295
 80049c4:	e7f8      	b.n	80049b8 <move_window.part.0+0x1c>
 80049c6:	6b06      	ldr	r6, [r0, #48]	; 0x30
 80049c8:	f100 0134 	add.w	r1, r0, #52	; 0x34
 80049cc:	2301      	movs	r3, #1
 80049ce:	7840      	ldrb	r0, [r0, #1]
 80049d0:	4632      	mov	r2, r6
 80049d2:	9101      	str	r1, [sp, #4]
 80049d4:	f7ff ff40 	bl	8004858 <disk_write>
 80049d8:	b9b8      	cbnz	r0, 8004a0a <move_window.part.0+0x6e>
 80049da:	6a62      	ldr	r2, [r4, #36]	; 0x24
 80049dc:	69e3      	ldr	r3, [r4, #28]
 80049de:	1ab2      	subs	r2, r6, r2
 80049e0:	9901      	ldr	r1, [sp, #4]
 80049e2:	70e0      	strb	r0, [r4, #3]
 80049e4:	429a      	cmp	r2, r3
 80049e6:	d2e1      	bcs.n	80049ac <move_window.part.0+0x10>
 80049e8:	78a7      	ldrb	r7, [r4, #2]
 80049ea:	2f01      	cmp	r7, #1
 80049ec:	d801      	bhi.n	80049f2 <move_window.part.0+0x56>
 80049ee:	e7dd      	b.n	80049ac <move_window.part.0+0x10>
 80049f0:	69e3      	ldr	r3, [r4, #28]
 80049f2:	441e      	add	r6, r3
 80049f4:	3f01      	subs	r7, #1
 80049f6:	2301      	movs	r3, #1
 80049f8:	7860      	ldrb	r0, [r4, #1]
 80049fa:	4632      	mov	r2, r6
 80049fc:	9101      	str	r1, [sp, #4]
 80049fe:	f7ff ff2b 	bl	8004858 <disk_write>
 8004a02:	2f01      	cmp	r7, #1
 8004a04:	9901      	ldr	r1, [sp, #4]
 8004a06:	d1f3      	bne.n	80049f0 <move_window.part.0+0x54>
 8004a08:	e7d0      	b.n	80049ac <move_window.part.0+0x10>
 8004a0a:	2001      	movs	r0, #1
 8004a0c:	b003      	add	sp, #12
 8004a0e:	bdf0      	pop	{r4, r5, r6, r7, pc}

08004a10 <put_fat.part.0>:
 8004a10:	e92d 43f8 	stmdb	sp!, {r3, r4, r5, r6, r7, r8, r9, lr}
 8004a14:	7803      	ldrb	r3, [r0, #0]
 8004a16:	4604      	mov	r4, r0
 8004a18:	460d      	mov	r5, r1
 8004a1a:	4616      	mov	r6, r2
 8004a1c:	2b02      	cmp	r3, #2
 8004a1e:	d006      	beq.n	8004a2e <put_fat.part.0+0x1e>
 8004a20:	2b03      	cmp	r3, #3
 8004a22:	d052      	beq.n	8004aca <put_fat.part.0+0xba>
 8004a24:	2b01      	cmp	r3, #1
 8004a26:	d01b      	beq.n	8004a60 <put_fat.part.0+0x50>
 8004a28:	2002      	movs	r0, #2
 8004a2a:	e8bd 83f8 	ldmia.w	sp!, {r3, r4, r5, r6, r7, r8, r9, pc}
 8004a2e:	6a41      	ldr	r1, [r0, #36]	; 0x24
 8004a30:	6b03      	ldr	r3, [r0, #48]	; 0x30
 8004a32:	eb01 2115 	add.w	r1, r1, r5, lsr #8
 8004a36:	4299      	cmp	r1, r3
 8004a38:	d003      	beq.n	8004a42 <put_fat.part.0+0x32>
 8004a3a:	f7ff ffaf 	bl	800499c <move_window.part.0>
 8004a3e:	2800      	cmp	r0, #0
 8004a40:	d1f3      	bne.n	8004a2a <put_fat.part.0+0x1a>
 8004a42:	006d      	lsls	r5, r5, #1
 8004a44:	f104 0334 	add.w	r3, r4, #52	; 0x34
 8004a48:	f3c6 2107 	ubfx	r1, r6, #8, #8
 8004a4c:	2201      	movs	r2, #1
 8004a4e:	f405 75ff 	and.w	r5, r5, #510	; 0x1fe
 8004a52:	2000      	movs	r0, #0
 8004a54:	555e      	strb	r6, [r3, r5]
 8004a56:	442b      	add	r3, r5
 8004a58:	7059      	strb	r1, [r3, #1]
 8004a5a:	70e2      	strb	r2, [r4, #3]
 8004a5c:	e8bd 83f8 	ldmia.w	sp!, {r3, r4, r5, r6, r7, r8, r9, pc}
 8004a60:	eb01 0751 	add.w	r7, r1, r1, lsr #1
 8004a64:	6a41      	ldr	r1, [r0, #36]	; 0x24
 8004a66:	6b03      	ldr	r3, [r0, #48]	; 0x30
 8004a68:	eb01 2157 	add.w	r1, r1, r7, lsr #9
 8004a6c:	4299      	cmp	r1, r3
 8004a6e:	d003      	beq.n	8004a78 <put_fat.part.0+0x68>
 8004a70:	f7ff ff94 	bl	800499c <move_window.part.0>
 8004a74:	2800      	cmp	r0, #0
 8004a76:	d1d8      	bne.n	8004a2a <put_fat.part.0+0x1a>
 8004a78:	07eb      	lsls	r3, r5, #31
 8004a7a:	f107 0801 	add.w	r8, r7, #1
 8004a7e:	f104 0934 	add.w	r9, r4, #52	; 0x34
 8004a82:	f3c7 0708 	ubfx	r7, r7, #0, #9
 8004a86:	d545      	bpl.n	8004b14 <put_fat.part.0+0x104>
 8004a88:	f819 3007 	ldrb.w	r3, [r9, r7]
 8004a8c:	2201      	movs	r2, #1
 8004a8e:	f003 030f 	and.w	r3, r3, #15
 8004a92:	ea43 1306 	orr.w	r3, r3, r6, lsl #4
 8004a96:	f809 3007 	strb.w	r3, [r9, r7]
 8004a9a:	6a61      	ldr	r1, [r4, #36]	; 0x24
 8004a9c:	6b23      	ldr	r3, [r4, #48]	; 0x30
 8004a9e:	eb01 2158 	add.w	r1, r1, r8, lsr #9
 8004aa2:	70e2      	strb	r2, [r4, #3]
 8004aa4:	4299      	cmp	r1, r3
 8004aa6:	d004      	beq.n	8004ab2 <put_fat.part.0+0xa2>
 8004aa8:	4620      	mov	r0, r4
 8004aaa:	f7ff ff77 	bl	800499c <move_window.part.0>
 8004aae:	2800      	cmp	r0, #0
 8004ab0:	d1bb      	bne.n	8004a2a <put_fat.part.0+0x1a>
 8004ab2:	f3c8 0808 	ubfx	r8, r8, #0, #9
 8004ab6:	f3c6 1207 	ubfx	r2, r6, #4, #8
 8004aba:	44c8      	add	r8, r9
 8004abc:	2301      	movs	r3, #1
 8004abe:	f888 2000 	strb.w	r2, [r8]
 8004ac2:	2000      	movs	r0, #0
 8004ac4:	70e3      	strb	r3, [r4, #3]
 8004ac6:	e8bd 83f8 	ldmia.w	sp!, {r3, r4, r5, r6, r7, r8, r9, pc}
 8004aca:	6a41      	ldr	r1, [r0, #36]	; 0x24
 8004acc:	6b03      	ldr	r3, [r0, #48]	; 0x30
 8004ace:	eb01 11d5 	add.w	r1, r1, r5, lsr #7
 8004ad2:	4299      	cmp	r1, r3
 8004ad4:	d003      	beq.n	8004ade <put_fat.part.0+0xce>
 8004ad6:	f7ff ff61 	bl	800499c <move_window.part.0>
 8004ada:	2800      	cmp	r0, #0
 8004adc:	d1a5      	bne.n	8004a2a <put_fat.part.0+0x1a>
 8004ade:	00ad      	lsls	r5, r5, #2
 8004ae0:	f104 0134 	add.w	r1, r4, #52	; 0x34
 8004ae4:	f026 4270 	bic.w	r2, r6, #4026531840	; 0xf0000000
 8004ae8:	f04f 0c01 	mov.w	ip, #1
 8004aec:	f405 75fe 	and.w	r5, r5, #508	; 0x1fc
 8004af0:	2000      	movs	r0, #0
 8004af2:	194f      	adds	r7, r1, r5
 8004af4:	887b      	ldrh	r3, [r7, #2]
 8004af6:	041b      	lsls	r3, r3, #16
 8004af8:	f003 4370 	and.w	r3, r3, #4026531840	; 0xf0000000
 8004afc:	4313      	orrs	r3, r2
 8004afe:	554b      	strb	r3, [r1, r5]
 8004b00:	0c1a      	lsrs	r2, r3, #16
 8004b02:	0a19      	lsrs	r1, r3, #8
 8004b04:	0e1b      	lsrs	r3, r3, #24
 8004b06:	70ba      	strb	r2, [r7, #2]
 8004b08:	7079      	strb	r1, [r7, #1]
 8004b0a:	70fb      	strb	r3, [r7, #3]
 8004b0c:	f884 c003 	strb.w	ip, [r4, #3]
 8004b10:	e8bd 83f8 	ldmia.w	sp!, {r3, r4, r5, r6, r7, r8, r9, pc}
 8004b14:	f809 6007 	strb.w	r6, [r9, r7]
 8004b18:	2201      	movs	r2, #1
 8004b1a:	6a61      	ldr	r1, [r4, #36]	; 0x24
 8004b1c:	6b23      	ldr	r3, [r4, #48]	; 0x30
 8004b1e:	eb01 2158 	add.w	r1, r1, r8, lsr #9
 8004b22:	70e2      	strb	r2, [r4, #3]
 8004b24:	4299      	cmp	r1, r3
 8004b26:	d005      	beq.n	8004b34 <put_fat.part.0+0x124>
 8004b28:	4620      	mov	r0, r4
 8004b2a:	f7ff ff37 	bl	800499c <move_window.part.0>
 8004b2e:	2800      	cmp	r0, #0
 8004b30:	f47f af7b 	bne.w	8004a2a <put_fat.part.0+0x1a>
 8004b34:	f3c8 0808 	ubfx	r8, r8, #0, #9
 8004b38:	f3c6 2203 	ubfx	r2, r6, #8, #4
 8004b3c:	44c8      	add	r8, r9
 8004b3e:	f898 1000 	ldrb.w	r1, [r8]
 8004b42:	f021 060f 	bic.w	r6, r1, #15
 8004b46:	4332      	orrs	r2, r6
 8004b48:	e7b8      	b.n	8004abc <put_fat.part.0+0xac>
 8004b4a:	bf00      	nop

08004b4c <get_fat.isra.0>:
 8004b4c:	2901      	cmp	r1, #1
 8004b4e:	d90e      	bls.n	8004b6e <get_fat.isra.0+0x22>
 8004b50:	b5f8      	push	{r3, r4, r5, r6, r7, lr}
 8004b52:	6983      	ldr	r3, [r0, #24]
 8004b54:	460c      	mov	r4, r1
 8004b56:	4605      	mov	r5, r0
 8004b58:	4299      	cmp	r1, r3
 8004b5a:	d206      	bcs.n	8004b6a <get_fat.isra.0+0x1e>
 8004b5c:	7803      	ldrb	r3, [r0, #0]
 8004b5e:	2b02      	cmp	r3, #2
 8004b60:	d046      	beq.n	8004bf0 <get_fat.isra.0+0xa4>
 8004b62:	2b03      	cmp	r3, #3
 8004b64:	d02c      	beq.n	8004bc0 <get_fat.isra.0+0x74>
 8004b66:	2b01      	cmp	r3, #1
 8004b68:	d003      	beq.n	8004b72 <get_fat.isra.0+0x26>
 8004b6a:	2001      	movs	r0, #1
 8004b6c:	bdf8      	pop	{r3, r4, r5, r6, r7, pc}
 8004b6e:	2001      	movs	r0, #1
 8004b70:	4770      	bx	lr
 8004b72:	eb01 0751 	add.w	r7, r1, r1, lsr #1
 8004b76:	6a43      	ldr	r3, [r0, #36]	; 0x24
 8004b78:	6b02      	ldr	r2, [r0, #48]	; 0x30
 8004b7a:	eb03 2157 	add.w	r1, r3, r7, lsr #9
 8004b7e:	4291      	cmp	r1, r2
 8004b80:	d005      	beq.n	8004b8e <get_fat.isra.0+0x42>
 8004b82:	f7ff ff0b 	bl	800499c <move_window.part.0>
 8004b86:	2800      	cmp	r0, #0
 8004b88:	d13b      	bne.n	8004c02 <get_fat.isra.0+0xb6>
 8004b8a:	6a6b      	ldr	r3, [r5, #36]	; 0x24
 8004b8c:	6b2a      	ldr	r2, [r5, #48]	; 0x30
 8004b8e:	f3c7 0008 	ubfx	r0, r7, #0, #9
 8004b92:	3701      	adds	r7, #1
 8004b94:	eb03 2157 	add.w	r1, r3, r7, lsr #9
 8004b98:	4428      	add	r0, r5
 8004b9a:	4291      	cmp	r1, r2
 8004b9c:	f890 6034 	ldrb.w	r6, [r0, #52]	; 0x34
 8004ba0:	d003      	beq.n	8004baa <get_fat.isra.0+0x5e>
 8004ba2:	4628      	mov	r0, r5
 8004ba4:	f7ff fefa 	bl	800499c <move_window.part.0>
 8004ba8:	bb58      	cbnz	r0, 8004c02 <get_fat.isra.0+0xb6>
 8004baa:	f3c7 0708 	ubfx	r7, r7, #0, #9
 8004bae:	07e3      	lsls	r3, r4, #31
 8004bb0:	443d      	add	r5, r7
 8004bb2:	f895 0034 	ldrb.w	r0, [r5, #52]	; 0x34
 8004bb6:	ea46 2000 	orr.w	r0, r6, r0, lsl #8
 8004bba:	d52f      	bpl.n	8004c1c <get_fat.isra.0+0xd0>
 8004bbc:	0900      	lsrs	r0, r0, #4
 8004bbe:	bdf8      	pop	{r3, r4, r5, r6, r7, pc}
 8004bc0:	6a41      	ldr	r1, [r0, #36]	; 0x24
 8004bc2:	6b03      	ldr	r3, [r0, #48]	; 0x30
 8004bc4:	eb01 11d4 	add.w	r1, r1, r4, lsr #7
 8004bc8:	4299      	cmp	r1, r3
 8004bca:	d002      	beq.n	8004bd2 <get_fat.isra.0+0x86>
 8004bcc:	f7ff fee6 	bl	800499c <move_window.part.0>
 8004bd0:	b9b8      	cbnz	r0, 8004c02 <get_fat.isra.0+0xb6>
 8004bd2:	00a4      	lsls	r4, r4, #2
 8004bd4:	3534      	adds	r5, #52	; 0x34
 8004bd6:	f404 74fe 	and.w	r4, r4, #508	; 0x1fc
 8004bda:	192a      	adds	r2, r5, r4
 8004bdc:	5d28      	ldrb	r0, [r5, r4]
 8004bde:	8851      	ldrh	r1, [r2, #2]
 8004be0:	7853      	ldrb	r3, [r2, #1]
 8004be2:	ea43 2301 	orr.w	r3, r3, r1, lsl #8
 8004be6:	ea40 2003 	orr.w	r0, r0, r3, lsl #8
 8004bea:	f020 4070 	bic.w	r0, r0, #4026531840	; 0xf0000000
 8004bee:	bdf8      	pop	{r3, r4, r5, r6, r7, pc}
 8004bf0:	6a41      	ldr	r1, [r0, #36]	; 0x24
 8004bf2:	6b03      	ldr	r3, [r0, #48]	; 0x30
 8004bf4:	eb01 2114 	add.w	r1, r1, r4, lsr #8
 8004bf8:	4299      	cmp	r1, r3
 8004bfa:	d005      	beq.n	8004c08 <get_fat.isra.0+0xbc>
 8004bfc:	f7ff fece 	bl	800499c <move_window.part.0>
 8004c00:	b110      	cbz	r0, 8004c08 <get_fat.isra.0+0xbc>
 8004c02:	f04f 30ff 	mov.w	r0, #4294967295
 8004c06:	bdf8      	pop	{r3, r4, r5, r6, r7, pc}
 8004c08:	0064      	lsls	r4, r4, #1
 8004c0a:	3534      	adds	r5, #52	; 0x34
 8004c0c:	f404 74ff 	and.w	r4, r4, #510	; 0x1fe
 8004c10:	192b      	adds	r3, r5, r4
 8004c12:	5d28      	ldrb	r0, [r5, r4]
 8004c14:	785b      	ldrb	r3, [r3, #1]
 8004c16:	ea40 2003 	orr.w	r0, r0, r3, lsl #8
 8004c1a:	bdf8      	pop	{r3, r4, r5, r6, r7, pc}
 8004c1c:	f3c0 000b 	ubfx	r0, r0, #0, #12
 8004c20:	bdf8      	pop	{r3, r4, r5, r6, r7, pc}
 8004c22:	bf00      	nop

08004c24 <dir_next.constprop.0>:
 8004c24:	69c3      	ldr	r3, [r0, #28]
 8004c26:	e92d 41f0 	stmdb	sp!, {r4, r5, r6, r7, r8, lr}
 8004c2a:	6945      	ldr	r5, [r0, #20]
 8004c2c:	b37b      	cbz	r3, 8004c8e <dir_next.constprop.0+0x6a>
 8004c2e:	3520      	adds	r5, #32
 8004c30:	f5b5 1f00 	cmp.w	r5, #2097152	; 0x200000
 8004c34:	d22b      	bcs.n	8004c8e <dir_next.constprop.0+0x6a>
 8004c36:	f3c5 0708 	ubfx	r7, r5, #0, #9
 8004c3a:	4604      	mov	r4, r0
 8004c3c:	6806      	ldr	r6, [r0, #0]
 8004c3e:	b137      	cbz	r7, 8004c4e <dir_next.constprop.0+0x2a>
 8004c40:	3634      	adds	r6, #52	; 0x34
 8004c42:	2000      	movs	r0, #0
 8004c44:	6165      	str	r5, [r4, #20]
 8004c46:	443e      	add	r6, r7
 8004c48:	6226      	str	r6, [r4, #32]
 8004c4a:	e8bd 81f0 	ldmia.w	sp!, {r4, r5, r6, r7, r8, pc}
 8004c4e:	3301      	adds	r3, #1
 8004c50:	6981      	ldr	r1, [r0, #24]
 8004c52:	61c3      	str	r3, [r0, #28]
 8004c54:	b1f1      	cbz	r1, 8004c94 <dir_next.constprop.0+0x70>
 8004c56:	8973      	ldrh	r3, [r6, #10]
 8004c58:	3b01      	subs	r3, #1
 8004c5a:	ea13 2855 	ands.w	r8, r3, r5, lsr #9
 8004c5e:	d1ef      	bne.n	8004c40 <dir_next.constprop.0+0x1c>
 8004c60:	4630      	mov	r0, r6
 8004c62:	f7ff ff73 	bl	8004b4c <get_fat.isra.0>
 8004c66:	2801      	cmp	r0, #1
 8004c68:	d91c      	bls.n	8004ca4 <dir_next.constprop.0+0x80>
 8004c6a:	1c43      	adds	r3, r0, #1
 8004c6c:	d01c      	beq.n	8004ca8 <dir_next.constprop.0+0x84>
 8004c6e:	69b3      	ldr	r3, [r6, #24]
 8004c70:	4298      	cmp	r0, r3
 8004c72:	d213      	bcs.n	8004c9c <dir_next.constprop.0+0x78>
 8004c74:	3b02      	subs	r3, #2
 8004c76:	1e82      	subs	r2, r0, #2
 8004c78:	61a0      	str	r0, [r4, #24]
 8004c7a:	429a      	cmp	r2, r3
 8004c7c:	d204      	bcs.n	8004c88 <dir_next.constprop.0+0x64>
 8004c7e:	f8b6 800a 	ldrh.w	r8, [r6, #10]
 8004c82:	6af3      	ldr	r3, [r6, #44]	; 0x2c
 8004c84:	fb02 3808 	mla	r8, r2, r8, r3
 8004c88:	f8c4 801c 	str.w	r8, [r4, #28]
 8004c8c:	e7d8      	b.n	8004c40 <dir_next.constprop.0+0x1c>
 8004c8e:	2004      	movs	r0, #4
 8004c90:	e8bd 81f0 	ldmia.w	sp!, {r4, r5, r6, r7, r8, pc}
 8004c94:	8933      	ldrh	r3, [r6, #8]
 8004c96:	ebb3 1f55 	cmp.w	r3, r5, lsr #5
 8004c9a:	d8d1      	bhi.n	8004c40 <dir_next.constprop.0+0x1c>
 8004c9c:	2300      	movs	r3, #0
 8004c9e:	2004      	movs	r0, #4
 8004ca0:	61e3      	str	r3, [r4, #28]
 8004ca2:	e7d2      	b.n	8004c4a <dir_next.constprop.0+0x26>
 8004ca4:	2002      	movs	r0, #2
 8004ca6:	e7d0      	b.n	8004c4a <dir_next.constprop.0+0x26>
 8004ca8:	2001      	movs	r0, #1
 8004caa:	e7ce      	b.n	8004c4a <dir_next.constprop.0+0x26>

08004cac <dir_read.constprop.0>:
 8004cac:	e92d 4ff0 	stmdb	sp!, {r4, r5, r6, r7, r8, r9, sl, fp, lr}
 8004cb0:	f8d0 a01c 	ldr.w	sl, [r0, #28]
 8004cb4:	b083      	sub	sp, #12
 8004cb6:	4604      	mov	r4, r0
 8004cb8:	6806      	ldr	r6, [r0, #0]
 8004cba:	f1ba 0f00 	cmp.w	sl, #0
 8004cbe:	d064      	beq.n	8004d8a <dir_read.constprop.0+0xde>
 8004cc0:	f04f 09ff 	mov.w	r9, #255	; 0xff
 8004cc4:	f106 0834 	add.w	r8, r6, #52	; 0x34
 8004cc8:	464f      	mov	r7, r9
 8004cca:	6b35      	ldr	r5, [r6, #48]	; 0x30
 8004ccc:	4555      	cmp	r5, sl
 8004cce:	d015      	beq.n	8004cfc <dir_read.constprop.0+0x50>
 8004cd0:	78f3      	ldrb	r3, [r6, #3]
 8004cd2:	2b00      	cmp	r3, #0
 8004cd4:	f040 8102 	bne.w	8004edc <dir_read.constprop.0+0x230>
 8004cd8:	2301      	movs	r3, #1
 8004cda:	4652      	mov	r2, sl
 8004cdc:	4641      	mov	r1, r8
 8004cde:	7870      	ldrb	r0, [r6, #1]
 8004ce0:	f7ff fdac 	bl	800483c <disk_read>
 8004ce4:	b140      	cbz	r0, 8004cf8 <dir_read.constprop.0+0x4c>
 8004ce6:	f04f 33ff 	mov.w	r3, #4294967295
 8004cea:	2001      	movs	r0, #1
 8004cec:	6333      	str	r3, [r6, #48]	; 0x30
 8004cee:	2300      	movs	r3, #0
 8004cf0:	61e3      	str	r3, [r4, #28]
 8004cf2:	b003      	add	sp, #12
 8004cf4:	e8bd 8ff0 	ldmia.w	sp!, {r4, r5, r6, r7, r8, r9, sl, fp, pc}
 8004cf8:	f8c6 a030 	str.w	sl, [r6, #48]	; 0x30
 8004cfc:	6a21      	ldr	r1, [r4, #32]
 8004cfe:	780a      	ldrb	r2, [r1, #0]
 8004d00:	2a00      	cmp	r2, #0
 8004d02:	d042      	beq.n	8004d8a <dir_read.constprop.0+0xde>
 8004d04:	7acb      	ldrb	r3, [r1, #11]
 8004d06:	2ae5      	cmp	r2, #229	; 0xe5
 8004d08:	f003 033f 	and.w	r3, r3, #63	; 0x3f
 8004d0c:	71a3      	strb	r3, [r4, #6]
 8004d0e:	d005      	beq.n	8004d1c <dir_read.constprop.0+0x70>
 8004d10:	2a2e      	cmp	r2, #46	; 0x2e
 8004d12:	d003      	beq.n	8004d1c <dir_read.constprop.0+0x70>
 8004d14:	f023 0020 	bic.w	r0, r3, #32
 8004d18:	2808      	cmp	r0, #8
 8004d1a:	d13d      	bne.n	8004d98 <dir_read.constprop.0+0xec>
 8004d1c:	6965      	ldr	r5, [r4, #20]
 8004d1e:	27ff      	movs	r7, #255	; 0xff
 8004d20:	3520      	adds	r5, #32
 8004d22:	f8d4 a01c 	ldr.w	sl, [r4, #28]
 8004d26:	f5b5 1f00 	cmp.w	r5, #2097152	; 0x200000
 8004d2a:	d22e      	bcs.n	8004d8a <dir_read.constprop.0+0xde>
 8004d2c:	f1ba 0f00 	cmp.w	sl, #0
 8004d30:	d02b      	beq.n	8004d8a <dir_read.constprop.0+0xde>
 8004d32:	f3c5 0208 	ubfx	r2, r5, #0, #9
 8004d36:	6823      	ldr	r3, [r4, #0]
 8004d38:	bb4a      	cbnz	r2, 8004d8e <dir_read.constprop.0+0xe2>
 8004d3a:	f10a 0a01 	add.w	sl, sl, #1
 8004d3e:	69a1      	ldr	r1, [r4, #24]
 8004d40:	f8c4 a01c 	str.w	sl, [r4, #28]
 8004d44:	b969      	cbnz	r1, 8004d62 <dir_read.constprop.0+0xb6>
 8004d46:	891a      	ldrh	r2, [r3, #8]
 8004d48:	ebb2 1f55 	cmp.w	r2, r5, lsr #5
 8004d4c:	d91d      	bls.n	8004d8a <dir_read.constprop.0+0xde>
 8004d4e:	3334      	adds	r3, #52	; 0x34
 8004d50:	6165      	str	r5, [r4, #20]
 8004d52:	6223      	str	r3, [r4, #32]
 8004d54:	f1ba 0f00 	cmp.w	sl, #0
 8004d58:	d1b7      	bne.n	8004cca <dir_read.constprop.0+0x1e>
 8004d5a:	2000      	movs	r0, #0
 8004d5c:	b003      	add	sp, #12
 8004d5e:	e8bd 8ff0 	ldmia.w	sp!, {r4, r5, r6, r7, r8, r9, sl, fp, pc}
 8004d62:	895a      	ldrh	r2, [r3, #10]
 8004d64:	3a01      	subs	r2, #1
 8004d66:	ea12 2b55 	ands.w	fp, r2, r5, lsr #9
 8004d6a:	d1f0      	bne.n	8004d4e <dir_read.constprop.0+0xa2>
 8004d6c:	4618      	mov	r0, r3
 8004d6e:	9301      	str	r3, [sp, #4]
 8004d70:	f7ff feec 	bl	8004b4c <get_fat.isra.0>
 8004d74:	2801      	cmp	r0, #1
 8004d76:	f240 80e6 	bls.w	8004f46 <dir_read.constprop.0+0x29a>
 8004d7a:	1c43      	adds	r3, r0, #1
 8004d7c:	f000 80b5 	beq.w	8004eea <dir_read.constprop.0+0x23e>
 8004d80:	9b01      	ldr	r3, [sp, #4]
 8004d82:	699a      	ldr	r2, [r3, #24]
 8004d84:	4290      	cmp	r0, r2
 8004d86:	f0c0 80d1 	bcc.w	8004f2c <dir_read.constprop.0+0x280>
 8004d8a:	2004      	movs	r0, #4
 8004d8c:	e7af      	b.n	8004cee <dir_read.constprop.0+0x42>
 8004d8e:	3334      	adds	r3, #52	; 0x34
 8004d90:	6165      	str	r5, [r4, #20]
 8004d92:	441a      	add	r2, r3
 8004d94:	6222      	str	r2, [r4, #32]
 8004d96:	e798      	b.n	8004cca <dir_read.constprop.0+0x1e>
 8004d98:	2b0f      	cmp	r3, #15
 8004d9a:	f040 80dc 	bne.w	8004f56 <dir_read.constprop.0+0x2aa>
 8004d9e:	0650      	lsls	r0, r2, #25
 8004da0:	6965      	ldr	r5, [r4, #20]
 8004da2:	f140 80a4 	bpl.w	8004eee <dir_read.constprop.0+0x242>
 8004da6:	f002 07bf 	and.w	r7, r2, #191	; 0xbf
 8004daa:	f891 900d 	ldrb.w	r9, [r1, #13]
 8004dae:	6325      	str	r5, [r4, #48]	; 0x30
 8004db0:	7b4b      	ldrb	r3, [r1, #13]
 8004db2:	454b      	cmp	r3, r9
 8004db4:	d1b3      	bne.n	8004d1e <dir_read.constprop.0+0x72>
 8004db6:	7eca      	ldrb	r2, [r1, #27]
 8004db8:	7e8b      	ldrb	r3, [r1, #26]
 8004dba:	ea53 2302 	orrs.w	r3, r3, r2, lsl #8
 8004dbe:	d1ae      	bne.n	8004d1e <dir_read.constprop.0+0x72>
 8004dc0:	780b      	ldrb	r3, [r1, #0]
 8004dc2:	788a      	ldrb	r2, [r1, #2]
 8004dc4:	f023 0340 	bic.w	r3, r3, #64	; 0x40
 8004dc8:	7848      	ldrb	r0, [r1, #1]
 8004dca:	3b01      	subs	r3, #1
 8004dcc:	ea40 2002 	orr.w	r0, r0, r2, lsl #8
 8004dd0:	eb03 0243 	add.w	r2, r3, r3, lsl #1
 8004dd4:	eb03 0382 	add.w	r3, r3, r2, lsl #2
 8004dd8:	2bfe      	cmp	r3, #254	; 0xfe
 8004dda:	d8a0      	bhi.n	8004d1e <dir_read.constprop.0+0x72>
 8004ddc:	f8d6 e00c 	ldr.w	lr, [r6, #12]
 8004de0:	1c5a      	adds	r2, r3, #1
 8004de2:	f82e 0013 	strh.w	r0, [lr, r3, lsl #1]
 8004de6:	f891 a004 	ldrb.w	sl, [r1, #4]
 8004dea:	f891 c003 	ldrb.w	ip, [r1, #3]
 8004dee:	ea4c 2c0a 	orr.w	ip, ip, sl, lsl #8
 8004df2:	2800      	cmp	r0, #0
 8004df4:	f040 80b7 	bne.w	8004f66 <dir_read.constprop.0+0x2ba>
 8004df8:	f64f 73ff 	movw	r3, #65535	; 0xffff
 8004dfc:	459c      	cmp	ip, r3
 8004dfe:	d18e      	bne.n	8004d1e <dir_read.constprop.0+0x72>
 8004e00:	798b      	ldrb	r3, [r1, #6]
 8004e02:	f891 b005 	ldrb.w	fp, [r1, #5]
 8004e06:	ea4b 2b03 	orr.w	fp, fp, r3, lsl #8
 8004e0a:	f64f 73ff 	movw	r3, #65535	; 0xffff
 8004e0e:	459b      	cmp	fp, r3
 8004e10:	d185      	bne.n	8004d1e <dir_read.constprop.0+0x72>
 8004e12:	7a0b      	ldrb	r3, [r1, #8]
 8004e14:	f891 a007 	ldrb.w	sl, [r1, #7]
 8004e18:	ea4a 2a03 	orr.w	sl, sl, r3, lsl #8
 8004e1c:	f64f 73ff 	movw	r3, #65535	; 0xffff
 8004e20:	459a      	cmp	sl, r3
 8004e22:	f47f af7c 	bne.w	8004d1e <dir_read.constprop.0+0x72>
 8004e26:	7a8b      	ldrb	r3, [r1, #10]
 8004e28:	f891 c009 	ldrb.w	ip, [r1, #9]
 8004e2c:	ea4c 2c03 	orr.w	ip, ip, r3, lsl #8
 8004e30:	f64f 73ff 	movw	r3, #65535	; 0xffff
 8004e34:	459c      	cmp	ip, r3
 8004e36:	f47f af72 	bne.w	8004d1e <dir_read.constprop.0+0x72>
 8004e3a:	7bcb      	ldrb	r3, [r1, #15]
 8004e3c:	f891 b00e 	ldrb.w	fp, [r1, #14]
 8004e40:	ea4b 2b03 	orr.w	fp, fp, r3, lsl #8
 8004e44:	f64f 73ff 	movw	r3, #65535	; 0xffff
 8004e48:	459b      	cmp	fp, r3
 8004e4a:	f47f af68 	bne.w	8004d1e <dir_read.constprop.0+0x72>
 8004e4e:	7c4b      	ldrb	r3, [r1, #17]
 8004e50:	f891 a010 	ldrb.w	sl, [r1, #16]
 8004e54:	ea4a 2a03 	orr.w	sl, sl, r3, lsl #8
 8004e58:	f64f 73ff 	movw	r3, #65535	; 0xffff
 8004e5c:	459a      	cmp	sl, r3
 8004e5e:	f47f af5e 	bne.w	8004d1e <dir_read.constprop.0+0x72>
 8004e62:	7ccb      	ldrb	r3, [r1, #19]
 8004e64:	f891 c012 	ldrb.w	ip, [r1, #18]
 8004e68:	ea4c 2c03 	orr.w	ip, ip, r3, lsl #8
 8004e6c:	f64f 73ff 	movw	r3, #65535	; 0xffff
 8004e70:	459c      	cmp	ip, r3
 8004e72:	f47f af54 	bne.w	8004d1e <dir_read.constprop.0+0x72>
 8004e76:	7d4b      	ldrb	r3, [r1, #21]
 8004e78:	f891 a014 	ldrb.w	sl, [r1, #20]
 8004e7c:	ea4a 2a03 	orr.w	sl, sl, r3, lsl #8
 8004e80:	f64f 73ff 	movw	r3, #65535	; 0xffff
 8004e84:	459a      	cmp	sl, r3
 8004e86:	f47f af4a 	bne.w	8004d1e <dir_read.constprop.0+0x72>
 8004e8a:	7dcb      	ldrb	r3, [r1, #23]
 8004e8c:	f891 c016 	ldrb.w	ip, [r1, #22]
 8004e90:	ea4c 2c03 	orr.w	ip, ip, r3, lsl #8
 8004e94:	f64f 73ff 	movw	r3, #65535	; 0xffff
 8004e98:	459c      	cmp	ip, r3
 8004e9a:	f47f af40 	bne.w	8004d1e <dir_read.constprop.0+0x72>
 8004e9e:	7e4b      	ldrb	r3, [r1, #25]
 8004ea0:	f891 a018 	ldrb.w	sl, [r1, #24]
 8004ea4:	ea4a 2a03 	orr.w	sl, sl, r3, lsl #8
 8004ea8:	f64f 73ff 	movw	r3, #65535	; 0xffff
 8004eac:	459a      	cmp	sl, r3
 8004eae:	f47f af36 	bne.w	8004d1e <dir_read.constprop.0+0x72>
 8004eb2:	7f4b      	ldrb	r3, [r1, #29]
 8004eb4:	f891 c01c 	ldrb.w	ip, [r1, #28]
 8004eb8:	ea4c 2c03 	orr.w	ip, ip, r3, lsl #8
 8004ebc:	f64f 73ff 	movw	r3, #65535	; 0xffff
 8004ec0:	459c      	cmp	ip, r3
 8004ec2:	f47f af2c 	bne.w	8004d1e <dir_read.constprop.0+0x72>
 8004ec6:	7fcb      	ldrb	r3, [r1, #31]
 8004ec8:	f891 a01e 	ldrb.w	sl, [r1, #30]
 8004ecc:	ea4a 2a03 	orr.w	sl, sl, r3, lsl #8
 8004ed0:	f64f 73ff 	movw	r3, #65535	; 0xffff
 8004ed4:	459a      	cmp	sl, r3
 8004ed6:	f000 8101 	beq.w	80050dc <dir_read.constprop.0+0x430>
 8004eda:	e720      	b.n	8004d1e <dir_read.constprop.0+0x72>
 8004edc:	2301      	movs	r3, #1
 8004ede:	462a      	mov	r2, r5
 8004ee0:	4641      	mov	r1, r8
 8004ee2:	7870      	ldrb	r0, [r6, #1]
 8004ee4:	f7ff fcb8 	bl	8004858 <disk_write>
 8004ee8:	b128      	cbz	r0, 8004ef6 <dir_read.constprop.0+0x24a>
 8004eea:	2001      	movs	r0, #1
 8004eec:	e6ff      	b.n	8004cee <dir_read.constprop.0+0x42>
 8004eee:	42ba      	cmp	r2, r7
 8004ef0:	f47f af15 	bne.w	8004d1e <dir_read.constprop.0+0x72>
 8004ef4:	e75c      	b.n	8004db0 <dir_read.constprop.0+0x104>
 8004ef6:	6a72      	ldr	r2, [r6, #36]	; 0x24
 8004ef8:	69f3      	ldr	r3, [r6, #28]
 8004efa:	1aaa      	subs	r2, r5, r2
 8004efc:	70f0      	strb	r0, [r6, #3]
 8004efe:	429a      	cmp	r2, r3
 8004f00:	f4bf aeea 	bcs.w	8004cd8 <dir_read.constprop.0+0x2c>
 8004f04:	f896 b002 	ldrb.w	fp, [r6, #2]
 8004f08:	f1bb 0f01 	cmp.w	fp, #1
 8004f0c:	d801      	bhi.n	8004f12 <dir_read.constprop.0+0x266>
 8004f0e:	e6e3      	b.n	8004cd8 <dir_read.constprop.0+0x2c>
 8004f10:	69f3      	ldr	r3, [r6, #28]
 8004f12:	441d      	add	r5, r3
 8004f14:	f10b 3bff 	add.w	fp, fp, #4294967295
 8004f18:	2301      	movs	r3, #1
 8004f1a:	4641      	mov	r1, r8
 8004f1c:	462a      	mov	r2, r5
 8004f1e:	7870      	ldrb	r0, [r6, #1]
 8004f20:	f7ff fc9a 	bl	8004858 <disk_write>
 8004f24:	f1bb 0f01 	cmp.w	fp, #1
 8004f28:	d1f2      	bne.n	8004f10 <dir_read.constprop.0+0x264>
 8004f2a:	e6d5      	b.n	8004cd8 <dir_read.constprop.0+0x2c>
 8004f2c:	3a02      	subs	r2, #2
 8004f2e:	1e81      	subs	r1, r0, #2
 8004f30:	61a0      	str	r0, [r4, #24]
 8004f32:	4291      	cmp	r1, r2
 8004f34:	d209      	bcs.n	8004f4a <dir_read.constprop.0+0x29e>
 8004f36:	f8b3 a00a 	ldrh.w	sl, [r3, #10]
 8004f3a:	6ada      	ldr	r2, [r3, #44]	; 0x2c
 8004f3c:	fb01 2a0a 	mla	sl, r1, sl, r2
 8004f40:	f8c4 a01c 	str.w	sl, [r4, #28]
 8004f44:	e703      	b.n	8004d4e <dir_read.constprop.0+0xa2>
 8004f46:	2002      	movs	r0, #2
 8004f48:	e6d1      	b.n	8004cee <dir_read.constprop.0+0x42>
 8004f4a:	3334      	adds	r3, #52	; 0x34
 8004f4c:	f8c4 b01c 	str.w	fp, [r4, #28]
 8004f50:	6165      	str	r5, [r4, #20]
 8004f52:	6223      	str	r3, [r4, #32]
 8004f54:	e701      	b.n	8004d5a <dir_read.constprop.0+0xae>
 8004f56:	2f00      	cmp	r7, #0
 8004f58:	f000 80cb 	beq.w	80050f2 <dir_read.constprop.0+0x446>
 8004f5c:	f04f 33ff 	mov.w	r3, #4294967295
 8004f60:	2000      	movs	r0, #0
 8004f62:	6323      	str	r3, [r4, #48]	; 0x30
 8004f64:	e6c5      	b.n	8004cf2 <dir_read.constprop.0+0x46>
 8004f66:	2aff      	cmp	r2, #255	; 0xff
 8004f68:	f000 810d 	beq.w	8005186 <dir_read.constprop.0+0x4da>
 8004f6c:	f82e c012 	strh.w	ip, [lr, r2, lsl #1]
 8004f70:	0050      	lsls	r0, r2, #1
 8004f72:	f891 a006 	ldrb.w	sl, [r1, #6]
 8004f76:	1c9a      	adds	r2, r3, #2
 8004f78:	f891 b005 	ldrb.w	fp, [r1, #5]
 8004f7c:	ea4b 2b0a 	orr.w	fp, fp, sl, lsl #8
 8004f80:	f1bc 0f00 	cmp.w	ip, #0
 8004f84:	f43f af41 	beq.w	8004e0a <dir_read.constprop.0+0x15e>
 8004f88:	2aff      	cmp	r2, #255	; 0xff
 8004f8a:	f000 80fc 	beq.w	8005186 <dir_read.constprop.0+0x4da>
 8004f8e:	4470      	add	r0, lr
 8004f90:	1cda      	adds	r2, r3, #3
 8004f92:	f8a0 b002 	strh.w	fp, [r0, #2]
 8004f96:	f891 c008 	ldrb.w	ip, [r1, #8]
 8004f9a:	f891 a007 	ldrb.w	sl, [r1, #7]
 8004f9e:	ea4a 2a0c 	orr.w	sl, sl, ip, lsl #8
 8004fa2:	f1bb 0f00 	cmp.w	fp, #0
 8004fa6:	f43f af39 	beq.w	8004e1c <dir_read.constprop.0+0x170>
 8004faa:	2aff      	cmp	r2, #255	; 0xff
 8004fac:	f000 80eb 	beq.w	8005186 <dir_read.constprop.0+0x4da>
 8004fb0:	f8a0 a004 	strh.w	sl, [r0, #4]
 8004fb4:	1d1a      	adds	r2, r3, #4
 8004fb6:	f891 b00a 	ldrb.w	fp, [r1, #10]
 8004fba:	f891 c009 	ldrb.w	ip, [r1, #9]
 8004fbe:	ea4c 2c0b 	orr.w	ip, ip, fp, lsl #8
 8004fc2:	f1ba 0f00 	cmp.w	sl, #0
 8004fc6:	f43f af33 	beq.w	8004e30 <dir_read.constprop.0+0x184>
 8004fca:	2aff      	cmp	r2, #255	; 0xff
 8004fcc:	f000 80db 	beq.w	8005186 <dir_read.constprop.0+0x4da>
 8004fd0:	f8a0 c006 	strh.w	ip, [r0, #6]
 8004fd4:	1d5a      	adds	r2, r3, #5
 8004fd6:	f891 a00f 	ldrb.w	sl, [r1, #15]
 8004fda:	f891 b00e 	ldrb.w	fp, [r1, #14]
 8004fde:	ea4b 2b0a 	orr.w	fp, fp, sl, lsl #8
 8004fe2:	f1bc 0f00 	cmp.w	ip, #0
 8004fe6:	f43f af2d 	beq.w	8004e44 <dir_read.constprop.0+0x198>
 8004fea:	2aff      	cmp	r2, #255	; 0xff
 8004fec:	f000 80cb 	beq.w	8005186 <dir_read.constprop.0+0x4da>
 8004ff0:	f8a0 b008 	strh.w	fp, [r0, #8]
 8004ff4:	1d9a      	adds	r2, r3, #6
 8004ff6:	f891 c011 	ldrb.w	ip, [r1, #17]
 8004ffa:	f891 a010 	ldrb.w	sl, [r1, #16]
 8004ffe:	ea4a 2a0c 	orr.w	sl, sl, ip, lsl #8
 8005002:	f1bb 0f00 	cmp.w	fp, #0
 8005006:	f43f af27 	beq.w	8004e58 <dir_read.constprop.0+0x1ac>
 800500a:	2aff      	cmp	r2, #255	; 0xff
 800500c:	f000 80bb 	beq.w	8005186 <dir_read.constprop.0+0x4da>
 8005010:	f8a0 a00a 	strh.w	sl, [r0, #10]
 8005014:	1dda      	adds	r2, r3, #7
 8005016:	f891 b013 	ldrb.w	fp, [r1, #19]
 800501a:	f891 c012 	ldrb.w	ip, [r1, #18]
 800501e:	ea4c 2c0b 	orr.w	ip, ip, fp, lsl #8
 8005022:	f1ba 0f00 	cmp.w	sl, #0
 8005026:	f43f af21 	beq.w	8004e6c <dir_read.constprop.0+0x1c0>
 800502a:	2aff      	cmp	r2, #255	; 0xff
 800502c:	f000 80ab 	beq.w	8005186 <dir_read.constprop.0+0x4da>
 8005030:	f8a0 c00c 	strh.w	ip, [r0, #12]
 8005034:	f103 0208 	add.w	r2, r3, #8
 8005038:	f891 b015 	ldrb.w	fp, [r1, #21]
 800503c:	f891 a014 	ldrb.w	sl, [r1, #20]
 8005040:	ea4a 2a0b 	orr.w	sl, sl, fp, lsl #8
 8005044:	f1bc 0f00 	cmp.w	ip, #0
 8005048:	f43f af1a 	beq.w	8004e80 <dir_read.constprop.0+0x1d4>
 800504c:	2aff      	cmp	r2, #255	; 0xff
 800504e:	f000 809a 	beq.w	8005186 <dir_read.constprop.0+0x4da>
 8005052:	f8a0 a00e 	strh.w	sl, [r0, #14]
 8005056:	f103 0209 	add.w	r2, r3, #9
 800505a:	f891 b017 	ldrb.w	fp, [r1, #23]
 800505e:	f891 c016 	ldrb.w	ip, [r1, #22]
 8005062:	ea4c 2c0b 	orr.w	ip, ip, fp, lsl #8
 8005066:	f1ba 0f00 	cmp.w	sl, #0
 800506a:	f43f af13 	beq.w	8004e94 <dir_read.constprop.0+0x1e8>
 800506e:	2aff      	cmp	r2, #255	; 0xff
 8005070:	f43f ae55 	beq.w	8004d1e <dir_read.constprop.0+0x72>
 8005074:	f8a0 c010 	strh.w	ip, [r0, #16]
 8005078:	f103 020a 	add.w	r2, r3, #10
 800507c:	f891 b019 	ldrb.w	fp, [r1, #25]
 8005080:	f891 a018 	ldrb.w	sl, [r1, #24]
 8005084:	ea4a 2a0b 	orr.w	sl, sl, fp, lsl #8
 8005088:	f1bc 0f00 	cmp.w	ip, #0
 800508c:	f43f af0c 	beq.w	8004ea8 <dir_read.constprop.0+0x1fc>
 8005090:	2aff      	cmp	r2, #255	; 0xff
 8005092:	d078      	beq.n	8005186 <dir_read.constprop.0+0x4da>
 8005094:	f8a0 a012 	strh.w	sl, [r0, #18]
 8005098:	f103 020b 	add.w	r2, r3, #11
 800509c:	f891 b01d 	ldrb.w	fp, [r1, #29]
 80050a0:	f891 c01c 	ldrb.w	ip, [r1, #28]
 80050a4:	ea4c 2c0b 	orr.w	ip, ip, fp, lsl #8
 80050a8:	f1ba 0f00 	cmp.w	sl, #0
 80050ac:	f43f af06 	beq.w	8004ebc <dir_read.constprop.0+0x210>
 80050b0:	2aff      	cmp	r2, #255	; 0xff
 80050b2:	d068      	beq.n	8005186 <dir_read.constprop.0+0x4da>
 80050b4:	f8a0 c014 	strh.w	ip, [r0, #20]
 80050b8:	f103 020c 	add.w	r2, r3, #12
 80050bc:	f891 b01f 	ldrb.w	fp, [r1, #31]
 80050c0:	f891 a01e 	ldrb.w	sl, [r1, #30]
 80050c4:	ea4a 2a0b 	orr.w	sl, sl, fp, lsl #8
 80050c8:	f1bc 0f00 	cmp.w	ip, #0
 80050cc:	f43f af00 	beq.w	8004ed0 <dir_read.constprop.0+0x224>
 80050d0:	2aff      	cmp	r2, #255	; 0xff
 80050d2:	d058      	beq.n	8005186 <dir_read.constprop.0+0x4da>
 80050d4:	f103 020d 	add.w	r2, r3, #13
 80050d8:	f8a0 a016 	strh.w	sl, [r0, #22]
 80050dc:	780b      	ldrb	r3, [r1, #0]
 80050de:	0659      	lsls	r1, r3, #25
 80050e0:	d504      	bpl.n	80050ec <dir_read.constprop.0+0x440>
 80050e2:	2aff      	cmp	r2, #255	; 0xff
 80050e4:	d04f      	beq.n	8005186 <dir_read.constprop.0+0x4da>
 80050e6:	2300      	movs	r3, #0
 80050e8:	f82e 3012 	strh.w	r3, [lr, r2, lsl #1]
 80050ec:	3f01      	subs	r7, #1
 80050ee:	b2ff      	uxtb	r7, r7
 80050f0:	e616      	b.n	8004d20 <dir_read.constprop.0+0x74>
 80050f2:	780a      	ldrb	r2, [r1, #0]
 80050f4:	784e      	ldrb	r6, [r1, #1]
 80050f6:	01d3      	lsls	r3, r2, #7
 80050f8:	788d      	ldrb	r5, [r1, #2]
 80050fa:	78c8      	ldrb	r0, [r1, #3]
 80050fc:	ea43 0352 	orr.w	r3, r3, r2, lsr #1
 8005100:	199a      	adds	r2, r3, r6
 8005102:	790e      	ldrb	r6, [r1, #4]
 8005104:	f3c2 0346 	ubfx	r3, r2, #1, #7
 8005108:	ea43 13c2 	orr.w	r3, r3, r2, lsl #7
 800510c:	fa55 f283 	uxtab	r2, r5, r3
 8005110:	794d      	ldrb	r5, [r1, #5]
 8005112:	f3c2 0346 	ubfx	r3, r2, #1, #7
 8005116:	ea43 13c2 	orr.w	r3, r3, r2, lsl #7
 800511a:	fa50 f283 	uxtab	r2, r0, r3
 800511e:	7988      	ldrb	r0, [r1, #6]
 8005120:	f3c2 0346 	ubfx	r3, r2, #1, #7
 8005124:	ea43 13c2 	orr.w	r3, r3, r2, lsl #7
 8005128:	fa56 f283 	uxtab	r2, r6, r3
 800512c:	79ce      	ldrb	r6, [r1, #7]
 800512e:	f3c2 0346 	ubfx	r3, r2, #1, #7
 8005132:	ea43 13c2 	orr.w	r3, r3, r2, lsl #7
 8005136:	fa55 f283 	uxtab	r2, r5, r3
 800513a:	7a0d      	ldrb	r5, [r1, #8]
 800513c:	f3c2 0346 	ubfx	r3, r2, #1, #7
 8005140:	ea43 13c2 	orr.w	r3, r3, r2, lsl #7
 8005144:	fa50 f283 	uxtab	r2, r0, r3
 8005148:	7a48      	ldrb	r0, [r1, #9]
 800514a:	7a89      	ldrb	r1, [r1, #10]
 800514c:	f3c2 0346 	ubfx	r3, r2, #1, #7
 8005150:	ea43 13c2 	orr.w	r3, r3, r2, lsl #7
 8005154:	fa56 f283 	uxtab	r2, r6, r3
 8005158:	f3c2 0346 	ubfx	r3, r2, #1, #7
 800515c:	ea43 13c2 	orr.w	r3, r3, r2, lsl #7
 8005160:	fa55 f283 	uxtab	r2, r5, r3
 8005164:	f3c2 0346 	ubfx	r3, r2, #1, #7
 8005168:	ea43 13c2 	orr.w	r3, r3, r2, lsl #7
 800516c:	fa50 f283 	uxtab	r2, r0, r3
 8005170:	f3c2 0346 	ubfx	r3, r2, #1, #7
 8005174:	ea43 13c2 	orr.w	r3, r3, r2, lsl #7
 8005178:	fa51 f383 	uxtab	r3, r1, r3
 800517c:	b2db      	uxtb	r3, r3
 800517e:	4599      	cmp	r9, r3
 8005180:	f47f aeec 	bne.w	8004f5c <dir_read.constprop.0+0x2b0>
 8005184:	e5e9      	b.n	8004d5a <dir_read.constprop.0+0xae>
 8005186:	4617      	mov	r7, r2
 8005188:	e5ca      	b.n	8004d20 <dir_read.constprop.0+0x74>
 800518a:	bf00      	nop

0800518c <sync_fs>:
 800518c:	b5f8      	push	{r3, r4, r5, r6, r7, lr}
 800518e:	78c3      	ldrb	r3, [r0, #3]
 8005190:	4604      	mov	r4, r0
 8005192:	b95b      	cbnz	r3, 80051ac <sync_fs+0x20>
 8005194:	7823      	ldrb	r3, [r4, #0]
 8005196:	2b03      	cmp	r3, #3
 8005198:	d029      	beq.n	80051ee <sync_fs+0x62>
 800519a:	2200      	movs	r2, #0
 800519c:	7860      	ldrb	r0, [r4, #1]
 800519e:	4611      	mov	r1, r2
 80051a0:	f7ff fb68 	bl	8004874 <disk_ioctl>
 80051a4:	3800      	subs	r0, #0
 80051a6:	bf18      	it	ne
 80051a8:	2001      	movne	r0, #1
 80051aa:	bdf8      	pop	{r3, r4, r5, r6, r7, pc}
 80051ac:	6b05      	ldr	r5, [r0, #48]	; 0x30
 80051ae:	f100 0734 	add.w	r7, r0, #52	; 0x34
 80051b2:	2301      	movs	r3, #1
 80051b4:	7840      	ldrb	r0, [r0, #1]
 80051b6:	462a      	mov	r2, r5
 80051b8:	4639      	mov	r1, r7
 80051ba:	f7ff fb4d 	bl	8004858 <disk_write>
 80051be:	2800      	cmp	r0, #0
 80051c0:	d150      	bne.n	8005264 <sync_fs+0xd8>
 80051c2:	6a62      	ldr	r2, [r4, #36]	; 0x24
 80051c4:	69e3      	ldr	r3, [r4, #28]
 80051c6:	1aaa      	subs	r2, r5, r2
 80051c8:	70e0      	strb	r0, [r4, #3]
 80051ca:	429a      	cmp	r2, r3
 80051cc:	d2e2      	bcs.n	8005194 <sync_fs+0x8>
 80051ce:	78a6      	ldrb	r6, [r4, #2]
 80051d0:	2e01      	cmp	r6, #1
 80051d2:	d801      	bhi.n	80051d8 <sync_fs+0x4c>
 80051d4:	e7de      	b.n	8005194 <sync_fs+0x8>
 80051d6:	69e3      	ldr	r3, [r4, #28]
 80051d8:	441d      	add	r5, r3
 80051da:	3e01      	subs	r6, #1
 80051dc:	2301      	movs	r3, #1
 80051de:	4639      	mov	r1, r7
 80051e0:	462a      	mov	r2, r5
 80051e2:	7860      	ldrb	r0, [r4, #1]
 80051e4:	f7ff fb38 	bl	8004858 <disk_write>
 80051e8:	2e01      	cmp	r6, #1
 80051ea:	d1f4      	bne.n	80051d6 <sync_fs+0x4a>
 80051ec:	e7d2      	b.n	8005194 <sync_fs+0x8>
 80051ee:	7926      	ldrb	r6, [r4, #4]
 80051f0:	2e01      	cmp	r6, #1
 80051f2:	d1d2      	bne.n	800519a <sync_fs+0xe>
 80051f4:	f104 0334 	add.w	r3, r4, #52	; 0x34
 80051f8:	f44f 7200 	mov.w	r2, #512	; 0x200
 80051fc:	2100      	movs	r1, #0
 80051fe:	2755      	movs	r7, #85	; 0x55
 8005200:	4618      	mov	r0, r3
 8005202:	f006 fd2d 	bl	800bc60 <memset>
 8005206:	4603      	mov	r3, r0
 8005208:	6a22      	ldr	r2, [r4, #32]
 800520a:	4619      	mov	r1, r3
 800520c:	4633      	mov	r3, r6
 800520e:	3201      	adds	r2, #1
 8005210:	f884 7232 	strb.w	r7, [r4, #562]	; 0x232
 8005214:	e9d4 0504 	ldrd	r0, r5, [r4, #16]
 8005218:	6322      	str	r2, [r4, #48]	; 0x30
 800521a:	ea4f 2c15 	mov.w	ip, r5, lsr #8
 800521e:	f884 521c 	strb.w	r5, [r4, #540]	; 0x21c
 8005222:	0c2e      	lsrs	r6, r5, #16
 8005224:	f884 0220 	strb.w	r0, [r4, #544]	; 0x220
 8005228:	0e2d      	lsrs	r5, r5, #24
 800522a:	f884 c21d 	strb.w	ip, [r4, #541]	; 0x21d
 800522e:	f884 621e 	strb.w	r6, [r4, #542]	; 0x21e
 8005232:	0a06      	lsrs	r6, r0, #8
 8005234:	f884 521f 	strb.w	r5, [r4, #543]	; 0x21f
 8005238:	0c05      	lsrs	r5, r0, #16
 800523a:	0e00      	lsrs	r0, r0, #24
 800523c:	f884 6221 	strb.w	r6, [r4, #545]	; 0x221
 8005240:	f884 5222 	strb.w	r5, [r4, #546]	; 0x222
 8005244:	26aa      	movs	r6, #170	; 0xaa
 8005246:	f884 0223 	strb.w	r0, [r4, #547]	; 0x223
 800524a:	4d07      	ldr	r5, [pc, #28]	; (8005268 <sync_fs+0xdc>)
 800524c:	4807      	ldr	r0, [pc, #28]	; (800526c <sync_fs+0xe0>)
 800524e:	f884 6233 	strb.w	r6, [r4, #563]	; 0x233
 8005252:	f8c4 0218 	str.w	r0, [r4, #536]	; 0x218
 8005256:	6365      	str	r5, [r4, #52]	; 0x34
 8005258:	7860      	ldrb	r0, [r4, #1]
 800525a:	f7ff fafd 	bl	8004858 <disk_write>
 800525e:	2300      	movs	r3, #0
 8005260:	7123      	strb	r3, [r4, #4]
 8005262:	e79a      	b.n	800519a <sync_fs+0xe>
 8005264:	2001      	movs	r0, #1
 8005266:	bdf8      	pop	{r3, r4, r5, r6, r7, pc}
 8005268:	41615252 	.word	0x41615252
 800526c:	61417272 	.word	0x61417272

08005270 <create_chain>:
 8005270:	e92d 4ff8 	stmdb	sp!, {r3, r4, r5, r6, r7, r8, r9, sl, fp, lr}
 8005274:	4681      	mov	r9, r0
 8005276:	460f      	mov	r7, r1
 8005278:	f8d0 8000 	ldr.w	r8, [r0]
 800527c:	2900      	cmp	r1, #0
 800527e:	f040 80bc 	bne.w	80053fa <create_chain+0x18a>
 8005282:	f8d8 6010 	ldr.w	r6, [r8, #16]
 8005286:	f8d8 3018 	ldr.w	r3, [r8, #24]
 800528a:	b9ce      	cbnz	r6, 80052c0 <create_chain+0x50>
 800528c:	2601      	movs	r6, #1
 800528e:	4634      	mov	r4, r6
 8005290:	3401      	adds	r4, #1
 8005292:	429c      	cmp	r4, r3
 8005294:	d318      	bcc.n	80052c8 <create_chain+0x58>
 8005296:	2e01      	cmp	r6, #1
 8005298:	f240 80ab 	bls.w	80053f2 <create_chain+0x182>
 800529c:	f8d9 5000 	ldr.w	r5, [r9]
 80052a0:	2402      	movs	r4, #2
 80052a2:	69ab      	ldr	r3, [r5, #24]
 80052a4:	42a3      	cmp	r3, r4
 80052a6:	d907      	bls.n	80052b8 <create_chain+0x48>
 80052a8:	782b      	ldrb	r3, [r5, #0]
 80052aa:	2b02      	cmp	r3, #2
 80052ac:	f000 808c 	beq.w	80053c8 <create_chain+0x158>
 80052b0:	2b03      	cmp	r3, #3
 80052b2:	d044      	beq.n	800533e <create_chain+0xce>
 80052b4:	2b01      	cmp	r3, #1
 80052b6:	d00c      	beq.n	80052d2 <create_chain+0x62>
 80052b8:	2401      	movs	r4, #1
 80052ba:	4620      	mov	r0, r4
 80052bc:	e8bd 8ff8 	ldmia.w	sp!, {r3, r4, r5, r6, r7, r8, r9, sl, fp, pc}
 80052c0:	42b3      	cmp	r3, r6
 80052c2:	bf98      	it	ls
 80052c4:	2601      	movls	r6, #1
 80052c6:	e7e2      	b.n	800528e <create_chain+0x1e>
 80052c8:	2c01      	cmp	r4, #1
 80052ca:	f8d9 5000 	ldr.w	r5, [r9]
 80052ce:	d9f3      	bls.n	80052b8 <create_chain+0x48>
 80052d0:	e7e7      	b.n	80052a2 <create_chain+0x32>
 80052d2:	eb04 0b54 	add.w	fp, r4, r4, lsr #1
 80052d6:	6a6b      	ldr	r3, [r5, #36]	; 0x24
 80052d8:	6b2a      	ldr	r2, [r5, #48]	; 0x30
 80052da:	eb03 215b 	add.w	r1, r3, fp, lsr #9
 80052de:	4291      	cmp	r1, r2
 80052e0:	d005      	beq.n	80052ee <create_chain+0x7e>
 80052e2:	4628      	mov	r0, r5
 80052e4:	f7ff fb5a 	bl	800499c <move_window.part.0>
 80052e8:	bb20      	cbnz	r0, 8005334 <create_chain+0xc4>
 80052ea:	6a6b      	ldr	r3, [r5, #36]	; 0x24
 80052ec:	6b2a      	ldr	r2, [r5, #48]	; 0x30
 80052ee:	f3cb 0008 	ubfx	r0, fp, #0, #9
 80052f2:	f10b 0b01 	add.w	fp, fp, #1
 80052f6:	eb03 215b 	add.w	r1, r3, fp, lsr #9
 80052fa:	4428      	add	r0, r5
 80052fc:	4291      	cmp	r1, r2
 80052fe:	f890 a034 	ldrb.w	sl, [r0, #52]	; 0x34
 8005302:	d003      	beq.n	800530c <create_chain+0x9c>
 8005304:	4628      	mov	r0, r5
 8005306:	f7ff fb49 	bl	800499c <move_window.part.0>
 800530a:	b998      	cbnz	r0, 8005334 <create_chain+0xc4>
 800530c:	f3cb 0b08 	ubfx	fp, fp, #0, #9
 8005310:	07e2      	lsls	r2, r4, #31
 8005312:	445d      	add	r5, fp
 8005314:	f895 3034 	ldrb.w	r3, [r5, #52]	; 0x34
 8005318:	ea4a 2303 	orr.w	r3, sl, r3, lsl #8
 800531c:	d57d      	bpl.n	800541a <create_chain+0x1aa>
 800531e:	091b      	lsrs	r3, r3, #4
 8005320:	b343      	cbz	r3, 8005374 <create_chain+0x104>
 8005322:	2b01      	cmp	r3, #1
 8005324:	d0c8      	beq.n	80052b8 <create_chain+0x48>
 8005326:	42a6      	cmp	r6, r4
 8005328:	d063      	beq.n	80053f2 <create_chain+0x182>
 800532a:	f8d8 3018 	ldr.w	r3, [r8, #24]
 800532e:	e7af      	b.n	8005290 <create_chain+0x20>
 8005330:	2801      	cmp	r0, #1
 8005332:	d1c1      	bne.n	80052b8 <create_chain+0x48>
 8005334:	f04f 34ff 	mov.w	r4, #4294967295
 8005338:	4620      	mov	r0, r4
 800533a:	e8bd 8ff8 	ldmia.w	sp!, {r3, r4, r5, r6, r7, r8, r9, sl, fp, pc}
 800533e:	6a69      	ldr	r1, [r5, #36]	; 0x24
 8005340:	6b2b      	ldr	r3, [r5, #48]	; 0x30
 8005342:	eb01 11d4 	add.w	r1, r1, r4, lsr #7
 8005346:	4299      	cmp	r1, r3
 8005348:	d004      	beq.n	8005354 <create_chain+0xe4>
 800534a:	4628      	mov	r0, r5
 800534c:	f7ff fb26 	bl	800499c <move_window.part.0>
 8005350:	2800      	cmp	r0, #0
 8005352:	d1ef      	bne.n	8005334 <create_chain+0xc4>
 8005354:	00a3      	lsls	r3, r4, #2
 8005356:	3534      	adds	r5, #52	; 0x34
 8005358:	f403 73fe 	and.w	r3, r3, #508	; 0x1fc
 800535c:	18e9      	adds	r1, r5, r3
 800535e:	5ceb      	ldrb	r3, [r5, r3]
 8005360:	8848      	ldrh	r0, [r1, #2]
 8005362:	784a      	ldrb	r2, [r1, #1]
 8005364:	ea42 2200 	orr.w	r2, r2, r0, lsl #8
 8005368:	ea43 2302 	orr.w	r3, r3, r2, lsl #8
 800536c:	f023 4370 	bic.w	r3, r3, #4026531840	; 0xf0000000
 8005370:	2b00      	cmp	r3, #0
 8005372:	d1d6      	bne.n	8005322 <create_chain+0xb2>
 8005374:	f8d8 3018 	ldr.w	r3, [r8, #24]
 8005378:	42a3      	cmp	r3, r4
 800537a:	d99d      	bls.n	80052b8 <create_chain+0x48>
 800537c:	f04f 32ff 	mov.w	r2, #4294967295
 8005380:	4621      	mov	r1, r4
 8005382:	4640      	mov	r0, r8
 8005384:	f7ff fb44 	bl	8004a10 <put_fat.part.0>
 8005388:	b958      	cbnz	r0, 80053a2 <create_chain+0x132>
 800538a:	b157      	cbz	r7, 80053a2 <create_chain+0x132>
 800538c:	2f01      	cmp	r7, #1
 800538e:	d993      	bls.n	80052b8 <create_chain+0x48>
 8005390:	f8d8 3018 	ldr.w	r3, [r8, #24]
 8005394:	429f      	cmp	r7, r3
 8005396:	d28f      	bcs.n	80052b8 <create_chain+0x48>
 8005398:	4639      	mov	r1, r7
 800539a:	4622      	mov	r2, r4
 800539c:	4640      	mov	r0, r8
 800539e:	f7ff fb37 	bl	8004a10 <put_fat.part.0>
 80053a2:	2800      	cmp	r0, #0
 80053a4:	d1c4      	bne.n	8005330 <create_chain+0xc0>
 80053a6:	f8c8 4010 	str.w	r4, [r8, #16]
 80053aa:	e9d8 2305 	ldrd	r2, r3, [r8, #20]
 80053ae:	3b02      	subs	r3, #2
 80053b0:	429a      	cmp	r2, r3
 80053b2:	d802      	bhi.n	80053ba <create_chain+0x14a>
 80053b4:	3a01      	subs	r2, #1
 80053b6:	f8c8 2014 	str.w	r2, [r8, #20]
 80053ba:	f898 3004 	ldrb.w	r3, [r8, #4]
 80053be:	f043 0301 	orr.w	r3, r3, #1
 80053c2:	f888 3004 	strb.w	r3, [r8, #4]
 80053c6:	e778      	b.n	80052ba <create_chain+0x4a>
 80053c8:	6a69      	ldr	r1, [r5, #36]	; 0x24
 80053ca:	6b2b      	ldr	r3, [r5, #48]	; 0x30
 80053cc:	eb01 2114 	add.w	r1, r1, r4, lsr #8
 80053d0:	4299      	cmp	r1, r3
 80053d2:	d004      	beq.n	80053de <create_chain+0x16e>
 80053d4:	4628      	mov	r0, r5
 80053d6:	f7ff fae1 	bl	800499c <move_window.part.0>
 80053da:	2800      	cmp	r0, #0
 80053dc:	d1aa      	bne.n	8005334 <create_chain+0xc4>
 80053de:	0063      	lsls	r3, r4, #1
 80053e0:	3534      	adds	r5, #52	; 0x34
 80053e2:	f403 73ff 	and.w	r3, r3, #510	; 0x1fe
 80053e6:	18ea      	adds	r2, r5, r3
 80053e8:	5ceb      	ldrb	r3, [r5, r3]
 80053ea:	7852      	ldrb	r2, [r2, #1]
 80053ec:	ea43 2302 	orr.w	r3, r3, r2, lsl #8
 80053f0:	e796      	b.n	8005320 <create_chain+0xb0>
 80053f2:	2400      	movs	r4, #0
 80053f4:	4620      	mov	r0, r4
 80053f6:	e8bd 8ff8 	ldmia.w	sp!, {r3, r4, r5, r6, r7, r8, r9, sl, fp, pc}
 80053fa:	4640      	mov	r0, r8
 80053fc:	f7ff fba6 	bl	8004b4c <get_fat.isra.0>
 8005400:	2801      	cmp	r0, #1
 8005402:	4604      	mov	r4, r0
 8005404:	f67f af58 	bls.w	80052b8 <create_chain+0x48>
 8005408:	1c41      	adds	r1, r0, #1
 800540a:	d093      	beq.n	8005334 <create_chain+0xc4>
 800540c:	f8d8 3018 	ldr.w	r3, [r8, #24]
 8005410:	4283      	cmp	r3, r0
 8005412:	f63f af52 	bhi.w	80052ba <create_chain+0x4a>
 8005416:	463e      	mov	r6, r7
 8005418:	e739      	b.n	800528e <create_chain+0x1e>
 800541a:	f3c3 030b 	ubfx	r3, r3, #0, #12
 800541e:	e77f      	b.n	8005320 <create_chain+0xb0>

08005420 <check_fs>:
 8005420:	b570      	push	{r4, r5, r6, lr}
 8005422:	f04f 36ff 	mov.w	r6, #4294967295
 8005426:	2300      	movs	r3, #0
 8005428:	4604      	mov	r4, r0
 800542a:	42b1      	cmp	r1, r6
 800542c:	70c3      	strb	r3, [r0, #3]
 800542e:	6306      	str	r6, [r0, #48]	; 0x30
 8005430:	d00c      	beq.n	800544c <check_fs+0x2c>
 8005432:	460d      	mov	r5, r1
 8005434:	460a      	mov	r2, r1
 8005436:	2301      	movs	r3, #1
 8005438:	f100 0134 	add.w	r1, r0, #52	; 0x34
 800543c:	7840      	ldrb	r0, [r0, #1]
 800543e:	f7ff f9fd 	bl	800483c <disk_read>
 8005442:	b110      	cbz	r0, 800544a <check_fs+0x2a>
 8005444:	2004      	movs	r0, #4
 8005446:	6326      	str	r6, [r4, #48]	; 0x30
 8005448:	bd70      	pop	{r4, r5, r6, pc}
 800544a:	6325      	str	r5, [r4, #48]	; 0x30
 800544c:	f894 1233 	ldrb.w	r1, [r4, #563]	; 0x233
 8005450:	f64a 2255 	movw	r2, #43605	; 0xaa55
 8005454:	f894 3232 	ldrb.w	r3, [r4, #562]	; 0x232
 8005458:	ea43 2301 	orr.w	r3, r3, r1, lsl #8
 800545c:	4293      	cmp	r3, r2
 800545e:	d12a      	bne.n	80054b6 <check_fs+0x96>
 8005460:	f894 3034 	ldrb.w	r3, [r4, #52]	; 0x34
 8005464:	2be9      	cmp	r3, #233	; 0xe9
 8005466:	d007      	beq.n	8005478 <check_fs+0x58>
 8005468:	6b63      	ldr	r3, [r4, #52]	; 0x34
 800546a:	4a15      	ldr	r2, [pc, #84]	; (80054c0 <check_fs+0xa0>)
 800546c:	f003 13ff 	and.w	r3, r3, #16711935	; 0xff00ff
 8005470:	4293      	cmp	r3, r2
 8005472:	d001      	beq.n	8005478 <check_fs+0x58>
 8005474:	2002      	movs	r0, #2
 8005476:	bd70      	pop	{r4, r5, r6, pc}
 8005478:	f8b4 106c 	ldrh.w	r1, [r4, #108]	; 0x6c
 800547c:	f894 206b 	ldrb.w	r2, [r4, #107]	; 0x6b
 8005480:	f894 306a 	ldrb.w	r3, [r4, #106]	; 0x6a
 8005484:	ea42 2201 	orr.w	r2, r2, r1, lsl #8
 8005488:	490e      	ldr	r1, [pc, #56]	; (80054c4 <check_fs+0xa4>)
 800548a:	ea43 2302 	orr.w	r3, r3, r2, lsl #8
 800548e:	f023 437f 	bic.w	r3, r3, #4278190080	; 0xff000000
 8005492:	428b      	cmp	r3, r1
 8005494:	d011      	beq.n	80054ba <check_fs+0x9a>
 8005496:	f8b4 2088 	ldrh.w	r2, [r4, #136]	; 0x88
 800549a:	f894 3087 	ldrb.w	r3, [r4, #135]	; 0x87
 800549e:	f894 0086 	ldrb.w	r0, [r4, #134]	; 0x86
 80054a2:	ea43 2302 	orr.w	r3, r3, r2, lsl #8
 80054a6:	4a08      	ldr	r2, [pc, #32]	; (80054c8 <check_fs+0xa8>)
 80054a8:	ea40 2003 	orr.w	r0, r0, r3, lsl #8
 80054ac:	4290      	cmp	r0, r2
 80054ae:	bf14      	ite	ne
 80054b0:	2002      	movne	r0, #2
 80054b2:	2000      	moveq	r0, #0
 80054b4:	bd70      	pop	{r4, r5, r6, pc}
 80054b6:	2003      	movs	r0, #3
 80054b8:	bd70      	pop	{r4, r5, r6, pc}
 80054ba:	2000      	movs	r0, #0
 80054bc:	bd70      	pop	{r4, r5, r6, pc}
 80054be:	bf00      	nop
 80054c0:	009000eb 	.word	0x009000eb
 80054c4:	00544146 	.word	0x00544146
 80054c8:	33544146 	.word	0x33544146

080054cc <find_volume>:
 80054cc:	e92d 41f0 	stmdb	sp!, {r4, r5, r6, r7, r8, lr}
 80054d0:	6803      	ldr	r3, [r0, #0]
 80054d2:	2400      	movs	r4, #0
 80054d4:	600c      	str	r4, [r1, #0]
 80054d6:	b18b      	cbz	r3, 80054fc <find_volume+0x30>
 80054d8:	781e      	ldrb	r6, [r3, #0]
 80054da:	2e1f      	cmp	r6, #31
 80054dc:	d912      	bls.n	8005504 <find_volume+0x38>
 80054de:	2e3a      	cmp	r6, #58	; 0x3a
 80054e0:	d010      	beq.n	8005504 <find_volume+0x38>
 80054e2:	461d      	mov	r5, r3
 80054e4:	f815 4f01 	ldrb.w	r4, [r5, #1]!
 80054e8:	2c1f      	cmp	r4, #31
 80054ea:	d90d      	bls.n	8005508 <find_volume+0x3c>
 80054ec:	2c3a      	cmp	r4, #58	; 0x3a
 80054ee:	d1f9      	bne.n	80054e4 <find_volume+0x18>
 80054f0:	3301      	adds	r3, #1
 80054f2:	429d      	cmp	r5, r3
 80054f4:	d102      	bne.n	80054fc <find_volume+0x30>
 80054f6:	2e30      	cmp	r6, #48	; 0x30
 80054f8:	f000 8132 	beq.w	8005760 <find_volume+0x294>
 80054fc:	250b      	movs	r5, #11
 80054fe:	4628      	mov	r0, r5
 8005500:	e8bd 81f0 	ldmia.w	sp!, {r4, r5, r6, r7, r8, pc}
 8005504:	4634      	mov	r4, r6
 8005506:	461d      	mov	r5, r3
 8005508:	2c3a      	cmp	r4, #58	; 0x3a
 800550a:	d0f1      	beq.n	80054f0 <find_volume+0x24>
 800550c:	4bbf      	ldr	r3, [pc, #764]	; (800580c <find_volume+0x340>)
 800550e:	681c      	ldr	r4, [r3, #0]
 8005510:	2c00      	cmp	r4, #0
 8005512:	f000 8121 	beq.w	8005758 <find_volume+0x28c>
 8005516:	600c      	str	r4, [r1, #0]
 8005518:	f002 05fe 	and.w	r5, r2, #254	; 0xfe
 800551c:	7823      	ldrb	r3, [r4, #0]
 800551e:	b17b      	cbz	r3, 8005540 <find_volume+0x74>
 8005520:	7860      	ldrb	r0, [r4, #1]
 8005522:	f7ff f96d 	bl	8004800 <disk_status>
 8005526:	07c1      	lsls	r1, r0, #31
 8005528:	d40a      	bmi.n	8005540 <find_volume+0x74>
 800552a:	2d00      	cmp	r5, #0
 800552c:	f000 8103 	beq.w	8005736 <find_volume+0x26a>
 8005530:	f010 0504 	ands.w	r5, r0, #4
 8005534:	f000 80ff 	beq.w	8005736 <find_volume+0x26a>
 8005538:	250a      	movs	r5, #10
 800553a:	4628      	mov	r0, r5
 800553c:	e8bd 81f0 	ldmia.w	sp!, {r4, r5, r6, r7, r8, pc}
 8005540:	2000      	movs	r0, #0
 8005542:	8020      	strh	r0, [r4, #0]
 8005544:	f7ff f966 	bl	8004814 <disk_initialize>
 8005548:	07c2      	lsls	r2, r0, #31
 800554a:	f100 80f7 	bmi.w	800573c <find_volume+0x270>
 800554e:	b10d      	cbz	r5, 8005554 <find_volume+0x88>
 8005550:	0743      	lsls	r3, r0, #29
 8005552:	d4f1      	bmi.n	8005538 <find_volume+0x6c>
 8005554:	2100      	movs	r1, #0
 8005556:	4620      	mov	r0, r4
 8005558:	f7ff ff62 	bl	8005420 <check_fs>
 800555c:	2802      	cmp	r0, #2
 800555e:	f000 80a7 	beq.w	80056b0 <find_volume+0x1e4>
 8005562:	2804      	cmp	r0, #4
 8005564:	f000 80f6 	beq.w	8005754 <find_volume+0x288>
 8005568:	2801      	cmp	r0, #1
 800556a:	f200 80e3 	bhi.w	8005734 <find_volume+0x268>
 800556e:	2500      	movs	r5, #0
 8005570:	f894 2040 	ldrb.w	r2, [r4, #64]	; 0x40
 8005574:	f894 303f 	ldrb.w	r3, [r4, #63]	; 0x3f
 8005578:	ea43 2302 	orr.w	r3, r3, r2, lsl #8
 800557c:	f5b3 7f00 	cmp.w	r3, #512	; 0x200
 8005580:	f040 80d8 	bne.w	8005734 <find_volume+0x268>
 8005584:	f894 204b 	ldrb.w	r2, [r4, #75]	; 0x4b
 8005588:	f894 304a 	ldrb.w	r3, [r4, #74]	; 0x4a
 800558c:	ea53 2302 	orrs.w	r3, r3, r2, lsl #8
 8005590:	d109      	bne.n	80055a6 <find_volume+0xda>
 8005592:	f8b4 105a 	ldrh.w	r1, [r4, #90]	; 0x5a
 8005596:	f894 3059 	ldrb.w	r3, [r4, #89]	; 0x59
 800559a:	f894 2058 	ldrb.w	r2, [r4, #88]	; 0x58
 800559e:	ea43 2301 	orr.w	r3, r3, r1, lsl #8
 80055a2:	ea42 2303 	orr.w	r3, r2, r3, lsl #8
 80055a6:	f894 0044 	ldrb.w	r0, [r4, #68]	; 0x44
 80055aa:	61e3      	str	r3, [r4, #28]
 80055ac:	1e42      	subs	r2, r0, #1
 80055ae:	70a0      	strb	r0, [r4, #2]
 80055b0:	2a01      	cmp	r2, #1
 80055b2:	f200 80bf 	bhi.w	8005734 <find_volume+0x268>
 80055b6:	f894 7041 	ldrb.w	r7, [r4, #65]	; 0x41
 80055ba:	b2ba      	uxth	r2, r7
 80055bc:	8162      	strh	r2, [r4, #10]
 80055be:	2a00      	cmp	r2, #0
 80055c0:	f000 80b8 	beq.w	8005734 <find_volume+0x268>
 80055c4:	1e7a      	subs	r2, r7, #1
 80055c6:	423a      	tst	r2, r7
 80055c8:	f040 80b4 	bne.w	8005734 <find_volume+0x268>
 80055cc:	f894 1046 	ldrb.w	r1, [r4, #70]	; 0x46
 80055d0:	f894 2045 	ldrb.w	r2, [r4, #69]	; 0x45
 80055d4:	ea42 2201 	orr.w	r2, r2, r1, lsl #8
 80055d8:	f012 0f0f 	tst.w	r2, #15
 80055dc:	4694      	mov	ip, r2
 80055de:	b216      	sxth	r6, r2
 80055e0:	8122      	strh	r2, [r4, #8]
 80055e2:	f040 80a7 	bne.w	8005734 <find_volume+0x268>
 80055e6:	f894 1048 	ldrb.w	r1, [r4, #72]	; 0x48
 80055ea:	f894 2047 	ldrb.w	r2, [r4, #71]	; 0x47
 80055ee:	ea52 2201 	orrs.w	r2, r2, r1, lsl #8
 80055f2:	d109      	bne.n	8005608 <find_volume+0x13c>
 80055f4:	f8b4 e056 	ldrh.w	lr, [r4, #86]	; 0x56
 80055f8:	f894 1055 	ldrb.w	r1, [r4, #85]	; 0x55
 80055fc:	f894 2054 	ldrb.w	r2, [r4, #84]	; 0x54
 8005600:	ea41 210e 	orr.w	r1, r1, lr, lsl #8
 8005604:	ea42 2201 	orr.w	r2, r2, r1, lsl #8
 8005608:	f894 e043 	ldrb.w	lr, [r4, #67]	; 0x43
 800560c:	f894 1042 	ldrb.w	r1, [r4, #66]	; 0x42
 8005610:	ea51 210e 	orrs.w	r1, r1, lr, lsl #8
 8005614:	f000 808e 	beq.w	8005734 <find_volume+0x268>
 8005618:	fb03 f000 	mul.w	r0, r3, r0
 800561c:	eb01 1e1c 	add.w	lr, r1, ip, lsr #4
 8005620:	4486      	add	lr, r0
 8005622:	4572      	cmp	r2, lr
 8005624:	f0c0 8086 	bcc.w	8005734 <find_volume+0x268>
 8005628:	eba2 020e 	sub.w	r2, r2, lr
 800562c:	42ba      	cmp	r2, r7
 800562e:	fbb2 f8f7 	udiv	r8, r2, r7
 8005632:	d37f      	bcc.n	8005734 <find_volume+0x268>
 8005634:	f64f 72f5 	movw	r2, #65525	; 0xfff5
 8005638:	4590      	cmp	r8, r2
 800563a:	f200 80a4 	bhi.w	8005786 <find_volume+0x2ba>
 800563e:	f640 72f5 	movw	r2, #4085	; 0xff5
 8005642:	4429      	add	r1, r5
 8005644:	eb0e 0605 	add.w	r6, lr, r5
 8005648:	6225      	str	r5, [r4, #32]
 800564a:	4590      	cmp	r8, r2
 800564c:	f108 0202 	add.w	r2, r8, #2
 8005650:	6261      	str	r1, [r4, #36]	; 0x24
 8005652:	61a2      	str	r2, [r4, #24]
 8005654:	62e6      	str	r6, [r4, #44]	; 0x2c
 8005656:	f200 80ce 	bhi.w	80057f6 <find_volume+0x32a>
 800565a:	f1bc 0f00 	cmp.w	ip, #0
 800565e:	d069      	beq.n	8005734 <find_volume+0x268>
 8005660:	eb02 0542 	add.w	r5, r2, r2, lsl #1
 8005664:	f002 0201 	and.w	r2, r2, #1
 8005668:	4401      	add	r1, r0
 800566a:	2001      	movs	r0, #1
 800566c:	eb02 0255 	add.w	r2, r2, r5, lsr #1
 8005670:	62a1      	str	r1, [r4, #40]	; 0x28
 8005672:	f202 12ff 	addw	r2, r2, #511	; 0x1ff
 8005676:	ebb3 2f52 	cmp.w	r3, r2, lsr #9
 800567a:	d35b      	bcc.n	8005734 <find_volume+0x268>
 800567c:	f04f 33ff 	mov.w	r3, #4294967295
 8005680:	2280      	movs	r2, #128	; 0x80
 8005682:	e9c4 3304 	strd	r3, r3, [r4, #16]
 8005686:	7122      	strb	r2, [r4, #4]
 8005688:	4961      	ldr	r1, [pc, #388]	; (8005810 <find_volume+0x344>)
 800568a:	4a62      	ldr	r2, [pc, #392]	; (8005814 <find_volume+0x348>)
 800568c:	880b      	ldrh	r3, [r1, #0]
 800568e:	7020      	strb	r0, [r4, #0]
 8005690:	3301      	adds	r3, #1
 8005692:	6810      	ldr	r0, [r2, #0]
 8005694:	4d60      	ldr	r5, [pc, #384]	; (8005818 <find_volume+0x34c>)
 8005696:	b29b      	uxth	r3, r3
 8005698:	42a0      	cmp	r0, r4
 800569a:	60e5      	str	r5, [r4, #12]
 800569c:	800b      	strh	r3, [r1, #0]
 800569e:	80e3      	strh	r3, [r4, #6]
 80056a0:	f000 80a6 	beq.w	80057f0 <find_volume+0x324>
 80056a4:	6913      	ldr	r3, [r2, #16]
 80056a6:	2500      	movs	r5, #0
 80056a8:	429c      	cmp	r4, r3
 80056aa:	d144      	bne.n	8005736 <find_volume+0x26a>
 80056ac:	6115      	str	r5, [r2, #16]
 80056ae:	e042      	b.n	8005736 <find_volume+0x26a>
 80056b0:	f894 11f6 	ldrb.w	r1, [r4, #502]	; 0x1f6
 80056b4:	2900      	cmp	r1, #0
 80056b6:	d051      	beq.n	800575c <find_volume+0x290>
 80056b8:	f8b4 31fc 	ldrh.w	r3, [r4, #508]	; 0x1fc
 80056bc:	f894 11fb 	ldrb.w	r1, [r4, #507]	; 0x1fb
 80056c0:	f894 81fa 	ldrb.w	r8, [r4, #506]	; 0x1fa
 80056c4:	ea41 2103 	orr.w	r1, r1, r3, lsl #8
 80056c8:	ea48 2801 	orr.w	r8, r8, r1, lsl #8
 80056cc:	f894 5206 	ldrb.w	r5, [r4, #518]	; 0x206
 80056d0:	b14d      	cbz	r5, 80056e6 <find_volume+0x21a>
 80056d2:	f8b4 220c 	ldrh.w	r2, [r4, #524]	; 0x20c
 80056d6:	f894 320b 	ldrb.w	r3, [r4, #523]	; 0x20b
 80056da:	f894 520a 	ldrb.w	r5, [r4, #522]	; 0x20a
 80056de:	ea43 2302 	orr.w	r3, r3, r2, lsl #8
 80056e2:	ea45 2503 	orr.w	r5, r5, r3, lsl #8
 80056e6:	f894 7216 	ldrb.w	r7, [r4, #534]	; 0x216
 80056ea:	b14f      	cbz	r7, 8005700 <find_volume+0x234>
 80056ec:	f8b4 221c 	ldrh.w	r2, [r4, #540]	; 0x21c
 80056f0:	f894 321b 	ldrb.w	r3, [r4, #539]	; 0x21b
 80056f4:	f894 721a 	ldrb.w	r7, [r4, #538]	; 0x21a
 80056f8:	ea43 2302 	orr.w	r3, r3, r2, lsl #8
 80056fc:	ea47 2703 	orr.w	r7, r7, r3, lsl #8
 8005700:	f894 6226 	ldrb.w	r6, [r4, #550]	; 0x226
 8005704:	b14e      	cbz	r6, 800571a <find_volume+0x24e>
 8005706:	f8b4 222c 	ldrh.w	r2, [r4, #556]	; 0x22c
 800570a:	f894 322b 	ldrb.w	r3, [r4, #555]	; 0x22b
 800570e:	f894 622a 	ldrb.w	r6, [r4, #554]	; 0x22a
 8005712:	ea43 2302 	orr.w	r3, r3, r2, lsl #8
 8005716:	ea46 2603 	orr.w	r6, r6, r3, lsl #8
 800571a:	f1b8 0f00 	cmp.w	r8, #0
 800571e:	d122      	bne.n	8005766 <find_volume+0x29a>
 8005720:	b135      	cbz	r5, 8005730 <find_volume+0x264>
 8005722:	4629      	mov	r1, r5
 8005724:	4620      	mov	r0, r4
 8005726:	f7ff fe7b 	bl	8005420 <check_fs>
 800572a:	2801      	cmp	r0, #1
 800572c:	f67f af20 	bls.w	8005570 <find_volume+0xa4>
 8005730:	bb0f      	cbnz	r7, 8005776 <find_volume+0x2aa>
 8005732:	b93e      	cbnz	r6, 8005744 <find_volume+0x278>
 8005734:	250d      	movs	r5, #13
 8005736:	4628      	mov	r0, r5
 8005738:	e8bd 81f0 	ldmia.w	sp!, {r4, r5, r6, r7, r8, pc}
 800573c:	2503      	movs	r5, #3
 800573e:	4628      	mov	r0, r5
 8005740:	e8bd 81f0 	ldmia.w	sp!, {r4, r5, r6, r7, r8, pc}
 8005744:	4631      	mov	r1, r6
 8005746:	4620      	mov	r0, r4
 8005748:	f7ff fe6a 	bl	8005420 <check_fs>
 800574c:	2801      	cmp	r0, #1
 800574e:	d95a      	bls.n	8005806 <find_volume+0x33a>
 8005750:	2804      	cmp	r0, #4
 8005752:	d1ef      	bne.n	8005734 <find_volume+0x268>
 8005754:	2501      	movs	r5, #1
 8005756:	e7ee      	b.n	8005736 <find_volume+0x26a>
 8005758:	250c      	movs	r5, #12
 800575a:	e7ec      	b.n	8005736 <find_volume+0x26a>
 800575c:	4688      	mov	r8, r1
 800575e:	e7b5      	b.n	80056cc <find_volume+0x200>
 8005760:	3501      	adds	r5, #1
 8005762:	6005      	str	r5, [r0, #0]
 8005764:	e6d2      	b.n	800550c <find_volume+0x40>
 8005766:	4641      	mov	r1, r8
 8005768:	4620      	mov	r0, r4
 800576a:	f7ff fe59 	bl	8005420 <check_fs>
 800576e:	2801      	cmp	r0, #1
 8005770:	d8d6      	bhi.n	8005720 <find_volume+0x254>
 8005772:	4645      	mov	r5, r8
 8005774:	e6fc      	b.n	8005570 <find_volume+0xa4>
 8005776:	4639      	mov	r1, r7
 8005778:	4620      	mov	r0, r4
 800577a:	f7ff fe51 	bl	8005420 <check_fs>
 800577e:	2801      	cmp	r0, #1
 8005780:	d8d7      	bhi.n	8005732 <find_volume+0x266>
 8005782:	463d      	mov	r5, r7
 8005784:	e6f4      	b.n	8005570 <find_volume+0xa4>
 8005786:	f894 c05f 	ldrb.w	ip, [r4, #95]	; 0x5f
 800578a:	eb0e 0205 	add.w	r2, lr, r5
 800578e:	f894 705e 	ldrb.w	r7, [r4, #94]	; 0x5e
 8005792:	f108 0002 	add.w	r0, r8, #2
 8005796:	62e2      	str	r2, [r4, #44]	; 0x2c
 8005798:	4429      	add	r1, r5
 800579a:	ea47 270c 	orr.w	r7, r7, ip, lsl #8
 800579e:	61a0      	str	r0, [r4, #24]
 80057a0:	6261      	str	r1, [r4, #36]	; 0x24
 80057a2:	ea46 0207 	orr.w	r2, r6, r7
 80057a6:	6225      	str	r5, [r4, #32]
 80057a8:	b212      	sxth	r2, r2
 80057aa:	2a00      	cmp	r2, #0
 80057ac:	d1c2      	bne.n	8005734 <find_volume+0x268>
 80057ae:	0082      	lsls	r2, r0, #2
 80057b0:	f8b4 6062 	ldrh.w	r6, [r4, #98]	; 0x62
 80057b4:	f894 0061 	ldrb.w	r0, [r4, #97]	; 0x61
 80057b8:	f894 1060 	ldrb.w	r1, [r4, #96]	; 0x60
 80057bc:	f202 12ff 	addw	r2, r2, #511	; 0x1ff
 80057c0:	ea40 2006 	orr.w	r0, r0, r6, lsl #8
 80057c4:	ebb3 2f52 	cmp.w	r3, r2, lsr #9
 80057c8:	ea41 2100 	orr.w	r1, r1, r0, lsl #8
 80057cc:	62a1      	str	r1, [r4, #40]	; 0x28
 80057ce:	d3b1      	bcc.n	8005734 <find_volume+0x268>
 80057d0:	f894 0065 	ldrb.w	r0, [r4, #101]	; 0x65
 80057d4:	f04f 32ff 	mov.w	r2, #4294967295
 80057d8:	f894 3064 	ldrb.w	r3, [r4, #100]	; 0x64
 80057dc:	2180      	movs	r1, #128	; 0x80
 80057de:	6162      	str	r2, [r4, #20]
 80057e0:	ea43 2300 	orr.w	r3, r3, r0, lsl #8
 80057e4:	6122      	str	r2, [r4, #16]
 80057e6:	7121      	strb	r1, [r4, #4]
 80057e8:	2b01      	cmp	r3, #1
 80057ea:	d017      	beq.n	800581c <find_volume+0x350>
 80057ec:	2003      	movs	r0, #3
 80057ee:	e74b      	b.n	8005688 <find_volume+0x1bc>
 80057f0:	2300      	movs	r3, #0
 80057f2:	6013      	str	r3, [r2, #0]
 80057f4:	e756      	b.n	80056a4 <find_volume+0x1d8>
 80057f6:	f1bc 0f00 	cmp.w	ip, #0
 80057fa:	d09b      	beq.n	8005734 <find_volume+0x268>
 80057fc:	4401      	add	r1, r0
 80057fe:	0052      	lsls	r2, r2, #1
 8005800:	2002      	movs	r0, #2
 8005802:	62a1      	str	r1, [r4, #40]	; 0x28
 8005804:	e735      	b.n	8005672 <find_volume+0x1a6>
 8005806:	4635      	mov	r5, r6
 8005808:	e6b2      	b.n	8005570 <find_volume+0xa4>
 800580a:	bf00      	nop
 800580c:	200000b0 	.word	0x200000b0
 8005810:	200000d4 	.word	0x200000d4
 8005814:	200000b4 	.word	0x200000b4
 8005818:	200000d8 	.word	0x200000d8
 800581c:	1c69      	adds	r1, r5, #1
 800581e:	6b23      	ldr	r3, [r4, #48]	; 0x30
 8005820:	4299      	cmp	r1, r3
 8005822:	d004      	beq.n	800582e <find_volume+0x362>
 8005824:	4620      	mov	r0, r4
 8005826:	f7ff f8b9 	bl	800499c <move_window.part.0>
 800582a:	2800      	cmp	r0, #0
 800582c:	d1de      	bne.n	80057ec <find_volume+0x320>
 800582e:	f894 1233 	ldrb.w	r1, [r4, #563]	; 0x233
 8005832:	f64a 2255 	movw	r2, #43605	; 0xaa55
 8005836:	f894 3232 	ldrb.w	r3, [r4, #562]	; 0x232
 800583a:	2000      	movs	r0, #0
 800583c:	ea43 2301 	orr.w	r3, r3, r1, lsl #8
 8005840:	7120      	strb	r0, [r4, #4]
 8005842:	4293      	cmp	r3, r2
 8005844:	d1d2      	bne.n	80057ec <find_volume+0x320>
 8005846:	8ee1      	ldrh	r1, [r4, #54]	; 0x36
 8005848:	f894 2035 	ldrb.w	r2, [r4, #53]	; 0x35
 800584c:	f894 3034 	ldrb.w	r3, [r4, #52]	; 0x34
 8005850:	ea42 2201 	orr.w	r2, r2, r1, lsl #8
 8005854:	4914      	ldr	r1, [pc, #80]	; (80058a8 <find_volume+0x3dc>)
 8005856:	ea43 2302 	orr.w	r3, r3, r2, lsl #8
 800585a:	428b      	cmp	r3, r1
 800585c:	d1c6      	bne.n	80057ec <find_volume+0x320>
 800585e:	f8b4 121a 	ldrh.w	r1, [r4, #538]	; 0x21a
 8005862:	f894 2219 	ldrb.w	r2, [r4, #537]	; 0x219
 8005866:	f894 3218 	ldrb.w	r3, [r4, #536]	; 0x218
 800586a:	ea42 2201 	orr.w	r2, r2, r1, lsl #8
 800586e:	490f      	ldr	r1, [pc, #60]	; (80058ac <find_volume+0x3e0>)
 8005870:	ea43 2302 	orr.w	r3, r3, r2, lsl #8
 8005874:	428b      	cmp	r3, r1
 8005876:	d1b9      	bne.n	80057ec <find_volume+0x320>
 8005878:	f894 221d 	ldrb.w	r2, [r4, #541]	; 0x21d
 800587c:	2003      	movs	r0, #3
 800587e:	f894 3221 	ldrb.w	r3, [r4, #545]	; 0x221
 8005882:	f8b4 521e 	ldrh.w	r5, [r4, #542]	; 0x21e
 8005886:	f8b4 1222 	ldrh.w	r1, [r4, #546]	; 0x222
 800588a:	ea42 2505 	orr.w	r5, r2, r5, lsl #8
 800588e:	f894 221c 	ldrb.w	r2, [r4, #540]	; 0x21c
 8005892:	ea43 2101 	orr.w	r1, r3, r1, lsl #8
 8005896:	f894 3220 	ldrb.w	r3, [r4, #544]	; 0x220
 800589a:	ea42 2205 	orr.w	r2, r2, r5, lsl #8
 800589e:	ea43 2301 	orr.w	r3, r3, r1, lsl #8
 80058a2:	e9c4 3204 	strd	r3, r2, [r4, #16]
 80058a6:	e6ef      	b.n	8005688 <find_volume+0x1bc>
 80058a8:	41615252 	.word	0x41615252
 80058ac:	61417272 	.word	0x61417272

080058b0 <dir_sdi>:
 80058b0:	f5b1 1f00 	cmp.w	r1, #2097152	; 0x200000
 80058b4:	d274      	bcs.n	80059a0 <dir_sdi+0xf0>
 80058b6:	06ca      	lsls	r2, r1, #27
 80058b8:	e92d 4ff8 	stmdb	sp!, {r3, r4, r5, r6, r7, r8, r9, sl, fp, lr}
 80058bc:	460c      	mov	r4, r1
 80058be:	d151      	bne.n	8005964 <dir_sdi+0xb4>
 80058c0:	6885      	ldr	r5, [r0, #8]
 80058c2:	4607      	mov	r7, r0
 80058c4:	f8d0 8000 	ldr.w	r8, [r0]
 80058c8:	6141      	str	r1, [r0, #20]
 80058ca:	2d00      	cmp	r5, #0
 80058cc:	d04d      	beq.n	800596a <dir_sdi+0xba>
 80058ce:	f8b8 300a 	ldrh.w	r3, [r8, #10]
 80058d2:	ebb4 2f43 	cmp.w	r4, r3, lsl #9
 80058d6:	ea4f 2943 	mov.w	r9, r3, lsl #9
 80058da:	f0c0 8099 	bcc.w	8005a10 <dir_sdi+0x160>
 80058de:	2d01      	cmp	r5, #1
 80058e0:	d940      	bls.n	8005964 <dir_sdi+0xb4>
 80058e2:	4646      	mov	r6, r8
 80058e4:	e03b      	b.n	800595e <dir_sdi+0xae>
 80058e6:	7833      	ldrb	r3, [r6, #0]
 80058e8:	2b02      	cmp	r3, #2
 80058ea:	d07a      	beq.n	80059e2 <dir_sdi+0x132>
 80058ec:	2b03      	cmp	r3, #3
 80058ee:	d05f      	beq.n	80059b0 <dir_sdi+0x100>
 80058f0:	2b01      	cmp	r3, #1
 80058f2:	d137      	bne.n	8005964 <dir_sdi+0xb4>
 80058f4:	eb05 0a55 	add.w	sl, r5, r5, lsr #1
 80058f8:	6a73      	ldr	r3, [r6, #36]	; 0x24
 80058fa:	6b32      	ldr	r2, [r6, #48]	; 0x30
 80058fc:	eb03 215a 	add.w	r1, r3, sl, lsr #9
 8005900:	4291      	cmp	r1, r2
 8005902:	d006      	beq.n	8005912 <dir_sdi+0x62>
 8005904:	4630      	mov	r0, r6
 8005906:	f7ff f849 	bl	800499c <move_window.part.0>
 800590a:	2800      	cmp	r0, #0
 800590c:	d17d      	bne.n	8005a0a <dir_sdi+0x15a>
 800590e:	6a73      	ldr	r3, [r6, #36]	; 0x24
 8005910:	6b32      	ldr	r2, [r6, #48]	; 0x30
 8005912:	f3ca 0008 	ubfx	r0, sl, #0, #9
 8005916:	f10a 0a01 	add.w	sl, sl, #1
 800591a:	eb03 215a 	add.w	r1, r3, sl, lsr #9
 800591e:	4430      	add	r0, r6
 8005920:	4291      	cmp	r1, r2
 8005922:	f890 b034 	ldrb.w	fp, [r0, #52]	; 0x34
 8005926:	d004      	beq.n	8005932 <dir_sdi+0x82>
 8005928:	4630      	mov	r0, r6
 800592a:	f7ff f837 	bl	800499c <move_window.part.0>
 800592e:	2800      	cmp	r0, #0
 8005930:	d16b      	bne.n	8005a0a <dir_sdi+0x15a>
 8005932:	f3ca 0a08 	ubfx	sl, sl, #0, #9
 8005936:	4456      	add	r6, sl
 8005938:	f896 3034 	ldrb.w	r3, [r6, #52]	; 0x34
 800593c:	ea4b 2b03 	orr.w	fp, fp, r3, lsl #8
 8005940:	07eb      	lsls	r3, r5, #31
 8005942:	d573      	bpl.n	8005a2c <dir_sdi+0x17c>
 8005944:	ea4f 151b 	mov.w	r5, fp, lsr #4
 8005948:	2d01      	cmp	r5, #1
 800594a:	d90b      	bls.n	8005964 <dir_sdi+0xb4>
 800594c:	f8d8 3018 	ldr.w	r3, [r8, #24]
 8005950:	42ab      	cmp	r3, r5
 8005952:	d907      	bls.n	8005964 <dir_sdi+0xb4>
 8005954:	eba4 0409 	sub.w	r4, r4, r9
 8005958:	45a1      	cmp	r9, r4
 800595a:	d85b      	bhi.n	8005a14 <dir_sdi+0x164>
 800595c:	683e      	ldr	r6, [r7, #0]
 800595e:	69b3      	ldr	r3, [r6, #24]
 8005960:	42ab      	cmp	r3, r5
 8005962:	d8c0      	bhi.n	80058e6 <dir_sdi+0x36>
 8005964:	2002      	movs	r0, #2
 8005966:	e8bd 8ff8 	ldmia.w	sp!, {r3, r4, r5, r6, r7, r8, r9, sl, fp, pc}
 800596a:	f898 3000 	ldrb.w	r3, [r8]
 800596e:	2b02      	cmp	r3, #2
 8005970:	d818      	bhi.n	80059a4 <dir_sdi+0xf4>
 8005972:	f8b8 3008 	ldrh.w	r3, [r8, #8]
 8005976:	ebb3 1f54 	cmp.w	r3, r4, lsr #5
 800597a:	d9f3      	bls.n	8005964 <dir_sdi+0xb4>
 800597c:	f8d8 1028 	ldr.w	r1, [r8, #40]	; 0x28
 8005980:	61f9      	str	r1, [r7, #28]
 8005982:	61bd      	str	r5, [r7, #24]
 8005984:	2900      	cmp	r1, #0
 8005986:	d0ed      	beq.n	8005964 <dir_sdi+0xb4>
 8005988:	f108 0834 	add.w	r8, r8, #52	; 0x34
 800598c:	f3c4 0308 	ubfx	r3, r4, #0, #9
 8005990:	eb01 2154 	add.w	r1, r1, r4, lsr #9
 8005994:	2000      	movs	r0, #0
 8005996:	4443      	add	r3, r8
 8005998:	e9c7 1307 	strd	r1, r3, [r7, #28]
 800599c:	e8bd 8ff8 	ldmia.w	sp!, {r3, r4, r5, r6, r7, r8, r9, sl, fp, pc}
 80059a0:	2002      	movs	r0, #2
 80059a2:	4770      	bx	lr
 80059a4:	f8d8 3028 	ldr.w	r3, [r8, #40]	; 0x28
 80059a8:	2b00      	cmp	r3, #0
 80059aa:	d0e2      	beq.n	8005972 <dir_sdi+0xc2>
 80059ac:	461d      	mov	r5, r3
 80059ae:	e78e      	b.n	80058ce <dir_sdi+0x1e>
 80059b0:	6a71      	ldr	r1, [r6, #36]	; 0x24
 80059b2:	6b33      	ldr	r3, [r6, #48]	; 0x30
 80059b4:	eb01 11d5 	add.w	r1, r1, r5, lsr #7
 80059b8:	4299      	cmp	r1, r3
 80059ba:	d003      	beq.n	80059c4 <dir_sdi+0x114>
 80059bc:	4630      	mov	r0, r6
 80059be:	f7fe ffed 	bl	800499c <move_window.part.0>
 80059c2:	bb10      	cbnz	r0, 8005a0a <dir_sdi+0x15a>
 80059c4:	00ad      	lsls	r5, r5, #2
 80059c6:	3634      	adds	r6, #52	; 0x34
 80059c8:	f405 75fe 	and.w	r5, r5, #508	; 0x1fc
 80059cc:	1972      	adds	r2, r6, r5
 80059ce:	5d75      	ldrb	r5, [r6, r5]
 80059d0:	8851      	ldrh	r1, [r2, #2]
 80059d2:	7853      	ldrb	r3, [r2, #1]
 80059d4:	ea43 2301 	orr.w	r3, r3, r1, lsl #8
 80059d8:	ea45 2503 	orr.w	r5, r5, r3, lsl #8
 80059dc:	f025 4570 	bic.w	r5, r5, #4026531840	; 0xf0000000
 80059e0:	e7b2      	b.n	8005948 <dir_sdi+0x98>
 80059e2:	6a71      	ldr	r1, [r6, #36]	; 0x24
 80059e4:	6b33      	ldr	r3, [r6, #48]	; 0x30
 80059e6:	eb01 2115 	add.w	r1, r1, r5, lsr #8
 80059ea:	4299      	cmp	r1, r3
 80059ec:	d003      	beq.n	80059f6 <dir_sdi+0x146>
 80059ee:	4630      	mov	r0, r6
 80059f0:	f7fe ffd4 	bl	800499c <move_window.part.0>
 80059f4:	b948      	cbnz	r0, 8005a0a <dir_sdi+0x15a>
 80059f6:	006d      	lsls	r5, r5, #1
 80059f8:	3634      	adds	r6, #52	; 0x34
 80059fa:	f405 75ff 	and.w	r5, r5, #510	; 0x1fe
 80059fe:	1973      	adds	r3, r6, r5
 8005a00:	5d75      	ldrb	r5, [r6, r5]
 8005a02:	785b      	ldrb	r3, [r3, #1]
 8005a04:	ea45 2503 	orr.w	r5, r5, r3, lsl #8
 8005a08:	e79e      	b.n	8005948 <dir_sdi+0x98>
 8005a0a:	2001      	movs	r0, #1
 8005a0c:	e8bd 8ff8 	ldmia.w	sp!, {r3, r4, r5, r6, r7, r8, r9, sl, fp, pc}
 8005a10:	f8d8 3018 	ldr.w	r3, [r8, #24]
 8005a14:	3b02      	subs	r3, #2
 8005a16:	1eaa      	subs	r2, r5, #2
 8005a18:	429a      	cmp	r2, r3
 8005a1a:	d20a      	bcs.n	8005a32 <dir_sdi+0x182>
 8005a1c:	f8b8 100a 	ldrh.w	r1, [r8, #10]
 8005a20:	f8d8 302c 	ldr.w	r3, [r8, #44]	; 0x2c
 8005a24:	fb02 3101 	mla	r1, r2, r1, r3
 8005a28:	61f9      	str	r1, [r7, #28]
 8005a2a:	e7aa      	b.n	8005982 <dir_sdi+0xd2>
 8005a2c:	f3cb 050b 	ubfx	r5, fp, #0, #12
 8005a30:	e78a      	b.n	8005948 <dir_sdi+0x98>
 8005a32:	2300      	movs	r3, #0
 8005a34:	e9c7 5306 	strd	r5, r3, [r7, #24]
 8005a38:	e794      	b.n	8005964 <dir_sdi+0xb4>
 8005a3a:	bf00      	nop

08005a3c <dir_remove>:
 8005a3c:	6b01      	ldr	r1, [r0, #48]	; 0x30
 8005a3e:	1c4a      	adds	r2, r1, #1
 8005a40:	e92d 4ff0 	stmdb	sp!, {r4, r5, r6, r7, r8, r9, sl, fp, lr}
 8005a44:	4605      	mov	r5, r0
 8005a46:	b083      	sub	sp, #12
 8005a48:	6806      	ldr	r6, [r0, #0]
 8005a4a:	f8d0 9014 	ldr.w	r9, [r0, #20]
 8005a4e:	f040 8085 	bne.w	8005b5c <dir_remove+0x120>
 8005a52:	69ef      	ldr	r7, [r5, #28]
 8005a54:	f04f 0b01 	mov.w	fp, #1
 8005a58:	f106 0834 	add.w	r8, r6, #52	; 0x34
 8005a5c:	f04f 0ae5 	mov.w	sl, #229	; 0xe5
 8005a60:	6b32      	ldr	r2, [r6, #48]	; 0x30
 8005a62:	42ba      	cmp	r2, r7
 8005a64:	d011      	beq.n	8005a8a <dir_remove+0x4e>
 8005a66:	78f3      	ldrb	r3, [r6, #3]
 8005a68:	2b00      	cmp	r3, #0
 8005a6a:	d131      	bne.n	8005ad0 <dir_remove+0x94>
 8005a6c:	2301      	movs	r3, #1
 8005a6e:	463a      	mov	r2, r7
 8005a70:	4641      	mov	r1, r8
 8005a72:	7870      	ldrb	r0, [r6, #1]
 8005a74:	f7fe fee2 	bl	800483c <disk_read>
 8005a78:	b130      	cbz	r0, 8005a88 <dir_remove+0x4c>
 8005a7a:	f04f 33ff 	mov.w	r3, #4294967295
 8005a7e:	2001      	movs	r0, #1
 8005a80:	6333      	str	r3, [r6, #48]	; 0x30
 8005a82:	b003      	add	sp, #12
 8005a84:	e8bd 8ff0 	ldmia.w	sp!, {r4, r5, r6, r7, r8, r9, sl, fp, pc}
 8005a88:	6337      	str	r7, [r6, #48]	; 0x30
 8005a8a:	6a2b      	ldr	r3, [r5, #32]
 8005a8c:	f883 a000 	strb.w	sl, [r3]
 8005a90:	f886 b003 	strb.w	fp, [r6, #3]
 8005a94:	696c      	ldr	r4, [r5, #20]
 8005a96:	454c      	cmp	r4, r9
 8005a98:	d266      	bcs.n	8005b68 <dir_remove+0x12c>
 8005a9a:	3420      	adds	r4, #32
 8005a9c:	69ef      	ldr	r7, [r5, #28]
 8005a9e:	f5b4 1f00 	cmp.w	r4, #2097152	; 0x200000
 8005aa2:	d211      	bcs.n	8005ac8 <dir_remove+0x8c>
 8005aa4:	b187      	cbz	r7, 8005ac8 <dir_remove+0x8c>
 8005aa6:	f3c4 0208 	ubfx	r2, r4, #0, #9
 8005aaa:	682b      	ldr	r3, [r5, #0]
 8005aac:	b93a      	cbnz	r2, 8005abe <dir_remove+0x82>
 8005aae:	3701      	adds	r7, #1
 8005ab0:	69a9      	ldr	r1, [r5, #24]
 8005ab2:	61ef      	str	r7, [r5, #28]
 8005ab4:	b9b1      	cbnz	r1, 8005ae4 <dir_remove+0xa8>
 8005ab6:	8919      	ldrh	r1, [r3, #8]
 8005ab8:	ebb1 1f54 	cmp.w	r1, r4, lsr #5
 8005abc:	d94a      	bls.n	8005b54 <dir_remove+0x118>
 8005abe:	3334      	adds	r3, #52	; 0x34
 8005ac0:	616c      	str	r4, [r5, #20]
 8005ac2:	4413      	add	r3, r2
 8005ac4:	622b      	str	r3, [r5, #32]
 8005ac6:	e7cb      	b.n	8005a60 <dir_remove+0x24>
 8005ac8:	2002      	movs	r0, #2
 8005aca:	b003      	add	sp, #12
 8005acc:	e8bd 8ff0 	ldmia.w	sp!, {r4, r5, r6, r7, r8, r9, sl, fp, pc}
 8005ad0:	2301      	movs	r3, #1
 8005ad2:	4641      	mov	r1, r8
 8005ad4:	7870      	ldrb	r0, [r6, #1]
 8005ad6:	9200      	str	r2, [sp, #0]
 8005ad8:	f7fe febe 	bl	8004858 <disk_write>
 8005adc:	9a00      	ldr	r2, [sp, #0]
 8005ade:	b1f8      	cbz	r0, 8005b20 <dir_remove+0xe4>
 8005ae0:	2001      	movs	r0, #1
 8005ae2:	e7ce      	b.n	8005a82 <dir_remove+0x46>
 8005ae4:	8958      	ldrh	r0, [r3, #10]
 8005ae6:	3801      	subs	r0, #1
 8005ae8:	ea10 2054 	ands.w	r0, r0, r4, lsr #9
 8005aec:	d1e7      	bne.n	8005abe <dir_remove+0x82>
 8005aee:	4618      	mov	r0, r3
 8005af0:	9201      	str	r2, [sp, #4]
 8005af2:	9300      	str	r3, [sp, #0]
 8005af4:	f7ff f82a 	bl	8004b4c <get_fat.isra.0>
 8005af8:	2801      	cmp	r0, #1
 8005afa:	d9e5      	bls.n	8005ac8 <dir_remove+0x8c>
 8005afc:	1c43      	adds	r3, r0, #1
 8005afe:	d0ef      	beq.n	8005ae0 <dir_remove+0xa4>
 8005b00:	9b00      	ldr	r3, [sp, #0]
 8005b02:	6999      	ldr	r1, [r3, #24]
 8005b04:	4288      	cmp	r0, r1
 8005b06:	d225      	bcs.n	8005b54 <dir_remove+0x118>
 8005b08:	3902      	subs	r1, #2
 8005b0a:	1e87      	subs	r7, r0, #2
 8005b0c:	9a01      	ldr	r2, [sp, #4]
 8005b0e:	428f      	cmp	r7, r1
 8005b10:	61a8      	str	r0, [r5, #24]
 8005b12:	d22b      	bcs.n	8005b6c <dir_remove+0x130>
 8005b14:	8958      	ldrh	r0, [r3, #10]
 8005b16:	6ad9      	ldr	r1, [r3, #44]	; 0x2c
 8005b18:	fb07 1700 	mla	r7, r7, r0, r1
 8005b1c:	61ef      	str	r7, [r5, #28]
 8005b1e:	e7ce      	b.n	8005abe <dir_remove+0x82>
 8005b20:	6a71      	ldr	r1, [r6, #36]	; 0x24
 8005b22:	69f3      	ldr	r3, [r6, #28]
 8005b24:	1a51      	subs	r1, r2, r1
 8005b26:	70f0      	strb	r0, [r6, #3]
 8005b28:	4299      	cmp	r1, r3
 8005b2a:	d29f      	bcs.n	8005a6c <dir_remove+0x30>
 8005b2c:	78b4      	ldrb	r4, [r6, #2]
 8005b2e:	2c01      	cmp	r4, #1
 8005b30:	d99c      	bls.n	8005a6c <dir_remove+0x30>
 8005b32:	9500      	str	r5, [sp, #0]
 8005b34:	4625      	mov	r5, r4
 8005b36:	4614      	mov	r4, r2
 8005b38:	e000      	b.n	8005b3c <dir_remove+0x100>
 8005b3a:	69f3      	ldr	r3, [r6, #28]
 8005b3c:	441c      	add	r4, r3
 8005b3e:	3d01      	subs	r5, #1
 8005b40:	2301      	movs	r3, #1
 8005b42:	4641      	mov	r1, r8
 8005b44:	4622      	mov	r2, r4
 8005b46:	7870      	ldrb	r0, [r6, #1]
 8005b48:	f7fe fe86 	bl	8004858 <disk_write>
 8005b4c:	2d01      	cmp	r5, #1
 8005b4e:	d1f4      	bne.n	8005b3a <dir_remove+0xfe>
 8005b50:	9d00      	ldr	r5, [sp, #0]
 8005b52:	e78b      	b.n	8005a6c <dir_remove+0x30>
 8005b54:	2300      	movs	r3, #0
 8005b56:	2002      	movs	r0, #2
 8005b58:	61eb      	str	r3, [r5, #28]
 8005b5a:	e792      	b.n	8005a82 <dir_remove+0x46>
 8005b5c:	f7ff fea8 	bl	80058b0 <dir_sdi>
 8005b60:	2800      	cmp	r0, #0
 8005b62:	f43f af76 	beq.w	8005a52 <dir_remove+0x16>
 8005b66:	e78c      	b.n	8005a82 <dir_remove+0x46>
 8005b68:	2000      	movs	r0, #0
 8005b6a:	e78a      	b.n	8005a82 <dir_remove+0x46>
 8005b6c:	2700      	movs	r7, #0
 8005b6e:	e7d5      	b.n	8005b1c <dir_remove+0xe0>

08005b70 <dir_find>:
 8005b70:	e92d 4ff0 	stmdb	sp!, {r4, r5, r6, r7, r8, r9, sl, fp, lr}
 8005b74:	2100      	movs	r1, #0
 8005b76:	b087      	sub	sp, #28
 8005b78:	4604      	mov	r4, r0
 8005b7a:	6806      	ldr	r6, [r0, #0]
 8005b7c:	f7ff fe98 	bl	80058b0 <dir_sdi>
 8005b80:	4681      	mov	r9, r0
 8005b82:	b9e0      	cbnz	r0, 8005bbe <dir_find+0x4e>
 8005b84:	f04f 08ff 	mov.w	r8, #255	; 0xff
 8005b88:	f04f 33ff 	mov.w	r3, #4294967295
 8005b8c:	69e7      	ldr	r7, [r4, #28]
 8005b8e:	f64f 7bff 	movw	fp, #65535	; 0xffff
 8005b92:	46c1      	mov	r9, r8
 8005b94:	6323      	str	r3, [r4, #48]	; 0x30
 8005b96:	6b35      	ldr	r5, [r6, #48]	; 0x30
 8005b98:	42bd      	cmp	r5, r7
 8005b9a:	d015      	beq.n	8005bc8 <dir_find+0x58>
 8005b9c:	78f3      	ldrb	r3, [r6, #3]
 8005b9e:	f106 0134 	add.w	r1, r6, #52	; 0x34
 8005ba2:	2b00      	cmp	r3, #0
 8005ba4:	f040 8086 	bne.w	8005cb4 <dir_find+0x144>
 8005ba8:	2301      	movs	r3, #1
 8005baa:	463a      	mov	r2, r7
 8005bac:	7870      	ldrb	r0, [r6, #1]
 8005bae:	f7fe fe45 	bl	800483c <disk_read>
 8005bb2:	b140      	cbz	r0, 8005bc6 <dir_find+0x56>
 8005bb4:	f04f 33ff 	mov.w	r3, #4294967295
 8005bb8:	f04f 0901 	mov.w	r9, #1
 8005bbc:	6333      	str	r3, [r6, #48]	; 0x30
 8005bbe:	4648      	mov	r0, r9
 8005bc0:	b007      	add	sp, #28
 8005bc2:	e8bd 8ff0 	ldmia.w	sp!, {r4, r5, r6, r7, r8, r9, sl, fp, pc}
 8005bc6:	6337      	str	r7, [r6, #48]	; 0x30
 8005bc8:	6a25      	ldr	r5, [r4, #32]
 8005bca:	782f      	ldrb	r7, [r5, #0]
 8005bcc:	b34f      	cbz	r7, 8005c22 <dir_find+0xb2>
 8005bce:	7aea      	ldrb	r2, [r5, #11]
 8005bd0:	2fe5      	cmp	r7, #229	; 0xe5
 8005bd2:	f002 033f 	and.w	r3, r2, #63	; 0x3f
 8005bd6:	71a3      	strb	r3, [r4, #6]
 8005bd8:	d004      	beq.n	8005be4 <dir_find+0x74>
 8005bda:	0712      	lsls	r2, r2, #28
 8005bdc:	d527      	bpl.n	8005c2e <dir_find+0xbe>
 8005bde:	2b0f      	cmp	r3, #15
 8005be0:	f000 8095 	beq.w	8005d0e <dir_find+0x19e>
 8005be4:	f04f 33ff 	mov.w	r3, #4294967295
 8005be8:	f04f 09ff 	mov.w	r9, #255	; 0xff
 8005bec:	6323      	str	r3, [r4, #48]	; 0x30
 8005bee:	6965      	ldr	r5, [r4, #20]
 8005bf0:	69e7      	ldr	r7, [r4, #28]
 8005bf2:	3520      	adds	r5, #32
 8005bf4:	f5b5 1f00 	cmp.w	r5, #2097152	; 0x200000
 8005bf8:	d213      	bcs.n	8005c22 <dir_find+0xb2>
 8005bfa:	b197      	cbz	r7, 8005c22 <dir_find+0xb2>
 8005bfc:	f3c5 0208 	ubfx	r2, r5, #0, #9
 8005c00:	6823      	ldr	r3, [r4, #0]
 8005c02:	b94a      	cbnz	r2, 8005c18 <dir_find+0xa8>
 8005c04:	3701      	adds	r7, #1
 8005c06:	69a1      	ldr	r1, [r4, #24]
 8005c08:	61e7      	str	r7, [r4, #28]
 8005c0a:	2900      	cmp	r1, #0
 8005c0c:	d15e      	bne.n	8005ccc <dir_find+0x15c>
 8005c0e:	8919      	ldrh	r1, [r3, #8]
 8005c10:	ebb1 1f55 	cmp.w	r1, r5, lsr #5
 8005c14:	f240 813f 	bls.w	8005e96 <dir_find+0x326>
 8005c18:	3334      	adds	r3, #52	; 0x34
 8005c1a:	6165      	str	r5, [r4, #20]
 8005c1c:	4413      	add	r3, r2
 8005c1e:	6223      	str	r3, [r4, #32]
 8005c20:	e7b9      	b.n	8005b96 <dir_find+0x26>
 8005c22:	f04f 0904 	mov.w	r9, #4
 8005c26:	4648      	mov	r0, r9
 8005c28:	b007      	add	sp, #28
 8005c2a:	e8bd 8ff0 	ldmia.w	sp!, {r4, r5, r6, r7, r8, r9, sl, fp, pc}
 8005c2e:	2b0f      	cmp	r3, #15
 8005c30:	d06d      	beq.n	8005d0e <dir_find+0x19e>
 8005c32:	f1b9 0f00 	cmp.w	r9, #0
 8005c36:	f000 80e4 	beq.w	8005e02 <dir_find+0x292>
 8005c3a:	f894 902f 	ldrb.w	r9, [r4, #47]	; 0x2f
 8005c3e:	f019 0901 	ands.w	r9, r9, #1
 8005c42:	d1cf      	bne.n	8005be4 <dir_find+0x74>
 8005c44:	782a      	ldrb	r2, [r5, #0]
 8005c46:	f894 3024 	ldrb.w	r3, [r4, #36]	; 0x24
 8005c4a:	429a      	cmp	r2, r3
 8005c4c:	d1ca      	bne.n	8005be4 <dir_find+0x74>
 8005c4e:	f894 2025 	ldrb.w	r2, [r4, #37]	; 0x25
 8005c52:	786b      	ldrb	r3, [r5, #1]
 8005c54:	429a      	cmp	r2, r3
 8005c56:	d1c5      	bne.n	8005be4 <dir_find+0x74>
 8005c58:	f894 2026 	ldrb.w	r2, [r4, #38]	; 0x26
 8005c5c:	78ab      	ldrb	r3, [r5, #2]
 8005c5e:	429a      	cmp	r2, r3
 8005c60:	d1c0      	bne.n	8005be4 <dir_find+0x74>
 8005c62:	78ea      	ldrb	r2, [r5, #3]
 8005c64:	f894 3027 	ldrb.w	r3, [r4, #39]	; 0x27
 8005c68:	429a      	cmp	r2, r3
 8005c6a:	d1bb      	bne.n	8005be4 <dir_find+0x74>
 8005c6c:	792a      	ldrb	r2, [r5, #4]
 8005c6e:	f894 3028 	ldrb.w	r3, [r4, #40]	; 0x28
 8005c72:	429a      	cmp	r2, r3
 8005c74:	d1b6      	bne.n	8005be4 <dir_find+0x74>
 8005c76:	796a      	ldrb	r2, [r5, #5]
 8005c78:	f894 3029 	ldrb.w	r3, [r4, #41]	; 0x29
 8005c7c:	429a      	cmp	r2, r3
 8005c7e:	d1b1      	bne.n	8005be4 <dir_find+0x74>
 8005c80:	79aa      	ldrb	r2, [r5, #6]
 8005c82:	f894 302a 	ldrb.w	r3, [r4, #42]	; 0x2a
 8005c86:	429a      	cmp	r2, r3
 8005c88:	d1ac      	bne.n	8005be4 <dir_find+0x74>
 8005c8a:	79ea      	ldrb	r2, [r5, #7]
 8005c8c:	f894 302b 	ldrb.w	r3, [r4, #43]	; 0x2b
 8005c90:	429a      	cmp	r2, r3
 8005c92:	d1a7      	bne.n	8005be4 <dir_find+0x74>
 8005c94:	7a2a      	ldrb	r2, [r5, #8]
 8005c96:	f894 302c 	ldrb.w	r3, [r4, #44]	; 0x2c
 8005c9a:	429a      	cmp	r2, r3
 8005c9c:	d1a2      	bne.n	8005be4 <dir_find+0x74>
 8005c9e:	7a6a      	ldrb	r2, [r5, #9]
 8005ca0:	f894 302d 	ldrb.w	r3, [r4, #45]	; 0x2d
 8005ca4:	429a      	cmp	r2, r3
 8005ca6:	d19d      	bne.n	8005be4 <dir_find+0x74>
 8005ca8:	7aaa      	ldrb	r2, [r5, #10]
 8005caa:	f894 302e 	ldrb.w	r3, [r4, #46]	; 0x2e
 8005cae:	429a      	cmp	r2, r3
 8005cb0:	d198      	bne.n	8005be4 <dir_find+0x74>
 8005cb2:	e784      	b.n	8005bbe <dir_find+0x4e>
 8005cb4:	2301      	movs	r3, #1
 8005cb6:	462a      	mov	r2, r5
 8005cb8:	7870      	ldrb	r0, [r6, #1]
 8005cba:	9101      	str	r1, [sp, #4]
 8005cbc:	f7fe fdcc 	bl	8004858 <disk_write>
 8005cc0:	9901      	ldr	r1, [sp, #4]
 8005cc2:	2800      	cmp	r0, #0
 8005cc4:	d07d      	beq.n	8005dc2 <dir_find+0x252>
 8005cc6:	f04f 0901 	mov.w	r9, #1
 8005cca:	e778      	b.n	8005bbe <dir_find+0x4e>
 8005ccc:	8958      	ldrh	r0, [r3, #10]
 8005cce:	3801      	subs	r0, #1
 8005cd0:	ea10 2055 	ands.w	r0, r0, r5, lsr #9
 8005cd4:	d1a0      	bne.n	8005c18 <dir_find+0xa8>
 8005cd6:	4618      	mov	r0, r3
 8005cd8:	9202      	str	r2, [sp, #8]
 8005cda:	9301      	str	r3, [sp, #4]
 8005cdc:	f7fe ff36 	bl	8004b4c <get_fat.isra.0>
 8005ce0:	2801      	cmp	r0, #1
 8005ce2:	f240 80dd 	bls.w	8005ea0 <dir_find+0x330>
 8005ce6:	1c43      	adds	r3, r0, #1
 8005ce8:	d0ed      	beq.n	8005cc6 <dir_find+0x156>
 8005cea:	9b01      	ldr	r3, [sp, #4]
 8005cec:	6999      	ldr	r1, [r3, #24]
 8005cee:	4288      	cmp	r0, r1
 8005cf0:	f080 80d1 	bcs.w	8005e96 <dir_find+0x326>
 8005cf4:	3902      	subs	r1, #2
 8005cf6:	1e87      	subs	r7, r0, #2
 8005cf8:	9a02      	ldr	r2, [sp, #8]
 8005cfa:	428f      	cmp	r7, r1
 8005cfc:	61a0      	str	r0, [r4, #24]
 8005cfe:	f080 80d2 	bcs.w	8005ea6 <dir_find+0x336>
 8005d02:	8958      	ldrh	r0, [r3, #10]
 8005d04:	6ad9      	ldr	r1, [r3, #44]	; 0x2c
 8005d06:	fb07 1700 	mla	r7, r7, r0, r1
 8005d0a:	61e7      	str	r7, [r4, #28]
 8005d0c:	e784      	b.n	8005c18 <dir_find+0xa8>
 8005d0e:	f894 302f 	ldrb.w	r3, [r4, #47]	; 0x2f
 8005d12:	0658      	lsls	r0, r3, #25
 8005d14:	f53f af6b 	bmi.w	8005bee <dir_find+0x7e>
 8005d18:	0679      	lsls	r1, r7, #25
 8005d1a:	d54d      	bpl.n	8005db8 <dir_find+0x248>
 8005d1c:	6963      	ldr	r3, [r4, #20]
 8005d1e:	f007 07bf 	and.w	r7, r7, #191	; 0xbf
 8005d22:	f895 800d 	ldrb.w	r8, [r5, #13]
 8005d26:	6323      	str	r3, [r4, #48]	; 0x30
 8005d28:	7b6b      	ldrb	r3, [r5, #13]
 8005d2a:	4543      	cmp	r3, r8
 8005d2c:	d146      	bne.n	8005dbc <dir_find+0x24c>
 8005d2e:	7eea      	ldrb	r2, [r5, #27]
 8005d30:	7eab      	ldrb	r3, [r5, #26]
 8005d32:	ea53 2302 	orrs.w	r3, r3, r2, lsl #8
 8005d36:	d141      	bne.n	8005dbc <dir_find+0x24c>
 8005d38:	f895 a000 	ldrb.w	sl, [r5]
 8005d3c:	2101      	movs	r1, #1
 8005d3e:	4b65      	ldr	r3, [pc, #404]	; (8005ed4 <dir_find+0x364>)
 8005d40:	f00a 0a3f 	and.w	sl, sl, #63	; 0x3f
 8005d44:	68f0      	ldr	r0, [r6, #12]
 8005d46:	9704      	str	r7, [sp, #16]
 8005d48:	f10a 3aff 	add.w	sl, sl, #4294967295
 8005d4c:	9403      	str	r4, [sp, #12]
 8005d4e:	4607      	mov	r7, r0
 8005d50:	9005      	str	r0, [sp, #20]
 8005d52:	eb0a 024a 	add.w	r2, sl, sl, lsl #1
 8005d56:	eb0a 0a82 	add.w	sl, sl, r2, lsl #2
 8005d5a:	e9cd 8601 	strd	r8, r6, [sp, #4]
 8005d5e:	4654      	mov	r4, sl
 8005d60:	46aa      	mov	sl, r5
 8005d62:	461d      	mov	r5, r3
 8005d64:	460b      	mov	r3, r1
 8005d66:	e011      	b.n	8005d8c <dir_find+0x21c>
 8005d68:	2cfe      	cmp	r4, #254	; 0xfe
 8005d6a:	4648      	mov	r0, r9
 8005d6c:	d81e      	bhi.n	8005dac <dir_find+0x23c>
 8005d6e:	f005 fe47 	bl	800ba00 <ff_wtoupper>
 8005d72:	4606      	mov	r6, r0
 8005d74:	f837 0014 	ldrh.w	r0, [r7, r4, lsl #1]
 8005d78:	4644      	mov	r4, r8
 8005d7a:	f005 fe41 	bl	800ba00 <ff_wtoupper>
 8005d7e:	4286      	cmp	r6, r0
 8005d80:	464b      	mov	r3, r9
 8005d82:	d113      	bne.n	8005dac <dir_find+0x23c>
 8005d84:	4a54      	ldr	r2, [pc, #336]	; (8005ed8 <dir_find+0x368>)
 8005d86:	42aa      	cmp	r2, r5
 8005d88:	f000 808f 	beq.w	8005eaa <dir_find+0x33a>
 8005d8c:	f815 0b01 	ldrb.w	r0, [r5], #1
 8005d90:	f104 0801 	add.w	r8, r4, #1
 8005d94:	eb0a 0e00 	add.w	lr, sl, r0
 8005d98:	f81a 9000 	ldrb.w	r9, [sl, r0]
 8005d9c:	f89e 0001 	ldrb.w	r0, [lr, #1]
 8005da0:	ea49 2900 	orr.w	r9, r9, r0, lsl #8
 8005da4:	2b00      	cmp	r3, #0
 8005da6:	d1df      	bne.n	8005d68 <dir_find+0x1f8>
 8005da8:	45d9      	cmp	r9, fp
 8005daa:	d0eb      	beq.n	8005d84 <dir_find+0x214>
 8005dac:	e9dd 8601 	ldrd	r8, r6, [sp, #4]
 8005db0:	9c03      	ldr	r4, [sp, #12]
 8005db2:	f04f 09ff 	mov.w	r9, #255	; 0xff
 8005db6:	e71a      	b.n	8005bee <dir_find+0x7e>
 8005db8:	45b9      	cmp	r9, r7
 8005dba:	d0b5      	beq.n	8005d28 <dir_find+0x1b8>
 8005dbc:	f04f 09ff 	mov.w	r9, #255	; 0xff
 8005dc0:	e715      	b.n	8005bee <dir_find+0x7e>
 8005dc2:	6a72      	ldr	r2, [r6, #36]	; 0x24
 8005dc4:	69f3      	ldr	r3, [r6, #28]
 8005dc6:	1aaa      	subs	r2, r5, r2
 8005dc8:	70f0      	strb	r0, [r6, #3]
 8005dca:	429a      	cmp	r2, r3
 8005dcc:	f4bf aeec 	bcs.w	8005ba8 <dir_find+0x38>
 8005dd0:	f896 a002 	ldrb.w	sl, [r6, #2]
 8005dd4:	f1ba 0f01 	cmp.w	sl, #1
 8005dd8:	f67f aee6 	bls.w	8005ba8 <dir_find+0x38>
 8005ddc:	9401      	str	r4, [sp, #4]
 8005dde:	460c      	mov	r4, r1
 8005de0:	e000      	b.n	8005de4 <dir_find+0x274>
 8005de2:	69f3      	ldr	r3, [r6, #28]
 8005de4:	441d      	add	r5, r3
 8005de6:	f10a 3aff 	add.w	sl, sl, #4294967295
 8005dea:	2301      	movs	r3, #1
 8005dec:	4621      	mov	r1, r4
 8005dee:	462a      	mov	r2, r5
 8005df0:	7870      	ldrb	r0, [r6, #1]
 8005df2:	f7fe fd31 	bl	8004858 <disk_write>
 8005df6:	f1ba 0f01 	cmp.w	sl, #1
 8005dfa:	d1f2      	bne.n	8005de2 <dir_find+0x272>
 8005dfc:	4621      	mov	r1, r4
 8005dfe:	9c01      	ldr	r4, [sp, #4]
 8005e00:	e6d2      	b.n	8005ba8 <dir_find+0x38>
 8005e02:	782b      	ldrb	r3, [r5, #0]
 8005e04:	786f      	ldrb	r7, [r5, #1]
 8005e06:	01da      	lsls	r2, r3, #7
 8005e08:	78a8      	ldrb	r0, [r5, #2]
 8005e0a:	78e9      	ldrb	r1, [r5, #3]
 8005e0c:	ea42 0353 	orr.w	r3, r2, r3, lsr #1
 8005e10:	19da      	adds	r2, r3, r7
 8005e12:	792f      	ldrb	r7, [r5, #4]
 8005e14:	f3c2 0346 	ubfx	r3, r2, #1, #7
 8005e18:	ea43 13c2 	orr.w	r3, r3, r2, lsl #7
 8005e1c:	fa50 f383 	uxtab	r3, r0, r3
 8005e20:	7968      	ldrb	r0, [r5, #5]
 8005e22:	f3c3 0246 	ubfx	r2, r3, #1, #7
 8005e26:	ea42 13c3 	orr.w	r3, r2, r3, lsl #7
 8005e2a:	fa51 f283 	uxtab	r2, r1, r3
 8005e2e:	79a9      	ldrb	r1, [r5, #6]
 8005e30:	f3c2 0346 	ubfx	r3, r2, #1, #7
 8005e34:	ea43 13c2 	orr.w	r3, r3, r2, lsl #7
 8005e38:	fa57 f383 	uxtab	r3, r7, r3
 8005e3c:	79ef      	ldrb	r7, [r5, #7]
 8005e3e:	f3c3 0246 	ubfx	r2, r3, #1, #7
 8005e42:	ea42 13c3 	orr.w	r3, r2, r3, lsl #7
 8005e46:	fa50 f283 	uxtab	r2, r0, r3
 8005e4a:	7a68      	ldrb	r0, [r5, #9]
 8005e4c:	f3c2 0346 	ubfx	r3, r2, #1, #7
 8005e50:	ea43 13c2 	orr.w	r3, r3, r2, lsl #7
 8005e54:	7a2a      	ldrb	r2, [r5, #8]
 8005e56:	fa51 f383 	uxtab	r3, r1, r3
 8005e5a:	f3c3 0146 	ubfx	r1, r3, #1, #7
 8005e5e:	ea41 13c3 	orr.w	r3, r1, r3, lsl #7
 8005e62:	fa57 f183 	uxtab	r1, r7, r3
 8005e66:	f3c1 0346 	ubfx	r3, r1, #1, #7
 8005e6a:	ea43 13c1 	orr.w	r3, r3, r1, lsl #7
 8005e6e:	7aa9      	ldrb	r1, [r5, #10]
 8005e70:	fa52 f383 	uxtab	r3, r2, r3
 8005e74:	f3c3 0246 	ubfx	r2, r3, #1, #7
 8005e78:	ea42 13c3 	orr.w	r3, r2, r3, lsl #7
 8005e7c:	fa50 f283 	uxtab	r2, r0, r3
 8005e80:	f3c2 0346 	ubfx	r3, r2, #1, #7
 8005e84:	ea43 13c2 	orr.w	r3, r3, r2, lsl #7
 8005e88:	fa51 f383 	uxtab	r3, r1, r3
 8005e8c:	b2db      	uxtb	r3, r3
 8005e8e:	4598      	cmp	r8, r3
 8005e90:	f47f aed3 	bne.w	8005c3a <dir_find+0xca>
 8005e94:	e693      	b.n	8005bbe <dir_find+0x4e>
 8005e96:	2300      	movs	r3, #0
 8005e98:	f04f 0904 	mov.w	r9, #4
 8005e9c:	61e3      	str	r3, [r4, #28]
 8005e9e:	e68e      	b.n	8005bbe <dir_find+0x4e>
 8005ea0:	f04f 0902 	mov.w	r9, #2
 8005ea4:	e68b      	b.n	8005bbe <dir_find+0x4e>
 8005ea6:	4617      	mov	r7, r2
 8005ea8:	e72f      	b.n	8005d0a <dir_find+0x19a>
 8005eaa:	4655      	mov	r5, sl
 8005eac:	4619      	mov	r1, r3
 8005eae:	46a2      	mov	sl, r4
 8005eb0:	9f04      	ldr	r7, [sp, #16]
 8005eb2:	782b      	ldrb	r3, [r5, #0]
 8005eb4:	9c03      	ldr	r4, [sp, #12]
 8005eb6:	065a      	lsls	r2, r3, #25
 8005eb8:	e9dd 8601 	ldrd	r8, r6, [sp, #4]
 8005ebc:	d500      	bpl.n	8005ec0 <dir_find+0x350>
 8005ebe:	b919      	cbnz	r1, 8005ec8 <dir_find+0x358>
 8005ec0:	3f01      	subs	r7, #1
 8005ec2:	fa5f f987 	uxtb.w	r9, r7
 8005ec6:	e692      	b.n	8005bee <dir_find+0x7e>
 8005ec8:	9b05      	ldr	r3, [sp, #20]
 8005eca:	f833 301a 	ldrh.w	r3, [r3, sl, lsl #1]
 8005ece:	2b00      	cmp	r3, #0
 8005ed0:	d0f6      	beq.n	8005ec0 <dir_find+0x350>
 8005ed2:	e773      	b.n	8005dbc <dir_find+0x24c>
 8005ed4:	0800cf78 	.word	0x0800cf78
 8005ed8:	0800cf85 	.word	0x0800cf85

08005edc <follow_path>:
 8005edc:	e92d 4ff0 	stmdb	sp!, {r4, r5, r6, r7, r8, r9, sl, fp, lr}
 8005ee0:	780b      	ldrb	r3, [r1, #0]
 8005ee2:	b083      	sub	sp, #12
 8005ee4:	4688      	mov	r8, r1
 8005ee6:	4607      	mov	r7, r0
 8005ee8:	2b2f      	cmp	r3, #47	; 0x2f
 8005eea:	f8d0 b000 	ldr.w	fp, [r0]
 8005eee:	d103      	bne.n	8005ef8 <follow_path+0x1c>
 8005ef0:	f818 3f01 	ldrb.w	r3, [r8, #1]!
 8005ef4:	2b2f      	cmp	r3, #47	; 0x2f
 8005ef6:	d0fb      	beq.n	8005ef0 <follow_path+0x14>
 8005ef8:	2b5c      	cmp	r3, #92	; 0x5c
 8005efa:	d0f9      	beq.n	8005ef0 <follow_path+0x14>
 8005efc:	2100      	movs	r1, #0
 8005efe:	60b9      	str	r1, [r7, #8]
 8005f00:	f898 3000 	ldrb.w	r3, [r8]
 8005f04:	2b1f      	cmp	r3, #31
 8005f06:	f240 8156 	bls.w	80061b6 <follow_path+0x2da>
 8005f0a:	465a      	mov	r2, fp
 8005f0c:	2b1f      	cmp	r3, #31
 8005f0e:	f8d2 900c 	ldr.w	r9, [r2, #12]
 8005f12:	b298      	uxth	r0, r3
 8005f14:	d929      	bls.n	8005f6a <follow_path+0x8e>
 8005f16:	f1a9 0a02 	sub.w	sl, r9, #2
 8005f1a:	4646      	mov	r6, r8
 8005f1c:	2501      	movs	r5, #1
 8005f1e:	e008      	b.n	8005f32 <follow_path+0x56>
 8005f20:	f82a 0f02 	strh.w	r0, [sl, #2]!
 8005f24:	1c6b      	adds	r3, r5, #1
 8005f26:	f816 0f01 	ldrb.w	r0, [r6, #1]!
 8005f2a:	281f      	cmp	r0, #31
 8005f2c:	f240 8104 	bls.w	8006138 <follow_path+0x25c>
 8005f30:	461d      	mov	r5, r3
 8005f32:	282f      	cmp	r0, #47	; 0x2f
 8005f34:	f105 34ff 	add.w	r4, r5, #4294967295
 8005f38:	d01e      	beq.n	8005f78 <follow_path+0x9c>
 8005f3a:	285c      	cmp	r0, #92	; 0x5c
 8005f3c:	d01c      	beq.n	8005f78 <follow_path+0x9c>
 8005f3e:	f5b5 7f80 	cmp.w	r5, #256	; 0x100
 8005f42:	d00e      	beq.n	8005f62 <follow_path+0x86>
 8005f44:	2101      	movs	r1, #1
 8005f46:	f005 fd57 	bl	800b9f8 <ff_convert>
 8005f4a:	b150      	cbz	r0, 8005f62 <follow_path+0x86>
 8005f4c:	287f      	cmp	r0, #127	; 0x7f
 8005f4e:	d8e7      	bhi.n	8005f20 <follow_path+0x44>
 8005f50:	2322      	movs	r3, #34	; 0x22
 8005f52:	4aad      	ldr	r2, [pc, #692]	; (8006208 <follow_path+0x32c>)
 8005f54:	e003      	b.n	8005f5e <follow_path+0x82>
 8005f56:	f812 3f01 	ldrb.w	r3, [r2, #1]!
 8005f5a:	2b00      	cmp	r3, #0
 8005f5c:	d0e0      	beq.n	8005f20 <follow_path+0x44>
 8005f5e:	4298      	cmp	r0, r3
 8005f60:	d1f9      	bne.n	8005f56 <follow_path+0x7a>
 8005f62:	2006      	movs	r0, #6
 8005f64:	b003      	add	sp, #12
 8005f66:	e8bd 8ff0 	ldmia.w	sp!, {r4, r5, r6, r7, r8, r9, sl, fp, pc}
 8005f6a:	2300      	movs	r3, #0
 8005f6c:	2006      	movs	r0, #6
 8005f6e:	f8a9 3000 	strh.w	r3, [r9]
 8005f72:	b003      	add	sp, #12
 8005f74:	e8bd 8ff0 	ldmia.w	sp!, {r4, r5, r6, r7, r8, r9, sl, fp, pc}
 8005f78:	f818 3005 	ldrb.w	r3, [r8, r5]
 8005f7c:	eb08 0205 	add.w	r2, r8, r5
 8005f80:	2b5c      	cmp	r3, #92	; 0x5c
 8005f82:	d002      	beq.n	8005f8a <follow_path+0xae>
 8005f84:	2b2f      	cmp	r3, #47	; 0x2f
 8005f86:	f040 812b 	bne.w	80061e0 <follow_path+0x304>
 8005f8a:	3501      	adds	r5, #1
 8005f8c:	4445      	add	r5, r8
 8005f8e:	46a8      	mov	r8, r5
 8005f90:	f815 3b01 	ldrb.w	r3, [r5], #1
 8005f94:	2b2f      	cmp	r3, #47	; 0x2f
 8005f96:	d0fa      	beq.n	8005f8e <follow_path+0xb2>
 8005f98:	2b5c      	cmp	r3, #92	; 0x5c
 8005f9a:	d0f8      	beq.n	8005f8e <follow_path+0xb2>
 8005f9c:	2c00      	cmp	r4, #0
 8005f9e:	d0e4      	beq.n	8005f6a <follow_path+0x8e>
 8005fa0:	2603      	movs	r6, #3
 8005fa2:	2500      	movs	r5, #0
 8005fa4:	eb09 0244 	add.w	r2, r9, r4, lsl #1
 8005fa8:	e001      	b.n	8005fae <follow_path+0xd2>
 8005faa:	3c01      	subs	r4, #1
 8005fac:	d0dd      	beq.n	8005f6a <follow_path+0x8e>
 8005fae:	f832 3d02 	ldrh.w	r3, [r2, #-2]!
 8005fb2:	2b20      	cmp	r3, #32
 8005fb4:	d0f9      	beq.n	8005faa <follow_path+0xce>
 8005fb6:	2b2e      	cmp	r3, #46	; 0x2e
 8005fb8:	d0f7      	beq.n	8005faa <follow_path+0xce>
 8005fba:	2320      	movs	r3, #32
 8005fbc:	f04f 3220 	mov.w	r2, #538976288	; 0x20202020
 8005fc0:	2100      	movs	r1, #0
 8005fc2:	f829 1014 	strh.w	r1, [r9, r4, lsl #1]
 8005fc6:	627a      	str	r2, [r7, #36]	; 0x24
 8005fc8:	62ba      	str	r2, [r7, #40]	; 0x28
 8005fca:	f887 302c 	strb.w	r3, [r7, #44]	; 0x2c
 8005fce:	f887 302d 	strb.w	r3, [r7, #45]	; 0x2d
 8005fd2:	f887 302e 	strb.w	r3, [r7, #46]	; 0x2e
 8005fd6:	f8b9 0000 	ldrh.w	r0, [r9]
 8005fda:	282e      	cmp	r0, #46	; 0x2e
 8005fdc:	d002      	beq.n	8005fe4 <follow_path+0x108>
 8005fde:	4298      	cmp	r0, r3
 8005fe0:	f040 80f2 	bne.w	80061c8 <follow_path+0x2ec>
 8005fe4:	464a      	mov	r2, r9
 8005fe6:	2300      	movs	r3, #0
 8005fe8:	f832 0f02 	ldrh.w	r0, [r2, #2]!
 8005fec:	461d      	mov	r5, r3
 8005fee:	3301      	adds	r3, #1
 8005ff0:	2820      	cmp	r0, #32
 8005ff2:	d0f9      	beq.n	8005fe8 <follow_path+0x10c>
 8005ff4:	282e      	cmp	r0, #46	; 0x2e
 8005ff6:	d0f7      	beq.n	8005fe8 <follow_path+0x10c>
 8005ff8:	3502      	adds	r5, #2
 8005ffa:	eb09 0344 	add.w	r3, r9, r4, lsl #1
 8005ffe:	f833 2d02 	ldrh.w	r2, [r3, #-2]!
 8006002:	2a2e      	cmp	r2, #46	; 0x2e
 8006004:	d001      	beq.n	800600a <follow_path+0x12e>
 8006006:	3c01      	subs	r4, #1
 8006008:	d1f9      	bne.n	8005ffe <follow_path+0x122>
 800600a:	2800      	cmp	r0, #0
 800600c:	d03a      	beq.n	8006084 <follow_path+0x1a8>
 800600e:	2300      	movs	r3, #0
 8006010:	2208      	movs	r2, #8
 8006012:	4641      	mov	r1, r8
 8006014:	469a      	mov	sl, r3
 8006016:	4698      	mov	r8, r3
 8006018:	465b      	mov	r3, fp
 800601a:	46bb      	mov	fp, r7
 800601c:	464f      	mov	r7, r9
 800601e:	4691      	mov	r9, r2
 8006020:	460a      	mov	r2, r1
 8006022:	2820      	cmp	r0, #32
 8006024:	d003      	beq.n	800602e <follow_path+0x152>
 8006026:	282e      	cmp	r0, #46	; 0x2e
 8006028:	d155      	bne.n	80060d6 <follow_path+0x1fa>
 800602a:	42ac      	cmp	r4, r5
 800602c:	d053      	beq.n	80060d6 <follow_path+0x1fa>
 800602e:	f046 0603 	orr.w	r6, r6, #3
 8006032:	b2f6      	uxtb	r6, r6
 8006034:	f837 0015 	ldrh.w	r0, [r7, r5, lsl #1]
 8006038:	3501      	adds	r5, #1
 800603a:	2800      	cmp	r0, #0
 800603c:	d1f1      	bne.n	8006022 <follow_path+0x146>
 800603e:	465f      	mov	r7, fp
 8006040:	469b      	mov	fp, r3
 8006042:	4643      	mov	r3, r8
 8006044:	4690      	mov	r8, r2
 8006046:	f897 1024 	ldrb.w	r1, [r7, #36]	; 0x24
 800604a:	464a      	mov	r2, r9
 800604c:	29e5      	cmp	r1, #229	; 0xe5
 800604e:	d102      	bne.n	8006056 <follow_path+0x17a>
 8006050:	2105      	movs	r1, #5
 8006052:	f887 1024 	strb.w	r1, [r7, #36]	; 0x24
 8006056:	2a08      	cmp	r2, #8
 8006058:	f000 809c 	beq.w	8006194 <follow_path+0x2b8>
 800605c:	f003 020c 	and.w	r2, r3, #12
 8006060:	2a0c      	cmp	r2, #12
 8006062:	d06e      	beq.n	8006142 <follow_path+0x266>
 8006064:	f003 0303 	and.w	r3, r3, #3
 8006068:	2b03      	cmp	r3, #3
 800606a:	d06a      	beq.n	8006142 <follow_path+0x266>
 800606c:	07b1      	lsls	r1, r6, #30
 800606e:	d409      	bmi.n	8006084 <follow_path+0x1a8>
 8006070:	2b01      	cmp	r3, #1
 8006072:	d102      	bne.n	800607a <follow_path+0x19e>
 8006074:	f046 0610 	orr.w	r6, r6, #16
 8006078:	b2f6      	uxtb	r6, r6
 800607a:	2a04      	cmp	r2, #4
 800607c:	d102      	bne.n	8006084 <follow_path+0x1a8>
 800607e:	f046 0608 	orr.w	r6, r6, #8
 8006082:	b2f6      	uxtb	r6, r6
 8006084:	4638      	mov	r0, r7
 8006086:	f887 602f 	strb.w	r6, [r7, #47]	; 0x2f
 800608a:	f7ff fd71 	bl	8005b70 <dir_find>
 800608e:	f897 302f 	ldrb.w	r3, [r7, #47]	; 0x2f
 8006092:	2800      	cmp	r0, #0
 8006094:	d161      	bne.n	800615a <follow_path+0x27e>
 8006096:	075a      	lsls	r2, r3, #29
 8006098:	f53f af64 	bmi.w	8005f64 <follow_path+0x88>
 800609c:	79bb      	ldrb	r3, [r7, #6]
 800609e:	06db      	lsls	r3, r3, #27
 80060a0:	f140 80a0 	bpl.w	80061e4 <follow_path+0x308>
 80060a4:	697a      	ldr	r2, [r7, #20]
 80060a6:	f10b 0334 	add.w	r3, fp, #52	; 0x34
 80060aa:	f89b 1000 	ldrb.w	r1, [fp]
 80060ae:	f3c2 0208 	ubfx	r2, r2, #0, #9
 80060b2:	2903      	cmp	r1, #3
 80060b4:	4413      	add	r3, r2
 80060b6:	7ed8      	ldrb	r0, [r3, #27]
 80060b8:	7e9a      	ldrb	r2, [r3, #26]
 80060ba:	ea42 2200 	orr.w	r2, r2, r0, lsl #8
 80060be:	d105      	bne.n	80060cc <follow_path+0x1f0>
 80060c0:	7d59      	ldrb	r1, [r3, #21]
 80060c2:	7d1b      	ldrb	r3, [r3, #20]
 80060c4:	ea43 2301 	orr.w	r3, r3, r1, lsl #8
 80060c8:	ea42 4203 	orr.w	r2, r2, r3, lsl #16
 80060cc:	60ba      	str	r2, [r7, #8]
 80060ce:	683a      	ldr	r2, [r7, #0]
 80060d0:	f898 3000 	ldrb.w	r3, [r8]
 80060d4:	e71a      	b.n	8005f0c <follow_path+0x30>
 80060d6:	45d1      	cmp	r9, sl
 80060d8:	d91b      	bls.n	8006112 <follow_path+0x236>
 80060da:	1b61      	subs	r1, r4, r5
 80060dc:	fab1 f181 	clz	r1, r1
 80060e0:	0949      	lsrs	r1, r1, #5
 80060e2:	b9b1      	cbnz	r1, 8006112 <follow_path+0x236>
 80060e4:	287f      	cmp	r0, #127	; 0x7f
 80060e6:	d840      	bhi.n	800616a <follow_path+0x28e>
 80060e8:	212b      	movs	r1, #43	; 0x2b
 80060ea:	f8df c124 	ldr.w	ip, [pc, #292]	; 8006210 <follow_path+0x334>
 80060ee:	e003      	b.n	80060f8 <follow_path+0x21c>
 80060f0:	f81c 1f01 	ldrb.w	r1, [ip, #1]!
 80060f4:	2900      	cmp	r1, #0
 80060f6:	d056      	beq.n	80061a6 <follow_path+0x2ca>
 80060f8:	4281      	cmp	r1, r0
 80060fa:	d1f9      	bne.n	80060f0 <follow_path+0x214>
 80060fc:	f046 0603 	orr.w	r6, r6, #3
 8006100:	205f      	movs	r0, #95	; 0x5f
 8006102:	b2f6      	uxtb	r6, r6
 8006104:	eb0b 010a 	add.w	r1, fp, sl
 8006108:	f10a 0a01 	add.w	sl, sl, #1
 800610c:	f881 0024 	strb.w	r0, [r1, #36]	; 0x24
 8006110:	e790      	b.n	8006034 <follow_path+0x158>
 8006112:	f1b9 0f0b 	cmp.w	r9, #11
 8006116:	d067      	beq.n	80061e8 <follow_path+0x30c>
 8006118:	42ac      	cmp	r4, r5
 800611a:	d003      	beq.n	8006124 <follow_path+0x248>
 800611c:	f046 0603 	orr.w	r6, r6, #3
 8006120:	b2f6      	uxtb	r6, r6
 8006122:	d38c      	bcc.n	800603e <follow_path+0x162>
 8006124:	ea4f 0888 	mov.w	r8, r8, lsl #2
 8006128:	4625      	mov	r5, r4
 800612a:	f04f 090b 	mov.w	r9, #11
 800612e:	f04f 0a08 	mov.w	sl, #8
 8006132:	fa5f f888 	uxtb.w	r8, r8
 8006136:	e77d      	b.n	8006034 <follow_path+0x158>
 8006138:	462c      	mov	r4, r5
 800613a:	4498      	add	r8, r3
 800613c:	2607      	movs	r6, #7
 800613e:	2504      	movs	r5, #4
 8006140:	e730      	b.n	8005fa4 <follow_path+0xc8>
 8006142:	f046 0602 	orr.w	r6, r6, #2
 8006146:	4638      	mov	r0, r7
 8006148:	b2f6      	uxtb	r6, r6
 800614a:	f887 602f 	strb.w	r6, [r7, #47]	; 0x2f
 800614e:	f7ff fd0f 	bl	8005b70 <dir_find>
 8006152:	f897 302f 	ldrb.w	r3, [r7, #47]	; 0x2f
 8006156:	2800      	cmp	r0, #0
 8006158:	d09d      	beq.n	8006096 <follow_path+0x1ba>
 800615a:	2804      	cmp	r0, #4
 800615c:	f47f af02 	bne.w	8005f64 <follow_path+0x88>
 8006160:	f013 0f04 	tst.w	r3, #4
 8006164:	bf08      	it	eq
 8006166:	2005      	moveq	r0, #5
 8006168:	e6fc      	b.n	8005f64 <follow_path+0x88>
 800616a:	e9cd 3200 	strd	r3, r2, [sp]
 800616e:	f005 fc43 	bl	800b9f8 <ff_convert>
 8006172:	e9dd 3200 	ldrd	r3, r2, [sp]
 8006176:	b918      	cbnz	r0, 8006180 <follow_path+0x2a4>
 8006178:	f046 0602 	orr.w	r6, r6, #2
 800617c:	b2f6      	uxtb	r6, r6
 800617e:	e7bd      	b.n	80060fc <follow_path+0x220>
 8006180:	4922      	ldr	r1, [pc, #136]	; (800620c <follow_path+0x330>)
 8006182:	f046 0602 	orr.w	r6, r6, #2
 8006186:	4408      	add	r0, r1
 8006188:	b2f6      	uxtb	r6, r6
 800618a:	f810 0c80 	ldrb.w	r0, [r0, #-128]
 800618e:	2800      	cmp	r0, #0
 8006190:	d0b4      	beq.n	80060fc <follow_path+0x220>
 8006192:	e7a9      	b.n	80060e8 <follow_path+0x20c>
 8006194:	009b      	lsls	r3, r3, #2
 8006196:	f003 020c 	and.w	r2, r3, #12
 800619a:	2a0c      	cmp	r2, #12
 800619c:	d0d1      	beq.n	8006142 <follow_path+0x266>
 800619e:	07b0      	lsls	r0, r6, #30
 80061a0:	f57f af6b 	bpl.w	800607a <follow_path+0x19e>
 80061a4:	e76e      	b.n	8006084 <follow_path+0x1a8>
 80061a6:	f1a0 0141 	sub.w	r1, r0, #65	; 0x41
 80061aa:	2919      	cmp	r1, #25
 80061ac:	d80f      	bhi.n	80061ce <follow_path+0x2f2>
 80061ae:	f048 0802 	orr.w	r8, r8, #2
 80061b2:	b2c0      	uxtb	r0, r0
 80061b4:	e7a6      	b.n	8006104 <follow_path+0x228>
 80061b6:	2380      	movs	r3, #128	; 0x80
 80061b8:	4638      	mov	r0, r7
 80061ba:	f887 302f 	strb.w	r3, [r7, #47]	; 0x2f
 80061be:	b003      	add	sp, #12
 80061c0:	e8bd 4ff0 	ldmia.w	sp!, {r4, r5, r6, r7, r8, r9, sl, fp, lr}
 80061c4:	f7ff bb74 	b.w	80058b0 <dir_sdi>
 80061c8:	462e      	mov	r6, r5
 80061ca:	2501      	movs	r5, #1
 80061cc:	e715      	b.n	8005ffa <follow_path+0x11e>
 80061ce:	f1a0 0161 	sub.w	r1, r0, #97	; 0x61
 80061d2:	2919      	cmp	r1, #25
 80061d4:	bf9c      	itt	ls
 80061d6:	3820      	subls	r0, #32
 80061d8:	f048 0801 	orrls.w	r8, r8, #1
 80061dc:	b2c0      	uxtb	r0, r0
 80061de:	e791      	b.n	8006104 <follow_path+0x228>
 80061e0:	4690      	mov	r8, r2
 80061e2:	e6db      	b.n	8005f9c <follow_path+0xc0>
 80061e4:	2005      	movs	r0, #5
 80061e6:	e6bd      	b.n	8005f64 <follow_path+0x88>
 80061e8:	465f      	mov	r7, fp
 80061ea:	469b      	mov	fp, r3
 80061ec:	4643      	mov	r3, r8
 80061ee:	4690      	mov	r8, r2
 80061f0:	f897 2024 	ldrb.w	r2, [r7, #36]	; 0x24
 80061f4:	f046 0603 	orr.w	r6, r6, #3
 80061f8:	2ae5      	cmp	r2, #229	; 0xe5
 80061fa:	b2f6      	uxtb	r6, r6
 80061fc:	f47f af2e 	bne.w	800605c <follow_path+0x180>
 8006200:	2205      	movs	r2, #5
 8006202:	f887 2024 	strb.w	r2, [r7, #36]	; 0x24
 8006206:	e729      	b.n	800605c <follow_path+0x180>
 8006208:	0800cee4 	.word	0x0800cee4
 800620c:	0800cef8 	.word	0x0800cef8
 8006210:	0800cef0 	.word	0x0800cef0

08006214 <remove_chain>:
 8006214:	2901      	cmp	r1, #1
 8006216:	e92d 43f8 	stmdb	sp!, {r3, r4, r5, r6, r7, r8, r9, lr}
 800621a:	6805      	ldr	r5, [r0, #0]
 800621c:	d90f      	bls.n	800623e <remove_chain+0x2a>
 800621e:	69ab      	ldr	r3, [r5, #24]
 8006220:	460c      	mov	r4, r1
 8006222:	428b      	cmp	r3, r1
 8006224:	d90b      	bls.n	800623e <remove_chain+0x2a>
 8006226:	4606      	mov	r6, r0
 8006228:	b962      	cbnz	r2, 8006244 <remove_chain+0x30>
 800622a:	462f      	mov	r7, r5
 800622c:	429c      	cmp	r4, r3
 800622e:	d206      	bcs.n	800623e <remove_chain+0x2a>
 8006230:	783b      	ldrb	r3, [r7, #0]
 8006232:	2b02      	cmp	r3, #2
 8006234:	d07a      	beq.n	800632c <remove_chain+0x118>
 8006236:	2b03      	cmp	r3, #3
 8006238:	d05e      	beq.n	80062f8 <remove_chain+0xe4>
 800623a:	2b01      	cmp	r3, #1
 800623c:	d011      	beq.n	8006262 <remove_chain+0x4e>
 800623e:	2002      	movs	r0, #2
 8006240:	e8bd 83f8 	ldmia.w	sp!, {r3, r4, r5, r6, r7, r8, r9, pc}
 8006244:	4293      	cmp	r3, r2
 8006246:	d9fa      	bls.n	800623e <remove_chain+0x2a>
 8006248:	2a01      	cmp	r2, #1
 800624a:	d9f8      	bls.n	800623e <remove_chain+0x2a>
 800624c:	4611      	mov	r1, r2
 800624e:	4628      	mov	r0, r5
 8006250:	f04f 32ff 	mov.w	r2, #4294967295
 8006254:	f7fe fbdc 	bl	8004a10 <put_fat.part.0>
 8006258:	2800      	cmp	r0, #0
 800625a:	d1f1      	bne.n	8006240 <remove_chain+0x2c>
 800625c:	6837      	ldr	r7, [r6, #0]
 800625e:	69bb      	ldr	r3, [r7, #24]
 8006260:	e7e4      	b.n	800622c <remove_chain+0x18>
 8006262:	eb04 0854 	add.w	r8, r4, r4, lsr #1
 8006266:	6a7b      	ldr	r3, [r7, #36]	; 0x24
 8006268:	6b3a      	ldr	r2, [r7, #48]	; 0x30
 800626a:	eb03 2158 	add.w	r1, r3, r8, lsr #9
 800626e:	4291      	cmp	r1, r2
 8006270:	d006      	beq.n	8006280 <remove_chain+0x6c>
 8006272:	4638      	mov	r0, r7
 8006274:	f7fe fb92 	bl	800499c <move_window.part.0>
 8006278:	2800      	cmp	r0, #0
 800627a:	d16c      	bne.n	8006356 <remove_chain+0x142>
 800627c:	6a7b      	ldr	r3, [r7, #36]	; 0x24
 800627e:	6b3a      	ldr	r2, [r7, #48]	; 0x30
 8006280:	f3c8 0008 	ubfx	r0, r8, #0, #9
 8006284:	f108 0801 	add.w	r8, r8, #1
 8006288:	eb03 2158 	add.w	r1, r3, r8, lsr #9
 800628c:	4438      	add	r0, r7
 800628e:	4291      	cmp	r1, r2
 8006290:	f890 9034 	ldrb.w	r9, [r0, #52]	; 0x34
 8006294:	d004      	beq.n	80062a0 <remove_chain+0x8c>
 8006296:	4638      	mov	r0, r7
 8006298:	f7fe fb80 	bl	800499c <move_window.part.0>
 800629c:	2800      	cmp	r0, #0
 800629e:	d15a      	bne.n	8006356 <remove_chain+0x142>
 80062a0:	f3c8 0808 	ubfx	r8, r8, #0, #9
 80062a4:	07e3      	lsls	r3, r4, #31
 80062a6:	4447      	add	r7, r8
 80062a8:	f897 8034 	ldrb.w	r8, [r7, #52]	; 0x34
 80062ac:	ea49 2808 	orr.w	r8, r9, r8, lsl #8
 80062b0:	d553      	bpl.n	800635a <remove_chain+0x146>
 80062b2:	ea4f 1818 	mov.w	r8, r8, lsr #4
 80062b6:	f1b8 0f00 	cmp.w	r8, #0
 80062ba:	d051      	beq.n	8006360 <remove_chain+0x14c>
 80062bc:	f1b8 0f01 	cmp.w	r8, #1
 80062c0:	d0bd      	beq.n	800623e <remove_chain+0x2a>
 80062c2:	69ab      	ldr	r3, [r5, #24]
 80062c4:	42a3      	cmp	r3, r4
 80062c6:	d9ba      	bls.n	800623e <remove_chain+0x2a>
 80062c8:	4621      	mov	r1, r4
 80062ca:	2200      	movs	r2, #0
 80062cc:	4628      	mov	r0, r5
 80062ce:	f7fe fb9f 	bl	8004a10 <put_fat.part.0>
 80062d2:	2800      	cmp	r0, #0
 80062d4:	d1b4      	bne.n	8006240 <remove_chain+0x2c>
 80062d6:	e9d5 3205 	ldrd	r3, r2, [r5, #20]
 80062da:	1e91      	subs	r1, r2, #2
 80062dc:	428b      	cmp	r3, r1
 80062de:	d205      	bcs.n	80062ec <remove_chain+0xd8>
 80062e0:	7929      	ldrb	r1, [r5, #4]
 80062e2:	3301      	adds	r3, #1
 80062e4:	f041 0101 	orr.w	r1, r1, #1
 80062e8:	616b      	str	r3, [r5, #20]
 80062ea:	7129      	strb	r1, [r5, #4]
 80062ec:	4542      	cmp	r2, r8
 80062ee:	d937      	bls.n	8006360 <remove_chain+0x14c>
 80062f0:	6837      	ldr	r7, [r6, #0]
 80062f2:	4644      	mov	r4, r8
 80062f4:	69bb      	ldr	r3, [r7, #24]
 80062f6:	e799      	b.n	800622c <remove_chain+0x18>
 80062f8:	6a79      	ldr	r1, [r7, #36]	; 0x24
 80062fa:	6b3b      	ldr	r3, [r7, #48]	; 0x30
 80062fc:	eb01 11d4 	add.w	r1, r1, r4, lsr #7
 8006300:	4299      	cmp	r1, r3
 8006302:	d003      	beq.n	800630c <remove_chain+0xf8>
 8006304:	4638      	mov	r0, r7
 8006306:	f7fe fb49 	bl	800499c <move_window.part.0>
 800630a:	bb20      	cbnz	r0, 8006356 <remove_chain+0x142>
 800630c:	00a3      	lsls	r3, r4, #2
 800630e:	3734      	adds	r7, #52	; 0x34
 8006310:	f403 73fe 	and.w	r3, r3, #508	; 0x1fc
 8006314:	18fa      	adds	r2, r7, r3
 8006316:	f817 8003 	ldrb.w	r8, [r7, r3]
 800631a:	8851      	ldrh	r1, [r2, #2]
 800631c:	7853      	ldrb	r3, [r2, #1]
 800631e:	ea43 2301 	orr.w	r3, r3, r1, lsl #8
 8006322:	ea48 2803 	orr.w	r8, r8, r3, lsl #8
 8006326:	f028 4870 	bic.w	r8, r8, #4026531840	; 0xf0000000
 800632a:	e7c4      	b.n	80062b6 <remove_chain+0xa2>
 800632c:	6a79      	ldr	r1, [r7, #36]	; 0x24
 800632e:	6b3b      	ldr	r3, [r7, #48]	; 0x30
 8006330:	eb01 2114 	add.w	r1, r1, r4, lsr #8
 8006334:	4299      	cmp	r1, r3
 8006336:	d003      	beq.n	8006340 <remove_chain+0x12c>
 8006338:	4638      	mov	r0, r7
 800633a:	f7fe fb2f 	bl	800499c <move_window.part.0>
 800633e:	b950      	cbnz	r0, 8006356 <remove_chain+0x142>
 8006340:	0063      	lsls	r3, r4, #1
 8006342:	3734      	adds	r7, #52	; 0x34
 8006344:	f403 73ff 	and.w	r3, r3, #510	; 0x1fe
 8006348:	18fa      	adds	r2, r7, r3
 800634a:	f817 8003 	ldrb.w	r8, [r7, r3]
 800634e:	7853      	ldrb	r3, [r2, #1]
 8006350:	ea48 2803 	orr.w	r8, r8, r3, lsl #8
 8006354:	e7af      	b.n	80062b6 <remove_chain+0xa2>
 8006356:	2001      	movs	r0, #1
 8006358:	e772      	b.n	8006240 <remove_chain+0x2c>
 800635a:	f3c8 080b 	ubfx	r8, r8, #0, #12
 800635e:	e7aa      	b.n	80062b6 <remove_chain+0xa2>
 8006360:	2000      	movs	r0, #0
 8006362:	e76d      	b.n	8006240 <remove_chain+0x2c>

08006364 <dir_register>:
 8006364:	e92d 4ff0 	stmdb	sp!, {r4, r5, r6, r7, r8, r9, sl, fp, lr}
 8006368:	f890 502f 	ldrb.w	r5, [r0, #47]	; 0x2f
 800636c:	b091      	sub	sp, #68	; 0x44
 800636e:	f015 05a0 	ands.w	r5, r5, #160	; 0xa0
 8006372:	f040 8334 	bne.w	80069de <dir_register+0x67a>
 8006376:	6803      	ldr	r3, [r0, #0]
 8006378:	4681      	mov	r9, r0
 800637a:	f8d3 c00c 	ldr.w	ip, [r3, #12]
 800637e:	9300      	str	r3, [sp, #0]
 8006380:	f8bc 3000 	ldrh.w	r3, [ip]
 8006384:	2b00      	cmp	r3, #0
 8006386:	f000 8348 	beq.w	8006a1a <dir_register+0x6b6>
 800638a:	4663      	mov	r3, ip
 800638c:	f833 2f02 	ldrh.w	r2, [r3, #2]!
 8006390:	3501      	adds	r5, #1
 8006392:	2a00      	cmp	r2, #0
 8006394:	d1fa      	bne.n	800638c <dir_register+0x28>
 8006396:	f109 0a24 	add.w	sl, r9, #36	; 0x24
 800639a:	ab10      	add	r3, sp, #64	; 0x40
 800639c:	e89a 0007 	ldmia.w	sl, {r0, r1, r2}
 80063a0:	e903 0007 	stmdb	r3, {r0, r1, r2}
 80063a4:	f89d 303f 	ldrb.w	r3, [sp, #63]	; 0x3f
 80063a8:	07d9      	lsls	r1, r3, #31
 80063aa:	9308      	str	r3, [sp, #32]
 80063ac:	f100 809a 	bmi.w	80064e4 <dir_register+0x180>
 80063b0:	f013 0302 	ands.w	r3, r3, #2
 80063b4:	9f00      	ldr	r7, [sp, #0]
 80063b6:	f000 82ba 	beq.w	800692e <dir_register+0x5ca>
 80063ba:	4b74      	ldr	r3, [pc, #464]	; (800658c <dir_register+0x228>)
 80063bc:	350c      	adds	r5, #12
 80063be:	2100      	movs	r1, #0
 80063c0:	4648      	mov	r0, r9
 80063c2:	fba3 3505 	umull	r3, r5, r3, r5
 80063c6:	08ab      	lsrs	r3, r5, #2
 80063c8:	9301      	str	r3, [sp, #4]
 80063ca:	3301      	adds	r3, #1
 80063cc:	461c      	mov	r4, r3
 80063ce:	f7ff fa6f 	bl	80058b0 <dir_sdi>
 80063d2:	4683      	mov	fp, r0
 80063d4:	2800      	cmp	r0, #0
 80063d6:	f040 82b5 	bne.w	8006944 <dir_register+0x5e0>
 80063da:	f8cd a00c 	str.w	sl, [sp, #12]
 80063de:	4680      	mov	r8, r0
 80063e0:	f8d9 101c 	ldr.w	r1, [r9, #28]
 80063e4:	46a3      	mov	fp, r4
 80063e6:	46ba      	mov	sl, r7
 80063e8:	9002      	str	r0, [sp, #8]
 80063ea:	e029      	b.n	8006440 <dir_register+0xdc>
 80063ec:	fab3 f283 	clz	r2, r3
 80063f0:	0952      	lsrs	r2, r2, #5
 80063f2:	b3a3      	cbz	r3, 800645e <dir_register+0xfa>
 80063f4:	4690      	mov	r8, r2
 80063f6:	f8d9 4014 	ldr.w	r4, [r9, #20]
 80063fa:	f8d9 101c 	ldr.w	r1, [r9, #28]
 80063fe:	3420      	adds	r4, #32
 8006400:	f5b4 1f00 	cmp.w	r4, #2097152	; 0x200000
 8006404:	f080 82a1 	bcs.w	800694a <dir_register+0x5e6>
 8006408:	2900      	cmp	r1, #0
 800640a:	f000 829e 	beq.w	800694a <dir_register+0x5e6>
 800640e:	f3c4 0708 	ubfx	r7, r4, #0, #9
 8006412:	f8d9 6000 	ldr.w	r6, [r9]
 8006416:	b967      	cbnz	r7, 8006432 <dir_register+0xce>
 8006418:	3101      	adds	r1, #1
 800641a:	f8d9 3018 	ldr.w	r3, [r9, #24]
 800641e:	f8c9 101c 	str.w	r1, [r9, #28]
 8006422:	2b00      	cmp	r3, #0
 8006424:	f040 82ab 	bne.w	800697e <dir_register+0x61a>
 8006428:	8932      	ldrh	r2, [r6, #8]
 800642a:	ebb2 1f54 	cmp.w	r2, r4, lsr #5
 800642e:	f240 82f1 	bls.w	8006a14 <dir_register+0x6b0>
 8006432:	f106 0534 	add.w	r5, r6, #52	; 0x34
 8006436:	443d      	add	r5, r7
 8006438:	f8c9 4014 	str.w	r4, [r9, #20]
 800643c:	f8c9 5020 	str.w	r5, [r9, #32]
 8006440:	f8da 3030 	ldr.w	r3, [sl, #48]	; 0x30
 8006444:	428b      	cmp	r3, r1
 8006446:	d005      	beq.n	8006454 <dir_register+0xf0>
 8006448:	4650      	mov	r0, sl
 800644a:	f7fe faa7 	bl	800499c <move_window.part.0>
 800644e:	2800      	cmp	r0, #0
 8006450:	f040 82e5 	bne.w	8006a1e <dir_register+0x6ba>
 8006454:	f8d9 3020 	ldr.w	r3, [r9, #32]
 8006458:	781b      	ldrb	r3, [r3, #0]
 800645a:	2be5      	cmp	r3, #229	; 0xe5
 800645c:	d1c6      	bne.n	80063ec <dir_register+0x88>
 800645e:	f108 0801 	add.w	r8, r8, #1
 8006462:	45c3      	cmp	fp, r8
 8006464:	d1c7      	bne.n	80063f6 <dir_register+0x92>
 8006466:	9b01      	ldr	r3, [sp, #4]
 8006468:	e9dd ba02 	ldrd	fp, sl, [sp, #8]
 800646c:	2b00      	cmp	r3, #0
 800646e:	f040 82bc 	bne.w	80069ea <dir_register+0x686>
 8006472:	9b00      	ldr	r3, [sp, #0]
 8006474:	f8d9 101c 	ldr.w	r1, [r9, #28]
 8006478:	6b1b      	ldr	r3, [r3, #48]	; 0x30
 800647a:	4299      	cmp	r1, r3
 800647c:	d005      	beq.n	800648a <dir_register+0x126>
 800647e:	9800      	ldr	r0, [sp, #0]
 8006480:	f7fe fa8c 	bl	800499c <move_window.part.0>
 8006484:	2800      	cmp	r0, #0
 8006486:	f040 82ba 	bne.w	80069fe <dir_register+0x69a>
 800648a:	2220      	movs	r2, #32
 800648c:	2100      	movs	r1, #0
 800648e:	f8d9 0020 	ldr.w	r0, [r9, #32]
 8006492:	f005 fbe5 	bl	800bc60 <memset>
 8006496:	f8d9 3020 	ldr.w	r3, [r9, #32]
 800649a:	1d1a      	adds	r2, r3, #4
 800649c:	4592      	cmp	sl, r2
 800649e:	d204      	bcs.n	80064aa <dir_register+0x146>
 80064a0:	f109 0228 	add.w	r2, r9, #40	; 0x28
 80064a4:	4293      	cmp	r3, r2
 80064a6:	f0c0 8489 	bcc.w	8006dbc <dir_register+0xa58>
 80064aa:	f8d9 2024 	ldr.w	r2, [r9, #36]	; 0x24
 80064ae:	601a      	str	r2, [r3, #0]
 80064b0:	f8d9 2028 	ldr.w	r2, [r9, #40]	; 0x28
 80064b4:	605a      	str	r2, [r3, #4]
 80064b6:	f899 202c 	ldrb.w	r2, [r9, #44]	; 0x2c
 80064ba:	4658      	mov	r0, fp
 80064bc:	721a      	strb	r2, [r3, #8]
 80064be:	f899 202d 	ldrb.w	r2, [r9, #45]	; 0x2d
 80064c2:	725a      	strb	r2, [r3, #9]
 80064c4:	f899 202e 	ldrb.w	r2, [r9, #46]	; 0x2e
 80064c8:	729a      	strb	r2, [r3, #10]
 80064ca:	2201      	movs	r2, #1
 80064cc:	f899 302f 	ldrb.w	r3, [r9, #47]	; 0x2f
 80064d0:	f8d9 1020 	ldr.w	r1, [r9, #32]
 80064d4:	f003 0318 	and.w	r3, r3, #24
 80064d8:	730b      	strb	r3, [r1, #12]
 80064da:	9b00      	ldr	r3, [sp, #0]
 80064dc:	70da      	strb	r2, [r3, #3]
 80064de:	b011      	add	sp, #68	; 0x44
 80064e0:	e8bd 8ff0 	ldmia.w	sp!, {r4, r5, r6, r7, r8, r9, sl, fp, pc}
 80064e4:	f8bd 203c 	ldrh.w	r2, [sp, #60]	; 0x3c
 80064e8:	2340      	movs	r3, #64	; 0x40
 80064ea:	f89d 103a 	ldrb.w	r1, [sp, #58]	; 0x3a
 80064ee:	2701      	movs	r7, #1
 80064f0:	9201      	str	r2, [sp, #4]
 80064f2:	f04f 0820 	mov.w	r8, #32
 80064f6:	f89d 2034 	ldrb.w	r2, [sp, #52]	; 0x34
 80064fa:	468b      	mov	fp, r1
 80064fc:	f89d 003b 	ldrb.w	r0, [sp, #59]	; 0x3b
 8006500:	9204      	str	r2, [sp, #16]
 8006502:	f89d 2035 	ldrb.w	r2, [sp, #53]	; 0x35
 8006506:	9509      	str	r5, [sp, #36]	; 0x24
 8006508:	4605      	mov	r5, r0
 800650a:	9203      	str	r2, [sp, #12]
 800650c:	f89d 2036 	ldrb.w	r2, [sp, #54]	; 0x36
 8006510:	f89d 603e 	ldrb.w	r6, [sp, #62]	; 0x3e
 8006514:	9202      	str	r2, [sp, #8]
 8006516:	f89d 2037 	ldrb.w	r2, [sp, #55]	; 0x37
 800651a:	4c1d      	ldr	r4, [pc, #116]	; (8006590 <dir_register+0x22c>)
 800651c:	9207      	str	r2, [sp, #28]
 800651e:	f89d 2038 	ldrb.w	r2, [sp, #56]	; 0x38
 8006522:	f889 302f 	strb.w	r3, [r9, #47]	; 0x2f
 8006526:	9206      	str	r2, [sp, #24]
 8006528:	f89d 2039 	ldrb.w	r2, [sp, #57]	; 0x39
 800652c:	9205      	str	r2, [sp, #20]
 800652e:	4662      	mov	r2, ip
 8006530:	9801      	ldr	r0, [sp, #4]
 8006532:	2100      	movs	r1, #0
 8006534:	2f05      	cmp	r7, #5
 8006536:	f889 602e 	strb.w	r6, [r9, #46]	; 0x2e
 800653a:	f8a9 002c 	strh.w	r0, [r9, #44]	; 0x2c
 800653e:	460b      	mov	r3, r1
 8006540:	9804      	ldr	r0, [sp, #16]
 8006542:	f360 0107 	bfi	r1, r0, #0, #8
 8006546:	9806      	ldr	r0, [sp, #24]
 8006548:	f360 0307 	bfi	r3, r0, #0, #8
 800654c:	9803      	ldr	r0, [sp, #12]
 800654e:	f360 210f 	bfi	r1, r0, #8, #8
 8006552:	9805      	ldr	r0, [sp, #20]
 8006554:	f360 230f 	bfi	r3, r0, #8, #8
 8006558:	9802      	ldr	r0, [sp, #8]
 800655a:	f36b 4317 	bfi	r3, fp, #16, #8
 800655e:	f360 4117 	bfi	r1, r0, #16, #8
 8006562:	9807      	ldr	r0, [sp, #28]
 8006564:	f365 631f 	bfi	r3, r5, #24, #8
 8006568:	f360 611f 	bfi	r1, r0, #24, #8
 800656c:	e9c9 1309 	strd	r1, r3, [r9, #36]	; 0x24
 8006570:	f240 8158 	bls.w	8006824 <dir_register+0x4c0>
 8006574:	8813      	ldrh	r3, [r2, #0]
 8006576:	2b00      	cmp	r3, #0
 8006578:	f000 8154 	beq.w	8006824 <dir_register+0x4c0>
 800657c:	f003 0101 	and.w	r1, r3, #1
 8006580:	4694      	mov	ip, r2
 8006582:	0858      	lsrs	r0, r3, #1
 8006584:	eb01 0147 	add.w	r1, r1, r7, lsl #1
 8006588:	e00c      	b.n	80065a4 <dir_register+0x240>
 800658a:	bf00      	nop
 800658c:	4ec4ec4f 	.word	0x4ec4ec4f
 8006590:	00011021 	.word	0x00011021
 8006594:	f003 0101 	and.w	r1, r3, #1
 8006598:	0858      	lsrs	r0, r3, #1
 800659a:	eb01 0142 	add.w	r1, r1, r2, lsl #1
 800659e:	0412      	lsls	r2, r2, #16
 80065a0:	bf48      	it	mi
 80065a2:	4061      	eormi	r1, r4
 80065a4:	f000 0001 	and.w	r0, r0, #1
 80065a8:	089a      	lsrs	r2, r3, #2
 80065aa:	eb00 0041 	add.w	r0, r0, r1, lsl #1
 80065ae:	0409      	lsls	r1, r1, #16
 80065b0:	f002 0101 	and.w	r1, r2, #1
 80065b4:	ea4f 02d3 	mov.w	r2, r3, lsr #3
 80065b8:	bf48      	it	mi
 80065ba:	4060      	eormi	r0, r4
 80065bc:	f002 0201 	and.w	r2, r2, #1
 80065c0:	eb01 0140 	add.w	r1, r1, r0, lsl #1
 80065c4:	0400      	lsls	r0, r0, #16
 80065c6:	ea4f 1013 	mov.w	r0, r3, lsr #4
 80065ca:	bf48      	it	mi
 80065cc:	4061      	eormi	r1, r4
 80065ce:	f000 0001 	and.w	r0, r0, #1
 80065d2:	eb02 0241 	add.w	r2, r2, r1, lsl #1
 80065d6:	0409      	lsls	r1, r1, #16
 80065d8:	ea4f 1153 	mov.w	r1, r3, lsr #5
 80065dc:	bf48      	it	mi
 80065de:	4062      	eormi	r2, r4
 80065e0:	f001 0101 	and.w	r1, r1, #1
 80065e4:	eb00 0042 	add.w	r0, r0, r2, lsl #1
 80065e8:	0412      	lsls	r2, r2, #16
 80065ea:	ea4f 1293 	mov.w	r2, r3, lsr #6
 80065ee:	bf48      	it	mi
 80065f0:	4060      	eormi	r0, r4
 80065f2:	f002 0201 	and.w	r2, r2, #1
 80065f6:	eb01 0140 	add.w	r1, r1, r0, lsl #1
 80065fa:	0400      	lsls	r0, r0, #16
 80065fc:	ea4f 10d3 	mov.w	r0, r3, lsr #7
 8006600:	bf48      	it	mi
 8006602:	4061      	eormi	r1, r4
 8006604:	f000 0001 	and.w	r0, r0, #1
 8006608:	eb02 0241 	add.w	r2, r2, r1, lsl #1
 800660c:	0409      	lsls	r1, r1, #16
 800660e:	ea4f 2113 	mov.w	r1, r3, lsr #8
 8006612:	bf48      	it	mi
 8006614:	4062      	eormi	r2, r4
 8006616:	f001 0101 	and.w	r1, r1, #1
 800661a:	eb00 0042 	add.w	r0, r0, r2, lsl #1
 800661e:	0412      	lsls	r2, r2, #16
 8006620:	ea4f 2253 	mov.w	r2, r3, lsr #9
 8006624:	bf48      	it	mi
 8006626:	4060      	eormi	r0, r4
 8006628:	f002 0201 	and.w	r2, r2, #1
 800662c:	eb01 0140 	add.w	r1, r1, r0, lsl #1
 8006630:	0400      	lsls	r0, r0, #16
 8006632:	ea4f 2093 	mov.w	r0, r3, lsr #10
 8006636:	bf48      	it	mi
 8006638:	4061      	eormi	r1, r4
 800663a:	f000 0001 	and.w	r0, r0, #1
 800663e:	eb02 0241 	add.w	r2, r2, r1, lsl #1
 8006642:	0409      	lsls	r1, r1, #16
 8006644:	ea4f 21d3 	mov.w	r1, r3, lsr #11
 8006648:	bf48      	it	mi
 800664a:	4062      	eormi	r2, r4
 800664c:	f001 0101 	and.w	r1, r1, #1
 8006650:	eb00 0042 	add.w	r0, r0, r2, lsl #1
 8006654:	0412      	lsls	r2, r2, #16
 8006656:	ea4f 3213 	mov.w	r2, r3, lsr #12
 800665a:	bf48      	it	mi
 800665c:	4060      	eormi	r0, r4
 800665e:	f002 0201 	and.w	r2, r2, #1
 8006662:	eb01 0140 	add.w	r1, r1, r0, lsl #1
 8006666:	0400      	lsls	r0, r0, #16
 8006668:	ea4f 3053 	mov.w	r0, r3, lsr #13
 800666c:	bf48      	it	mi
 800666e:	4061      	eormi	r1, r4
 8006670:	f000 0001 	and.w	r0, r0, #1
 8006674:	eb02 0241 	add.w	r2, r2, r1, lsl #1
 8006678:	0409      	lsls	r1, r1, #16
 800667a:	ea4f 3193 	mov.w	r1, r3, lsr #14
 800667e:	bf48      	it	mi
 8006680:	4062      	eormi	r2, r4
 8006682:	0bdb      	lsrs	r3, r3, #15
 8006684:	f001 0101 	and.w	r1, r1, #1
 8006688:	eb00 0042 	add.w	r0, r0, r2, lsl #1
 800668c:	0412      	lsls	r2, r2, #16
 800668e:	bf48      	it	mi
 8006690:	4060      	eormi	r0, r4
 8006692:	eb01 0140 	add.w	r1, r1, r0, lsl #1
 8006696:	0400      	lsls	r0, r0, #16
 8006698:	bf48      	it	mi
 800669a:	4061      	eormi	r1, r4
 800669c:	eb03 0241 	add.w	r2, r3, r1, lsl #1
 80066a0:	0409      	lsls	r1, r1, #16
 80066a2:	f83c 3f02 	ldrh.w	r3, [ip, #2]!
 80066a6:	bf48      	it	mi
 80066a8:	4062      	eormi	r2, r4
 80066aa:	2b00      	cmp	r3, #0
 80066ac:	f47f af72 	bne.w	8006594 <dir_register+0x230>
 80066b0:	f002 010f 	and.w	r1, r2, #15
 80066b4:	f101 0330 	add.w	r3, r1, #48	; 0x30
 80066b8:	2b39      	cmp	r3, #57	; 0x39
 80066ba:	bf88      	it	hi
 80066bc:	f101 0337 	addhi.w	r3, r1, #55	; 0x37
 80066c0:	2a0f      	cmp	r2, #15
 80066c2:	ea4f 1112 	mov.w	r1, r2, lsr #4
 80066c6:	f88d 3033 	strb.w	r3, [sp, #51]	; 0x33
 80066ca:	f240 8144 	bls.w	8006956 <dir_register+0x5f2>
 80066ce:	f001 000f 	and.w	r0, r1, #15
 80066d2:	f100 0330 	add.w	r3, r0, #48	; 0x30
 80066d6:	2b39      	cmp	r3, #57	; 0x39
 80066d8:	bf88      	it	hi
 80066da:	f100 0337 	addhi.w	r3, r0, #55	; 0x37
 80066de:	290f      	cmp	r1, #15
 80066e0:	ea4f 2012 	mov.w	r0, r2, lsr #8
 80066e4:	f88d 3032 	strb.w	r3, [sp, #50]	; 0x32
 80066e8:	f240 813a 	bls.w	8006960 <dir_register+0x5fc>
 80066ec:	f000 010f 	and.w	r1, r0, #15
 80066f0:	f101 0330 	add.w	r3, r1, #48	; 0x30
 80066f4:	2b39      	cmp	r3, #57	; 0x39
 80066f6:	bf88      	it	hi
 80066f8:	f101 0337 	addhi.w	r3, r1, #55	; 0x37
 80066fc:	280f      	cmp	r0, #15
 80066fe:	ea4f 3112 	mov.w	r1, r2, lsr #12
 8006702:	f88d 3031 	strb.w	r3, [sp, #49]	; 0x31
 8006706:	f240 8130 	bls.w	800696a <dir_register+0x606>
 800670a:	f001 000f 	and.w	r0, r1, #15
 800670e:	f100 0330 	add.w	r3, r0, #48	; 0x30
 8006712:	2b39      	cmp	r3, #57	; 0x39
 8006714:	bf88      	it	hi
 8006716:	f100 0337 	addhi.w	r3, r0, #55	; 0x37
 800671a:	290f      	cmp	r1, #15
 800671c:	ea4f 4012 	mov.w	r0, r2, lsr #16
 8006720:	f88d 3030 	strb.w	r3, [sp, #48]	; 0x30
 8006724:	f240 8126 	bls.w	8006974 <dir_register+0x610>
 8006728:	f000 010f 	and.w	r1, r0, #15
 800672c:	f101 0330 	add.w	r3, r1, #48	; 0x30
 8006730:	2b39      	cmp	r3, #57	; 0x39
 8006732:	bf88      	it	hi
 8006734:	f101 0337 	addhi.w	r3, r1, #55	; 0x37
 8006738:	280f      	cmp	r0, #15
 800673a:	ea4f 5112 	mov.w	r1, r2, lsr #20
 800673e:	f88d 302f 	strb.w	r3, [sp, #47]	; 0x2f
 8006742:	f240 8142 	bls.w	80069ca <dir_register+0x666>
 8006746:	f001 000f 	and.w	r0, r1, #15
 800674a:	f100 0330 	add.w	r3, r0, #48	; 0x30
 800674e:	2b39      	cmp	r3, #57	; 0x39
 8006750:	bf88      	it	hi
 8006752:	f100 0337 	addhi.w	r3, r0, #55	; 0x37
 8006756:	290f      	cmp	r1, #15
 8006758:	ea4f 6012 	mov.w	r0, r2, lsr #24
 800675c:	f88d 302e 	strb.w	r3, [sp, #46]	; 0x2e
 8006760:	f240 8138 	bls.w	80069d4 <dir_register+0x670>
 8006764:	f000 010f 	and.w	r1, r0, #15
 8006768:	0f12      	lsrs	r2, r2, #28
 800676a:	f101 0330 	add.w	r3, r1, #48	; 0x30
 800676e:	2b39      	cmp	r3, #57	; 0x39
 8006770:	bf88      	it	hi
 8006772:	f101 0337 	addhi.w	r3, r1, #55	; 0x37
 8006776:	280f      	cmp	r0, #15
 8006778:	f88d 302d 	strb.w	r3, [sp, #45]	; 0x2d
 800677c:	d954      	bls.n	8006828 <dir_register+0x4c4>
 800677e:	f102 0330 	add.w	r3, r2, #48	; 0x30
 8006782:	b2d2      	uxtb	r2, r2
 8006784:	2b39      	cmp	r3, #57	; 0x39
 8006786:	bf88      	it	hi
 8006788:	f102 0337 	addhi.w	r3, r2, #55	; 0x37
 800678c:	f04f 32ff 	mov.w	r2, #4294967295
 8006790:	f88d 302c 	strb.w	r3, [sp, #44]	; 0x2c
 8006794:	f109 0123 	add.w	r1, r9, #35	; 0x23
 8006798:	2300      	movs	r3, #0
 800679a:	e002      	b.n	80067a2 <dir_register+0x43e>
 800679c:	3301      	adds	r3, #1
 800679e:	4293      	cmp	r3, r2
 80067a0:	d003      	beq.n	80067aa <dir_register+0x446>
 80067a2:	f811 0f01 	ldrb.w	r0, [r1, #1]!
 80067a6:	2820      	cmp	r0, #32
 80067a8:	d1f8      	bne.n	800679c <dir_register+0x438>
 80067aa:	2a07      	cmp	r2, #7
 80067ac:	d941      	bls.n	8006832 <dir_register+0x4ce>
 80067ae:	1c59      	adds	r1, r3, #1
 80067b0:	f80a 8003 	strb.w	r8, [sl, r3]
 80067b4:	2907      	cmp	r1, #7
 80067b6:	d829      	bhi.n	800680c <dir_register+0x4a8>
 80067b8:	2907      	cmp	r1, #7
 80067ba:	f101 0001 	add.w	r0, r1, #1
 80067be:	f80a 8001 	strb.w	r8, [sl, r1]
 80067c2:	d023      	beq.n	800680c <dir_register+0x4a8>
 80067c4:	2807      	cmp	r0, #7
 80067c6:	f100 0101 	add.w	r1, r0, #1
 80067ca:	f80a 8000 	strb.w	r8, [sl, r0]
 80067ce:	d01d      	beq.n	800680c <dir_register+0x4a8>
 80067d0:	2907      	cmp	r1, #7
 80067d2:	f101 0001 	add.w	r0, r1, #1
 80067d6:	f80a 8001 	strb.w	r8, [sl, r1]
 80067da:	d017      	beq.n	800680c <dir_register+0x4a8>
 80067dc:	2807      	cmp	r0, #7
 80067de:	f100 0101 	add.w	r1, r0, #1
 80067e2:	f80a 8000 	strb.w	r8, [sl, r0]
 80067e6:	d011      	beq.n	800680c <dir_register+0x4a8>
 80067e8:	2907      	cmp	r1, #7
 80067ea:	f101 0001 	add.w	r0, r1, #1
 80067ee:	f80a 8001 	strb.w	r8, [sl, r1]
 80067f2:	d00b      	beq.n	800680c <dir_register+0x4a8>
 80067f4:	2807      	cmp	r0, #7
 80067f6:	f100 0101 	add.w	r1, r0, #1
 80067fa:	f80a 8000 	strb.w	r8, [sl, r0]
 80067fe:	d005      	beq.n	800680c <dir_register+0x4a8>
 8006800:	2906      	cmp	r1, #6
 8006802:	f80a 8001 	strb.w	r8, [sl, r1]
 8006806:	d101      	bne.n	800680c <dir_register+0x4a8>
 8006808:	f889 802b 	strb.w	r8, [r9, #43]	; 0x2b
 800680c:	4648      	mov	r0, r9
 800680e:	f7ff f9af 	bl	8005b70 <dir_find>
 8006812:	2800      	cmp	r0, #0
 8006814:	d17e      	bne.n	8006914 <dir_register+0x5b0>
 8006816:	3701      	adds	r7, #1
 8006818:	2f64      	cmp	r7, #100	; 0x64
 800681a:	f000 8096 	beq.w	800694a <dir_register+0x5e6>
 800681e:	9b00      	ldr	r3, [sp, #0]
 8006820:	68da      	ldr	r2, [r3, #12]
 8006822:	e685      	b.n	8006530 <dir_register+0x1cc>
 8006824:	463a      	mov	r2, r7
 8006826:	e743      	b.n	80066b0 <dir_register+0x34c>
 8006828:	237e      	movs	r3, #126	; 0x7e
 800682a:	2200      	movs	r2, #0
 800682c:	f88d 302c 	strb.w	r3, [sp, #44]	; 0x2c
 8006830:	4613      	mov	r3, r2
 8006832:	f10d 0c40 	add.w	ip, sp, #64	; 0x40
 8006836:	1c59      	adds	r1, r3, #1
 8006838:	1c50      	adds	r0, r2, #1
 800683a:	4494      	add	ip, r2
 800683c:	2907      	cmp	r1, #7
 800683e:	f81c cc14 	ldrb.w	ip, [ip, #-20]
 8006842:	f80a c003 	strb.w	ip, [sl, r3]
 8006846:	d8e1      	bhi.n	800680c <dir_register+0x4a8>
 8006848:	2807      	cmp	r0, #7
 800684a:	d8b5      	bhi.n	80067b8 <dir_register+0x454>
 800684c:	f10d 0c40 	add.w	ip, sp, #64	; 0x40
 8006850:	2b06      	cmp	r3, #6
 8006852:	4460      	add	r0, ip
 8006854:	f102 0c02 	add.w	ip, r2, #2
 8006858:	f810 ec14 	ldrb.w	lr, [r0, #-20]
 800685c:	f103 0002 	add.w	r0, r3, #2
 8006860:	f80a e001 	strb.w	lr, [sl, r1]
 8006864:	d0d2      	beq.n	800680c <dir_register+0x4a8>
 8006866:	f1bc 0f08 	cmp.w	ip, #8
 800686a:	d0ab      	beq.n	80067c4 <dir_register+0x460>
 800686c:	a910      	add	r1, sp, #64	; 0x40
 800686e:	2b05      	cmp	r3, #5
 8006870:	f102 0e03 	add.w	lr, r2, #3
 8006874:	448c      	add	ip, r1
 8006876:	f103 0103 	add.w	r1, r3, #3
 800687a:	f81c cc14 	ldrb.w	ip, [ip, #-20]
 800687e:	f80a c000 	strb.w	ip, [sl, r0]
 8006882:	d0c3      	beq.n	800680c <dir_register+0x4a8>
 8006884:	f1be 0f07 	cmp.w	lr, #7
 8006888:	d8a2      	bhi.n	80067d0 <dir_register+0x46c>
 800688a:	a810      	add	r0, sp, #64	; 0x40
 800688c:	2b04      	cmp	r3, #4
 800688e:	f102 0c04 	add.w	ip, r2, #4
 8006892:	4486      	add	lr, r0
 8006894:	f103 0004 	add.w	r0, r3, #4
 8006898:	f81e ec14 	ldrb.w	lr, [lr, #-20]
 800689c:	f80a e001 	strb.w	lr, [sl, r1]
 80068a0:	d0b4      	beq.n	800680c <dir_register+0x4a8>
 80068a2:	f1bc 0f08 	cmp.w	ip, #8
 80068a6:	d099      	beq.n	80067dc <dir_register+0x478>
 80068a8:	a910      	add	r1, sp, #64	; 0x40
 80068aa:	2b03      	cmp	r3, #3
 80068ac:	f102 0e05 	add.w	lr, r2, #5
 80068b0:	448c      	add	ip, r1
 80068b2:	f103 0105 	add.w	r1, r3, #5
 80068b6:	f81c cc14 	ldrb.w	ip, [ip, #-20]
 80068ba:	f80a c000 	strb.w	ip, [sl, r0]
 80068be:	d0a5      	beq.n	800680c <dir_register+0x4a8>
 80068c0:	f1be 0f07 	cmp.w	lr, #7
 80068c4:	d890      	bhi.n	80067e8 <dir_register+0x484>
 80068c6:	a810      	add	r0, sp, #64	; 0x40
 80068c8:	2b02      	cmp	r3, #2
 80068ca:	f102 0c06 	add.w	ip, r2, #6
 80068ce:	4486      	add	lr, r0
 80068d0:	f103 0006 	add.w	r0, r3, #6
 80068d4:	f81e ec14 	ldrb.w	lr, [lr, #-20]
 80068d8:	f80a e001 	strb.w	lr, [sl, r1]
 80068dc:	d096      	beq.n	800680c <dir_register+0x4a8>
 80068de:	f1bc 0f08 	cmp.w	ip, #8
 80068e2:	d087      	beq.n	80067f4 <dir_register+0x490>
 80068e4:	a910      	add	r1, sp, #64	; 0x40
 80068e6:	2b01      	cmp	r3, #1
 80068e8:	448c      	add	ip, r1
 80068ea:	f103 0107 	add.w	r1, r3, #7
 80068ee:	f81c cc14 	ldrb.w	ip, [ip, #-20]
 80068f2:	f80a c000 	strb.w	ip, [sl, r0]
 80068f6:	d089      	beq.n	800680c <dir_register+0x4a8>
 80068f8:	2a00      	cmp	r2, #0
 80068fa:	d181      	bne.n	8006800 <dir_register+0x49c>
 80068fc:	f89d 3033 	ldrb.w	r3, [sp, #51]	; 0x33
 8006900:	2906      	cmp	r1, #6
 8006902:	f80a 3001 	strb.w	r3, [sl, r1]
 8006906:	f43f af7f 	beq.w	8006808 <dir_register+0x4a4>
 800690a:	4648      	mov	r0, r9
 800690c:	f7ff f930 	bl	8005b70 <dir_find>
 8006910:	2800      	cmp	r0, #0
 8006912:	d080      	beq.n	8006816 <dir_register+0x4b2>
 8006914:	2804      	cmp	r0, #4
 8006916:	9d09      	ldr	r5, [sp, #36]	; 0x24
 8006918:	4683      	mov	fp, r0
 800691a:	d118      	bne.n	800694e <dir_register+0x5ea>
 800691c:	9b08      	ldr	r3, [sp, #32]
 800691e:	f8d9 7000 	ldr.w	r7, [r9]
 8006922:	f889 302f 	strb.w	r3, [r9, #47]	; 0x2f
 8006926:	f013 0302 	ands.w	r3, r3, #2
 800692a:	f47f ad46 	bne.w	80063ba <dir_register+0x56>
 800692e:	9301      	str	r3, [sp, #4]
 8006930:	2301      	movs	r3, #1
 8006932:	2100      	movs	r1, #0
 8006934:	4648      	mov	r0, r9
 8006936:	461c      	mov	r4, r3
 8006938:	f7fe ffba 	bl	80058b0 <dir_sdi>
 800693c:	4683      	mov	fp, r0
 800693e:	2800      	cmp	r0, #0
 8006940:	f43f ad4b 	beq.w	80063da <dir_register+0x76>
 8006944:	f1bb 0f04 	cmp.w	fp, #4
 8006948:	d101      	bne.n	800694e <dir_register+0x5ea>
 800694a:	f04f 0b07 	mov.w	fp, #7
 800694e:	4658      	mov	r0, fp
 8006950:	b011      	add	sp, #68	; 0x44
 8006952:	e8bd 8ff0 	ldmia.w	sp!, {r4, r5, r6, r7, r8, r9, sl, fp, pc}
 8006956:	237e      	movs	r3, #126	; 0x7e
 8006958:	2206      	movs	r2, #6
 800695a:	f88d 3032 	strb.w	r3, [sp, #50]	; 0x32
 800695e:	e719      	b.n	8006794 <dir_register+0x430>
 8006960:	237e      	movs	r3, #126	; 0x7e
 8006962:	2205      	movs	r2, #5
 8006964:	f88d 3031 	strb.w	r3, [sp, #49]	; 0x31
 8006968:	e714      	b.n	8006794 <dir_register+0x430>
 800696a:	237e      	movs	r3, #126	; 0x7e
 800696c:	2204      	movs	r2, #4
 800696e:	f88d 3030 	strb.w	r3, [sp, #48]	; 0x30
 8006972:	e70f      	b.n	8006794 <dir_register+0x430>
 8006974:	237e      	movs	r3, #126	; 0x7e
 8006976:	2203      	movs	r2, #3
 8006978:	f88d 302f 	strb.w	r3, [sp, #47]	; 0x2f
 800697c:	e70a      	b.n	8006794 <dir_register+0x430>
 800697e:	8972      	ldrh	r2, [r6, #10]
 8006980:	3a01      	subs	r2, #1
 8006982:	ea12 2254 	ands.w	r2, r2, r4, lsr #9
 8006986:	f47f ad54 	bne.w	8006432 <dir_register+0xce>
 800698a:	4619      	mov	r1, r3
 800698c:	4630      	mov	r0, r6
 800698e:	f7fe f8dd 	bl	8004b4c <get_fat.isra.0>
 8006992:	2801      	cmp	r0, #1
 8006994:	9004      	str	r0, [sp, #16]
 8006996:	f240 822b 	bls.w	8006df0 <dir_register+0xa8c>
 800699a:	1c42      	adds	r2, r0, #1
 800699c:	d034      	beq.n	8006a08 <dir_register+0x6a4>
 800699e:	69b3      	ldr	r3, [r6, #24]
 80069a0:	4298      	cmp	r0, r3
 80069a2:	d23e      	bcs.n	8006a22 <dir_register+0x6be>
 80069a4:	1e82      	subs	r2, r0, #2
 80069a6:	3b02      	subs	r3, #2
 80069a8:	f106 0534 	add.w	r5, r6, #52	; 0x34
 80069ac:	9205      	str	r2, [sp, #20]
 80069ae:	9a04      	ldr	r2, [sp, #16]
 80069b0:	f8c9 2018 	str.w	r2, [r9, #24]
 80069b4:	9a05      	ldr	r2, [sp, #20]
 80069b6:	4293      	cmp	r3, r2
 80069b8:	f240 81fe 	bls.w	8006db8 <dir_register+0xa54>
 80069bc:	8971      	ldrh	r1, [r6, #10]
 80069be:	6af3      	ldr	r3, [r6, #44]	; 0x2c
 80069c0:	fb02 3101 	mla	r1, r2, r1, r3
 80069c4:	f8c9 101c 	str.w	r1, [r9, #28]
 80069c8:	e535      	b.n	8006436 <dir_register+0xd2>
 80069ca:	237e      	movs	r3, #126	; 0x7e
 80069cc:	2202      	movs	r2, #2
 80069ce:	f88d 302e 	strb.w	r3, [sp, #46]	; 0x2e
 80069d2:	e6df      	b.n	8006794 <dir_register+0x430>
 80069d4:	237e      	movs	r3, #126	; 0x7e
 80069d6:	2201      	movs	r2, #1
 80069d8:	f88d 302d 	strb.w	r3, [sp, #45]	; 0x2d
 80069dc:	e6da      	b.n	8006794 <dir_register+0x430>
 80069de:	f04f 0b06 	mov.w	fp, #6
 80069e2:	4658      	mov	r0, fp
 80069e4:	b011      	add	sp, #68	; 0x44
 80069e6:	e8bd 8ff0 	ldmia.w	sp!, {r4, r5, r6, r7, r8, r9, sl, fp, pc}
 80069ea:	f8d9 1014 	ldr.w	r1, [r9, #20]
 80069ee:	4648      	mov	r0, r9
 80069f0:	461e      	mov	r6, r3
 80069f2:	eba1 1143 	sub.w	r1, r1, r3, lsl #5
 80069f6:	f7fe ff5b 	bl	80058b0 <dir_sdi>
 80069fa:	2800      	cmp	r0, #0
 80069fc:	d074      	beq.n	8006ae8 <dir_register+0x784>
 80069fe:	4683      	mov	fp, r0
 8006a00:	4658      	mov	r0, fp
 8006a02:	b011      	add	sp, #68	; 0x44
 8006a04:	e8bd 8ff0 	ldmia.w	sp!, {r4, r5, r6, r7, r8, r9, sl, fp, pc}
 8006a08:	f04f 0b01 	mov.w	fp, #1
 8006a0c:	4658      	mov	r0, fp
 8006a0e:	b011      	add	sp, #68	; 0x44
 8006a10:	e8bd 8ff0 	ldmia.w	sp!, {r4, r5, r6, r7, r8, r9, sl, fp, pc}
 8006a14:	f8c9 301c 	str.w	r3, [r9, #28]
 8006a18:	e797      	b.n	800694a <dir_register+0x5e6>
 8006a1a:	461d      	mov	r5, r3
 8006a1c:	e4bb      	b.n	8006396 <dir_register+0x32>
 8006a1e:	4683      	mov	fp, r0
 8006a20:	e790      	b.n	8006944 <dir_register+0x5e0>
 8006a22:	f8d9 1018 	ldr.w	r1, [r9, #24]
 8006a26:	4648      	mov	r0, r9
 8006a28:	f7fe fc22 	bl	8005270 <create_chain>
 8006a2c:	4603      	mov	r3, r0
 8006a2e:	9004      	str	r0, [sp, #16]
 8006a30:	2800      	cmp	r0, #0
 8006a32:	d08a      	beq.n	800694a <dir_register+0x5e6>
 8006a34:	2801      	cmp	r0, #1
 8006a36:	f000 81db 	beq.w	8006df0 <dir_register+0xa8c>
 8006a3a:	3301      	adds	r3, #1
 8006a3c:	d0e4      	beq.n	8006a08 <dir_register+0x6a4>
 8006a3e:	78f3      	ldrb	r3, [r6, #3]
 8006a40:	2b00      	cmp	r3, #0
 8006a42:	f040 81e7 	bne.w	8006e14 <dir_register+0xab0>
 8006a46:	f106 0534 	add.w	r5, r6, #52	; 0x34
 8006a4a:	9b04      	ldr	r3, [sp, #16]
 8006a4c:	f44f 7200 	mov.w	r2, #512	; 0x200
 8006a50:	2100      	movs	r1, #0
 8006a52:	4628      	mov	r0, r5
 8006a54:	3b02      	subs	r3, #2
 8006a56:	9305      	str	r3, [sp, #20]
 8006a58:	f005 f902 	bl	800bc60 <memset>
 8006a5c:	69b3      	ldr	r3, [r6, #24]
 8006a5e:	9a05      	ldr	r2, [sp, #20]
 8006a60:	3b02      	subs	r3, #2
 8006a62:	429a      	cmp	r2, r3
 8006a64:	f080 8203 	bcs.w	8006e6e <dir_register+0xb0a>
 8006a68:	4610      	mov	r0, r2
 8006a6a:	8971      	ldrh	r1, [r6, #10]
 8006a6c:	6af2      	ldr	r2, [r6, #44]	; 0x2c
 8006a6e:	fb00 2201 	mla	r2, r0, r1, r2
 8006a72:	6332      	str	r2, [r6, #48]	; 0x30
 8006a74:	2900      	cmp	r1, #0
 8006a76:	f000 81cb 	beq.w	8006e10 <dir_register+0xaac>
 8006a7a:	2300      	movs	r3, #0
 8006a7c:	9708      	str	r7, [sp, #32]
 8006a7e:	462f      	mov	r7, r5
 8006a80:	4615      	mov	r5, r2
 8006a82:	e9cd b406 	strd	fp, r4, [sp, #24]
 8006a86:	461c      	mov	r4, r3
 8006a88:	f04f 0301 	mov.w	r3, #1
 8006a8c:	462a      	mov	r2, r5
 8006a8e:	4639      	mov	r1, r7
 8006a90:	7870      	ldrb	r0, [r6, #1]
 8006a92:	70f3      	strb	r3, [r6, #3]
 8006a94:	2301      	movs	r3, #1
 8006a96:	f7fd fedf 	bl	8004858 <disk_write>
 8006a9a:	2800      	cmp	r0, #0
 8006a9c:	d1b4      	bne.n	8006a08 <dir_register+0x6a4>
 8006a9e:	6a72      	ldr	r2, [r6, #36]	; 0x24
 8006aa0:	69f3      	ldr	r3, [r6, #28]
 8006aa2:	eba5 0c02 	sub.w	ip, r5, r2
 8006aa6:	70f0      	strb	r0, [r6, #3]
 8006aa8:	459c      	cmp	ip, r3
 8006aaa:	d212      	bcs.n	8006ad2 <dir_register+0x76e>
 8006aac:	f896 b002 	ldrb.w	fp, [r6, #2]
 8006ab0:	f1bb 0f01 	cmp.w	fp, #1
 8006ab4:	d801      	bhi.n	8006aba <dir_register+0x756>
 8006ab6:	e00c      	b.n	8006ad2 <dir_register+0x76e>
 8006ab8:	69f3      	ldr	r3, [r6, #28]
 8006aba:	441d      	add	r5, r3
 8006abc:	f10b 3bff 	add.w	fp, fp, #4294967295
 8006ac0:	2301      	movs	r3, #1
 8006ac2:	4639      	mov	r1, r7
 8006ac4:	462a      	mov	r2, r5
 8006ac6:	7870      	ldrb	r0, [r6, #1]
 8006ac8:	f7fd fec6 	bl	8004858 <disk_write>
 8006acc:	f1bb 0f01 	cmp.w	fp, #1
 8006ad0:	d1f2      	bne.n	8006ab8 <dir_register+0x754>
 8006ad2:	6b30      	ldr	r0, [r6, #48]	; 0x30
 8006ad4:	1c63      	adds	r3, r4, #1
 8006ad6:	f8b6 c00a 	ldrh.w	ip, [r6, #10]
 8006ada:	1c45      	adds	r5, r0, #1
 8006adc:	4563      	cmp	r3, ip
 8006ade:	6335      	str	r5, [r6, #48]	; 0x30
 8006ae0:	f080 818d 	bcs.w	8006dfe <dir_register+0xa9a>
 8006ae4:	461c      	mov	r4, r3
 8006ae6:	e7cf      	b.n	8006a88 <dir_register+0x724>
 8006ae8:	f899 2024 	ldrb.w	r2, [r9, #36]	; 0x24
 8006aec:	4604      	mov	r4, r0
 8006aee:	f899 1025 	ldrb.w	r1, [r9, #37]	; 0x25
 8006af2:	01d3      	lsls	r3, r2, #7
 8006af4:	f899 5026 	ldrb.w	r5, [r9, #38]	; 0x26
 8006af8:	f899 0027 	ldrb.w	r0, [r9, #39]	; 0x27
 8006afc:	ea43 0352 	orr.w	r3, r3, r2, lsr #1
 8006b00:	9f00      	ldr	r7, [sp, #0]
 8006b02:	185a      	adds	r2, r3, r1
 8006b04:	f899 1028 	ldrb.w	r1, [r9, #40]	; 0x28
 8006b08:	f3c2 0346 	ubfx	r3, r2, #1, #7
 8006b0c:	ea43 13c2 	orr.w	r3, r3, r2, lsl #7
 8006b10:	fa55 f283 	uxtab	r2, r5, r3
 8006b14:	f899 5029 	ldrb.w	r5, [r9, #41]	; 0x29
 8006b18:	f3c2 0346 	ubfx	r3, r2, #1, #7
 8006b1c:	ea43 13c2 	orr.w	r3, r3, r2, lsl #7
 8006b20:	fa50 f283 	uxtab	r2, r0, r3
 8006b24:	f899 002a 	ldrb.w	r0, [r9, #42]	; 0x2a
 8006b28:	f3c2 0346 	ubfx	r3, r2, #1, #7
 8006b2c:	ea43 13c2 	orr.w	r3, r3, r2, lsl #7
 8006b30:	fa51 f283 	uxtab	r2, r1, r3
 8006b34:	f899 102b 	ldrb.w	r1, [r9, #43]	; 0x2b
 8006b38:	f3c2 0346 	ubfx	r3, r2, #1, #7
 8006b3c:	ea43 13c2 	orr.w	r3, r3, r2, lsl #7
 8006b40:	fa55 f283 	uxtab	r2, r5, r3
 8006b44:	f899 502c 	ldrb.w	r5, [r9, #44]	; 0x2c
 8006b48:	f3c2 0346 	ubfx	r3, r2, #1, #7
 8006b4c:	ea43 13c2 	orr.w	r3, r3, r2, lsl #7
 8006b50:	fa50 f283 	uxtab	r2, r0, r3
 8006b54:	f899 002d 	ldrb.w	r0, [r9, #45]	; 0x2d
 8006b58:	f3c2 0346 	ubfx	r3, r2, #1, #7
 8006b5c:	ea43 13c2 	orr.w	r3, r3, r2, lsl #7
 8006b60:	fa51 f283 	uxtab	r2, r1, r3
 8006b64:	f899 102e 	ldrb.w	r1, [r9, #46]	; 0x2e
 8006b68:	f3c2 0346 	ubfx	r3, r2, #1, #7
 8006b6c:	ea43 13c2 	orr.w	r3, r3, r2, lsl #7
 8006b70:	fa55 f283 	uxtab	r2, r5, r3
 8006b74:	25ff      	movs	r5, #255	; 0xff
 8006b76:	f3c2 0346 	ubfx	r3, r2, #1, #7
 8006b7a:	ea43 13c2 	orr.w	r3, r3, r2, lsl #7
 8006b7e:	fa50 f383 	uxtab	r3, r0, r3
 8006b82:	f3c3 0246 	ubfx	r2, r3, #1, #7
 8006b86:	ea42 13c3 	orr.w	r3, r2, r3, lsl #7
 8006b8a:	fa51 f183 	uxtab	r1, r1, r3
 8006b8e:	e9cd ba01 	strd	fp, sl, [sp, #4]
 8006b92:	fa5f f881 	uxtb.w	r8, r1
 8006b96:	e025      	b.n	8006be4 <dir_register+0x880>
 8006b98:	70dd      	strb	r5, [r3, #3]
 8006b9a:	711d      	strb	r5, [r3, #4]
 8006b9c:	715d      	strb	r5, [r3, #5]
 8006b9e:	719d      	strb	r5, [r3, #6]
 8006ba0:	71dd      	strb	r5, [r3, #7]
 8006ba2:	721d      	strb	r5, [r3, #8]
 8006ba4:	725d      	strb	r5, [r3, #9]
 8006ba6:	729d      	strb	r5, [r3, #10]
 8006ba8:	739d      	strb	r5, [r3, #14]
 8006baa:	73dd      	strb	r5, [r3, #15]
 8006bac:	741d      	strb	r5, [r3, #16]
 8006bae:	745d      	strb	r5, [r3, #17]
 8006bb0:	749d      	strb	r5, [r3, #18]
 8006bb2:	74dd      	strb	r5, [r3, #19]
 8006bb4:	751d      	strb	r5, [r3, #20]
 8006bb6:	755d      	strb	r5, [r3, #21]
 8006bb8:	759d      	strb	r5, [r3, #22]
 8006bba:	75dd      	strb	r5, [r3, #23]
 8006bbc:	761d      	strb	r5, [r3, #24]
 8006bbe:	765d      	strb	r5, [r3, #25]
 8006bc0:	771d      	strb	r5, [r3, #28]
 8006bc2:	775d      	strb	r5, [r3, #29]
 8006bc4:	779d      	strb	r5, [r3, #30]
 8006bc6:	77dd      	strb	r5, [r3, #31]
 8006bc8:	f040 0040 	orr.w	r0, r0, #64	; 0x40
 8006bcc:	2201      	movs	r2, #1
 8006bce:	7018      	strb	r0, [r3, #0]
 8006bd0:	4648      	mov	r0, r9
 8006bd2:	70fa      	strb	r2, [r7, #3]
 8006bd4:	f7fe f826 	bl	8004c24 <dir_next.constprop.0>
 8006bd8:	2800      	cmp	r0, #0
 8006bda:	f47f af10 	bne.w	80069fe <dir_register+0x69a>
 8006bde:	3e01      	subs	r6, #1
 8006be0:	f000 8109 	beq.w	8006df6 <dir_register+0xa92>
 8006be4:	f8d9 101c 	ldr.w	r1, [r9, #28]
 8006be8:	6b3b      	ldr	r3, [r7, #48]	; 0x30
 8006bea:	4299      	cmp	r1, r3
 8006bec:	d005      	beq.n	8006bfa <dir_register+0x896>
 8006bee:	4638      	mov	r0, r7
 8006bf0:	f7fd fed4 	bl	800499c <move_window.part.0>
 8006bf4:	2800      	cmp	r0, #0
 8006bf6:	f47f af02 	bne.w	80069fe <dir_register+0x69a>
 8006bfa:	b2f0      	uxtb	r0, r6
 8006bfc:	68f9      	ldr	r1, [r7, #12]
 8006bfe:	f8d9 3020 	ldr.w	r3, [r9, #32]
 8006c02:	f04f 0e0f 	mov.w	lr, #15
 8006c06:	1e42      	subs	r2, r0, #1
 8006c08:	f883 e00b 	strb.w	lr, [r3, #11]
 8006c0c:	eb02 0c42 	add.w	ip, r2, r2, lsl #1
 8006c10:	f883 800d 	strb.w	r8, [r3, #13]
 8006c14:	731c      	strb	r4, [r3, #12]
 8006c16:	eb02 028c 	add.w	r2, r2, ip, lsl #2
 8006c1a:	769c      	strb	r4, [r3, #26]
 8006c1c:	76dc      	strb	r4, [r3, #27]
 8006c1e:	f831 c012 	ldrh.w	ip, [r1, r2, lsl #1]
 8006c22:	ea4f 0e42 	mov.w	lr, r2, lsl #1
 8006c26:	ea4f 2a1c 	mov.w	sl, ip, lsr #8
 8006c2a:	f883 c001 	strb.w	ip, [r3, #1]
 8006c2e:	f883 a002 	strb.w	sl, [r3, #2]
 8006c32:	f1bc 0f00 	cmp.w	ip, #0
 8006c36:	d0af      	beq.n	8006b98 <dir_register+0x834>
 8006c38:	f64f 7aff 	movw	sl, #65535	; 0xffff
 8006c3c:	45d4      	cmp	ip, sl
 8006c3e:	d0ab      	beq.n	8006b98 <dir_register+0x834>
 8006c40:	3201      	adds	r2, #1
 8006c42:	f831 c012 	ldrh.w	ip, [r1, r2, lsl #1]
 8006c46:	0052      	lsls	r2, r2, #1
 8006c48:	ea4f 2b1c 	mov.w	fp, ip, lsr #8
 8006c4c:	f883 c003 	strb.w	ip, [r3, #3]
 8006c50:	f883 b004 	strb.w	fp, [r3, #4]
 8006c54:	f1bc 0f00 	cmp.w	ip, #0
 8006c58:	d0a0      	beq.n	8006b9c <dir_register+0x838>
 8006c5a:	45d4      	cmp	ip, sl
 8006c5c:	d09e      	beq.n	8006b9c <dir_register+0x838>
 8006c5e:	440a      	add	r2, r1
 8006c60:	f8b2 c002 	ldrh.w	ip, [r2, #2]
 8006c64:	ea4f 2b1c 	mov.w	fp, ip, lsr #8
 8006c68:	f883 c005 	strb.w	ip, [r3, #5]
 8006c6c:	f883 b006 	strb.w	fp, [r3, #6]
 8006c70:	f1bc 0f00 	cmp.w	ip, #0
 8006c74:	d094      	beq.n	8006ba0 <dir_register+0x83c>
 8006c76:	45d4      	cmp	ip, sl
 8006c78:	d092      	beq.n	8006ba0 <dir_register+0x83c>
 8006c7a:	f8b2 c004 	ldrh.w	ip, [r2, #4]
 8006c7e:	ea4f 2b1c 	mov.w	fp, ip, lsr #8
 8006c82:	f883 c007 	strb.w	ip, [r3, #7]
 8006c86:	f883 b008 	strb.w	fp, [r3, #8]
 8006c8a:	f1bc 0f00 	cmp.w	ip, #0
 8006c8e:	d089      	beq.n	8006ba4 <dir_register+0x840>
 8006c90:	45d4      	cmp	ip, sl
 8006c92:	d087      	beq.n	8006ba4 <dir_register+0x840>
 8006c94:	f8b2 c006 	ldrh.w	ip, [r2, #6]
 8006c98:	ea4f 2b1c 	mov.w	fp, ip, lsr #8
 8006c9c:	f883 c009 	strb.w	ip, [r3, #9]
 8006ca0:	f883 b00a 	strb.w	fp, [r3, #10]
 8006ca4:	f1bc 0f00 	cmp.w	ip, #0
 8006ca8:	f43f af7e 	beq.w	8006ba8 <dir_register+0x844>
 8006cac:	45d4      	cmp	ip, sl
 8006cae:	f43f af7b 	beq.w	8006ba8 <dir_register+0x844>
 8006cb2:	f8b2 c008 	ldrh.w	ip, [r2, #8]
 8006cb6:	ea4f 2a1c 	mov.w	sl, ip, lsr #8
 8006cba:	f883 c00e 	strb.w	ip, [r3, #14]
 8006cbe:	f883 a00f 	strb.w	sl, [r3, #15]
 8006cc2:	f1bc 0f00 	cmp.w	ip, #0
 8006cc6:	f43f af71 	beq.w	8006bac <dir_register+0x848>
 8006cca:	f64f 7aff 	movw	sl, #65535	; 0xffff
 8006cce:	45d4      	cmp	ip, sl
 8006cd0:	f43f af6c 	beq.w	8006bac <dir_register+0x848>
 8006cd4:	f8b2 c00a 	ldrh.w	ip, [r2, #10]
 8006cd8:	ea4f 2b1c 	mov.w	fp, ip, lsr #8
 8006cdc:	f883 c010 	strb.w	ip, [r3, #16]
 8006ce0:	f883 b011 	strb.w	fp, [r3, #17]
 8006ce4:	f1bc 0f00 	cmp.w	ip, #0
 8006ce8:	f43f af62 	beq.w	8006bb0 <dir_register+0x84c>
 8006cec:	45d4      	cmp	ip, sl
 8006cee:	f43f af5f 	beq.w	8006bb0 <dir_register+0x84c>
 8006cf2:	f8b2 c00c 	ldrh.w	ip, [r2, #12]
 8006cf6:	ea4f 2b1c 	mov.w	fp, ip, lsr #8
 8006cfa:	f883 c012 	strb.w	ip, [r3, #18]
 8006cfe:	f883 b013 	strb.w	fp, [r3, #19]
 8006d02:	f1bc 0f00 	cmp.w	ip, #0
 8006d06:	f43f af55 	beq.w	8006bb4 <dir_register+0x850>
 8006d0a:	45d4      	cmp	ip, sl
 8006d0c:	f43f af52 	beq.w	8006bb4 <dir_register+0x850>
 8006d10:	f8b2 c00e 	ldrh.w	ip, [r2, #14]
 8006d14:	ea4f 2b1c 	mov.w	fp, ip, lsr #8
 8006d18:	f883 c014 	strb.w	ip, [r3, #20]
 8006d1c:	f883 b015 	strb.w	fp, [r3, #21]
 8006d20:	f1bc 0f00 	cmp.w	ip, #0
 8006d24:	f43f af48 	beq.w	8006bb8 <dir_register+0x854>
 8006d28:	45d4      	cmp	ip, sl
 8006d2a:	f43f af45 	beq.w	8006bb8 <dir_register+0x854>
 8006d2e:	f8b2 c010 	ldrh.w	ip, [r2, #16]
 8006d32:	ea4f 2b1c 	mov.w	fp, ip, lsr #8
 8006d36:	f883 c016 	strb.w	ip, [r3, #22]
 8006d3a:	f883 b017 	strb.w	fp, [r3, #23]
 8006d3e:	f1bc 0f00 	cmp.w	ip, #0
 8006d42:	f43f af3b 	beq.w	8006bbc <dir_register+0x858>
 8006d46:	45d4      	cmp	ip, sl
 8006d48:	f43f af38 	beq.w	8006bbc <dir_register+0x858>
 8006d4c:	f8b2 c012 	ldrh.w	ip, [r2, #18]
 8006d50:	ea4f 2a1c 	mov.w	sl, ip, lsr #8
 8006d54:	f883 c018 	strb.w	ip, [r3, #24]
 8006d58:	f883 a019 	strb.w	sl, [r3, #25]
 8006d5c:	f1bc 0f00 	cmp.w	ip, #0
 8006d60:	f43f af2e 	beq.w	8006bc0 <dir_register+0x85c>
 8006d64:	f64f 7bff 	movw	fp, #65535	; 0xffff
 8006d68:	45dc      	cmp	ip, fp
 8006d6a:	f43f af29 	beq.w	8006bc0 <dir_register+0x85c>
 8006d6e:	f8b2 c014 	ldrh.w	ip, [r2, #20]
 8006d72:	ea4f 2a1c 	mov.w	sl, ip, lsr #8
 8006d76:	f883 c01c 	strb.w	ip, [r3, #28]
 8006d7a:	f883 a01d 	strb.w	sl, [r3, #29]
 8006d7e:	f1bc 0f00 	cmp.w	ip, #0
 8006d82:	f43f af1f 	beq.w	8006bc4 <dir_register+0x860>
 8006d86:	45dc      	cmp	ip, fp
 8006d88:	f43f af1c 	beq.w	8006bc4 <dir_register+0x860>
 8006d8c:	f8b2 c016 	ldrh.w	ip, [r2, #22]
 8006d90:	f64f 7afd 	movw	sl, #65533	; 0xfffd
 8006d94:	f10c 32ff 	add.w	r2, ip, #4294967295
 8006d98:	ea4f 2b1c 	mov.w	fp, ip, lsr #8
 8006d9c:	f883 c01e 	strb.w	ip, [r3, #30]
 8006da0:	b292      	uxth	r2, r2
 8006da2:	f883 b01f 	strb.w	fp, [r3, #31]
 8006da6:	4552      	cmp	r2, sl
 8006da8:	f63f af0e 	bhi.w	8006bc8 <dir_register+0x864>
 8006dac:	4471      	add	r1, lr
 8006dae:	8b4a      	ldrh	r2, [r1, #26]
 8006db0:	2a00      	cmp	r2, #0
 8006db2:	f47f af0b 	bne.w	8006bcc <dir_register+0x868>
 8006db6:	e707      	b.n	8006bc8 <dir_register+0x864>
 8006db8:	2100      	movs	r1, #0
 8006dba:	e603      	b.n	80069c4 <dir_register+0x660>
 8006dbc:	f899 2024 	ldrb.w	r2, [r9, #36]	; 0x24
 8006dc0:	701a      	strb	r2, [r3, #0]
 8006dc2:	f899 2025 	ldrb.w	r2, [r9, #37]	; 0x25
 8006dc6:	705a      	strb	r2, [r3, #1]
 8006dc8:	f899 2026 	ldrb.w	r2, [r9, #38]	; 0x26
 8006dcc:	709a      	strb	r2, [r3, #2]
 8006dce:	f899 2027 	ldrb.w	r2, [r9, #39]	; 0x27
 8006dd2:	70da      	strb	r2, [r3, #3]
 8006dd4:	f899 2028 	ldrb.w	r2, [r9, #40]	; 0x28
 8006dd8:	711a      	strb	r2, [r3, #4]
 8006dda:	f899 2029 	ldrb.w	r2, [r9, #41]	; 0x29
 8006dde:	715a      	strb	r2, [r3, #5]
 8006de0:	f899 202a 	ldrb.w	r2, [r9, #42]	; 0x2a
 8006de4:	719a      	strb	r2, [r3, #6]
 8006de6:	f899 202b 	ldrb.w	r2, [r9, #43]	; 0x2b
 8006dea:	71da      	strb	r2, [r3, #7]
 8006dec:	f7ff bb63 	b.w	80064b6 <dir_register+0x152>
 8006df0:	f04f 0b02 	mov.w	fp, #2
 8006df4:	e5ab      	b.n	800694e <dir_register+0x5ea>
 8006df6:	e9dd ba01 	ldrd	fp, sl, [sp, #4]
 8006dfa:	f7ff bb3a 	b.w	8006472 <dir_register+0x10e>
 8006dfe:	4622      	mov	r2, r4
 8006e00:	69b3      	ldr	r3, [r6, #24]
 8006e02:	463d      	mov	r5, r7
 8006e04:	f8dd b018 	ldr.w	fp, [sp, #24]
 8006e08:	9f08      	ldr	r7, [sp, #32]
 8006e0a:	1a82      	subs	r2, r0, r2
 8006e0c:	9c07      	ldr	r4, [sp, #28]
 8006e0e:	3b02      	subs	r3, #2
 8006e10:	6332      	str	r2, [r6, #48]	; 0x30
 8006e12:	e5cc      	b.n	80069ae <dir_register+0x64a>
 8006e14:	f106 0534 	add.w	r5, r6, #52	; 0x34
 8006e18:	6b32      	ldr	r2, [r6, #48]	; 0x30
 8006e1a:	2301      	movs	r3, #1
 8006e1c:	7870      	ldrb	r0, [r6, #1]
 8006e1e:	4629      	mov	r1, r5
 8006e20:	9205      	str	r2, [sp, #20]
 8006e22:	f7fd fd19 	bl	8004858 <disk_write>
 8006e26:	2800      	cmp	r0, #0
 8006e28:	f47f adee 	bne.w	8006a08 <dir_register+0x6a4>
 8006e2c:	6a71      	ldr	r1, [r6, #36]	; 0x24
 8006e2e:	9a05      	ldr	r2, [sp, #20]
 8006e30:	69f3      	ldr	r3, [r6, #28]
 8006e32:	1a51      	subs	r1, r2, r1
 8006e34:	70f0      	strb	r0, [r6, #3]
 8006e36:	4299      	cmp	r1, r3
 8006e38:	f4bf ae07 	bcs.w	8006a4a <dir_register+0x6e6>
 8006e3c:	78b1      	ldrb	r1, [r6, #2]
 8006e3e:	2901      	cmp	r1, #1
 8006e40:	f67f ae03 	bls.w	8006a4a <dir_register+0x6e6>
 8006e44:	e9cd 4705 	strd	r4, r7, [sp, #20]
 8006e48:	462f      	mov	r7, r5
 8006e4a:	460c      	mov	r4, r1
 8006e4c:	4615      	mov	r5, r2
 8006e4e:	e000      	b.n	8006e52 <dir_register+0xaee>
 8006e50:	69f3      	ldr	r3, [r6, #28]
 8006e52:	441d      	add	r5, r3
 8006e54:	3c01      	subs	r4, #1
 8006e56:	2301      	movs	r3, #1
 8006e58:	4639      	mov	r1, r7
 8006e5a:	462a      	mov	r2, r5
 8006e5c:	7870      	ldrb	r0, [r6, #1]
 8006e5e:	f7fd fcfb 	bl	8004858 <disk_write>
 8006e62:	2c01      	cmp	r4, #1
 8006e64:	d1f4      	bne.n	8006e50 <dir_register+0xaec>
 8006e66:	463d      	mov	r5, r7
 8006e68:	9c05      	ldr	r4, [sp, #20]
 8006e6a:	9f06      	ldr	r7, [sp, #24]
 8006e6c:	e5ed      	b.n	8006a4a <dir_register+0x6e6>
 8006e6e:	8971      	ldrh	r1, [r6, #10]
 8006e70:	2200      	movs	r2, #0
 8006e72:	e5fe      	b.n	8006a72 <dir_register+0x70e>

08006e74 <f_mount>:
 8006e74:	b510      	push	{r4, lr}
 8006e76:	b082      	sub	sp, #8
 8006e78:	e9cd 1000 	strd	r1, r0, [sp]
 8006e7c:	b181      	cbz	r1, 8006ea0 <f_mount+0x2c>
 8006e7e:	780c      	ldrb	r4, [r1, #0]
 8006e80:	2c1f      	cmp	r4, #31
 8006e82:	d910      	bls.n	8006ea6 <f_mount+0x32>
 8006e84:	2c3a      	cmp	r4, #58	; 0x3a
 8006e86:	d00e      	beq.n	8006ea6 <f_mount+0x32>
 8006e88:	4608      	mov	r0, r1
 8006e8a:	f810 3f01 	ldrb.w	r3, [r0, #1]!
 8006e8e:	2b1f      	cmp	r3, #31
 8006e90:	d90b      	bls.n	8006eaa <f_mount+0x36>
 8006e92:	2b3a      	cmp	r3, #58	; 0x3a
 8006e94:	d1f9      	bne.n	8006e8a <f_mount+0x16>
 8006e96:	3101      	adds	r1, #1
 8006e98:	4288      	cmp	r0, r1
 8006e9a:	d101      	bne.n	8006ea0 <f_mount+0x2c>
 8006e9c:	2c30      	cmp	r4, #48	; 0x30
 8006e9e:	d006      	beq.n	8006eae <f_mount+0x3a>
 8006ea0:	200b      	movs	r0, #11
 8006ea2:	b002      	add	sp, #8
 8006ea4:	bd10      	pop	{r4, pc}
 8006ea6:	4623      	mov	r3, r4
 8006ea8:	4608      	mov	r0, r1
 8006eaa:	2b3a      	cmp	r3, #58	; 0x3a
 8006eac:	d0f3      	beq.n	8006e96 <f_mount+0x22>
 8006eae:	4913      	ldr	r1, [pc, #76]	; (8006efc <f_mount+0x88>)
 8006eb0:	680b      	ldr	r3, [r1, #0]
 8006eb2:	b143      	cbz	r3, 8006ec6 <f_mount+0x52>
 8006eb4:	4812      	ldr	r0, [pc, #72]	; (8006f00 <f_mount+0x8c>)
 8006eb6:	6804      	ldr	r4, [r0, #0]
 8006eb8:	42a3      	cmp	r3, r4
 8006eba:	d019      	beq.n	8006ef0 <f_mount+0x7c>
 8006ebc:	6904      	ldr	r4, [r0, #16]
 8006ebe:	429c      	cmp	r4, r3
 8006ec0:	d013      	beq.n	8006eea <f_mount+0x76>
 8006ec2:	2000      	movs	r0, #0
 8006ec4:	7018      	strb	r0, [r3, #0]
 8006ec6:	9b01      	ldr	r3, [sp, #4]
 8006ec8:	b15b      	cbz	r3, 8006ee2 <f_mount+0x6e>
 8006eca:	2000      	movs	r0, #0
 8006ecc:	2a01      	cmp	r2, #1
 8006ece:	600b      	str	r3, [r1, #0]
 8006ed0:	7018      	strb	r0, [r3, #0]
 8006ed2:	d1e6      	bne.n	8006ea2 <f_mount+0x2e>
 8006ed4:	4602      	mov	r2, r0
 8006ed6:	a901      	add	r1, sp, #4
 8006ed8:	4668      	mov	r0, sp
 8006eda:	f7fe faf7 	bl	80054cc <find_volume>
 8006ede:	b002      	add	sp, #8
 8006ee0:	bd10      	pop	{r4, pc}
 8006ee2:	4618      	mov	r0, r3
 8006ee4:	600b      	str	r3, [r1, #0]
 8006ee6:	b002      	add	sp, #8
 8006ee8:	bd10      	pop	{r4, pc}
 8006eea:	2400      	movs	r4, #0
 8006eec:	6104      	str	r4, [r0, #16]
 8006eee:	e7e8      	b.n	8006ec2 <f_mount+0x4e>
 8006ef0:	2400      	movs	r4, #0
 8006ef2:	6004      	str	r4, [r0, #0]
 8006ef4:	6904      	ldr	r4, [r0, #16]
 8006ef6:	429c      	cmp	r4, r3
 8006ef8:	d1e3      	bne.n	8006ec2 <f_mount+0x4e>
 8006efa:	e7f6      	b.n	8006eea <f_mount+0x76>
 8006efc:	200000b0 	.word	0x200000b0
 8006f00:	200000b4 	.word	0x200000b4

08006f04 <f_open>:
 8006f04:	e92d 4ff0 	stmdb	sp!, {r4, r5, r6, r7, r8, r9, sl, fp, lr}
 8006f08:	b091      	sub	sp, #68	; 0x44
 8006f0a:	9101      	str	r1, [sp, #4]
 8006f0c:	2800      	cmp	r0, #0
 8006f0e:	f000 80b4 	beq.w	800707a <f_open+0x176>
 8006f12:	f002 073f 	and.w	r7, r2, #63	; 0x3f
 8006f16:	4616      	mov	r6, r2
 8006f18:	4604      	mov	r4, r0
 8006f1a:	a902      	add	r1, sp, #8
 8006f1c:	a801      	add	r0, sp, #4
 8006f1e:	463a      	mov	r2, r7
 8006f20:	f7fe fad4 	bl	80054cc <find_volume>
 8006f24:	4605      	mov	r5, r0
 8006f26:	b128      	cbz	r0, 8006f34 <f_open+0x30>
 8006f28:	2300      	movs	r3, #0
 8006f2a:	6023      	str	r3, [r4, #0]
 8006f2c:	4628      	mov	r0, r5
 8006f2e:	b011      	add	sp, #68	; 0x44
 8006f30:	e8bd 8ff0 	ldmia.w	sp!, {r4, r5, r6, r7, r8, r9, sl, fp, pc}
 8006f34:	e9dd 1301 	ldrd	r1, r3, [sp, #4]
 8006f38:	a803      	add	r0, sp, #12
 8006f3a:	9303      	str	r3, [sp, #12]
 8006f3c:	f7fe ffce 	bl	8005edc <follow_path>
 8006f40:	bb00      	cbnz	r0, 8006f84 <f_open+0x80>
 8006f42:	f99d 303b 	ldrsb.w	r3, [sp, #59]	; 0x3b
 8006f46:	2b00      	cmp	r3, #0
 8006f48:	f2c0 809e 	blt.w	8007088 <f_open+0x184>
 8006f4c:	f8df 8384 	ldr.w	r8, [pc, #900]	; 80072d4 <f_open+0x3d0>
 8006f50:	f027 0c01 	bic.w	ip, r7, #1
 8006f54:	9805      	ldr	r0, [sp, #20]
 8006f56:	f8d8 1000 	ldr.w	r1, [r8]
 8006f5a:	4662      	mov	r2, ip
 8006f5c:	9b03      	ldr	r3, [sp, #12]
 8006f5e:	f8dd e020 	ldr.w	lr, [sp, #32]
 8006f62:	9000      	str	r0, [sp, #0]
 8006f64:	2900      	cmp	r1, #0
 8006f66:	f000 8155 	beq.w	8007214 <f_open+0x310>
 8006f6a:	428b      	cmp	r3, r1
 8006f6c:	f000 80f6 	beq.w	800715c <f_open+0x258>
 8006f70:	f8d8 1010 	ldr.w	r1, [r8, #16]
 8006f74:	2900      	cmp	r1, #0
 8006f76:	f000 8111 	beq.w	800719c <f_open+0x298>
 8006f7a:	428b      	cmp	r3, r1
 8006f7c:	f000 80f9 	beq.w	8007172 <f_open+0x26e>
 8006f80:	2512      	movs	r5, #18
 8006f82:	e7d1      	b.n	8006f28 <f_open+0x24>
 8006f84:	f016 0f1c 	tst.w	r6, #28
 8006f88:	d07c      	beq.n	8007084 <f_open+0x180>
 8006f8a:	2804      	cmp	r0, #4
 8006f8c:	d17a      	bne.n	8007084 <f_open+0x180>
 8006f8e:	f8df 8344 	ldr.w	r8, [pc, #836]	; 80072d4 <f_open+0x3d0>
 8006f92:	f8d8 3000 	ldr.w	r3, [r8]
 8006f96:	b11b      	cbz	r3, 8006fa0 <f_open+0x9c>
 8006f98:	f8d8 3010 	ldr.w	r3, [r8, #16]
 8006f9c:	2b00      	cmp	r3, #0
 8006f9e:	d1ef      	bne.n	8006f80 <f_open+0x7c>
 8006fa0:	a803      	add	r0, sp, #12
 8006fa2:	f047 0708 	orr.w	r7, r7, #8
 8006fa6:	f7ff f9dd 	bl	8006364 <dir_register>
 8006faa:	2800      	cmp	r0, #0
 8006fac:	d16a      	bne.n	8007084 <f_open+0x180>
 8006fae:	990b      	ldr	r1, [sp, #44]	; 0x2c
 8006fb0:	2220      	movs	r2, #32
 8006fb2:	4bc7      	ldr	r3, [pc, #796]	; (80072d0 <f_open+0x3cc>)
 8006fb4:	f8dd 9008 	ldr.w	r9, [sp, #8]
 8006fb8:	f8c1 300e 	str.w	r3, [r1, #14]
 8006fbc:	990b      	ldr	r1, [sp, #44]	; 0x2c
 8006fbe:	f8c1 3016 	str.w	r3, [r1, #22]
 8006fc2:	9b0b      	ldr	r3, [sp, #44]	; 0x2c
 8006fc4:	72da      	strb	r2, [r3, #11]
 8006fc6:	9b0b      	ldr	r3, [sp, #44]	; 0x2c
 8006fc8:	f899 2000 	ldrb.w	r2, [r9]
 8006fcc:	7ed9      	ldrb	r1, [r3, #27]
 8006fce:	7e9e      	ldrb	r6, [r3, #26]
 8006fd0:	2a03      	cmp	r2, #3
 8006fd2:	ea46 2601 	orr.w	r6, r6, r1, lsl #8
 8006fd6:	d105      	bne.n	8006fe4 <f_open+0xe0>
 8006fd8:	7d59      	ldrb	r1, [r3, #21]
 8006fda:	7d1a      	ldrb	r2, [r3, #20]
 8006fdc:	ea42 2201 	orr.w	r2, r2, r1, lsl #8
 8006fe0:	ea46 4602 	orr.w	r6, r6, r2, lsl #16
 8006fe4:	2200      	movs	r2, #0
 8006fe6:	769a      	strb	r2, [r3, #26]
 8006fe8:	76da      	strb	r2, [r3, #27]
 8006fea:	f899 1000 	ldrb.w	r1, [r9]
 8006fee:	2903      	cmp	r1, #3
 8006ff0:	d101      	bne.n	8006ff6 <f_open+0xf2>
 8006ff2:	751a      	strb	r2, [r3, #20]
 8006ff4:	755a      	strb	r2, [r3, #21]
 8006ff6:	990b      	ldr	r1, [sp, #44]	; 0x2c
 8006ff8:	2200      	movs	r2, #0
 8006ffa:	2301      	movs	r3, #1
 8006ffc:	61ca      	str	r2, [r1, #28]
 8006ffe:	f889 3003 	strb.w	r3, [r9, #3]
 8007002:	b1be      	cbz	r6, 8007034 <f_open+0x130>
 8007004:	a803      	add	r0, sp, #12
 8007006:	4631      	mov	r1, r6
 8007008:	f8d9 a030 	ldr.w	sl, [r9, #48]	; 0x30
 800700c:	f7ff f902 	bl	8006214 <remove_chain>
 8007010:	bbc0      	cbnz	r0, 8007084 <f_open+0x180>
 8007012:	f8dd 9008 	ldr.w	r9, [sp, #8]
 8007016:	f8d9 1030 	ldr.w	r1, [r9, #48]	; 0x30
 800701a:	458a      	cmp	sl, r1
 800701c:	f000 815c 	beq.w	80072d8 <f_open+0x3d4>
 8007020:	4648      	mov	r0, r9
 8007022:	4651      	mov	r1, sl
 8007024:	f7fd fcba 	bl	800499c <move_window.part.0>
 8007028:	3e01      	subs	r6, #1
 800702a:	f8dd 9008 	ldr.w	r9, [sp, #8]
 800702e:	f8c9 6010 	str.w	r6, [r9, #16]
 8007032:	bb38      	cbnz	r0, 8007084 <f_open+0x180>
 8007034:	9a05      	ldr	r2, [sp, #20]
 8007036:	9b03      	ldr	r3, [sp, #12]
 8007038:	f8dd e020 	ldr.w	lr, [sp, #32]
 800703c:	f8d9 1030 	ldr.w	r1, [r9, #48]	; 0x30
 8007040:	9200      	str	r2, [sp, #0]
 8007042:	f047 0740 	orr.w	r7, r7, #64	; 0x40
 8007046:	f027 0201 	bic.w	r2, r7, #1
 800704a:	f8d8 c000 	ldr.w	ip, [r8]
 800704e:	9e0b      	ldr	r6, [sp, #44]	; 0x2c
 8007050:	4563      	cmp	r3, ip
 8007052:	e9c4 1609 	strd	r1, r6, [r4, #36]	; 0x24
 8007056:	f000 80cb 	beq.w	80071f0 <f_open+0x2ec>
 800705a:	f8d8 a010 	ldr.w	sl, [r8, #16]
 800705e:	4553      	cmp	r3, sl
 8007060:	d014      	beq.n	800708c <f_open+0x188>
 8007062:	f1bc 0f00 	cmp.w	ip, #0
 8007066:	f000 80ee 	beq.w	8007246 <f_open+0x342>
 800706a:	f1ba 0f00 	cmp.w	sl, #0
 800706e:	f000 812a 	beq.w	80072c6 <f_open+0x3c2>
 8007072:	2300      	movs	r3, #0
 8007074:	2502      	movs	r5, #2
 8007076:	6123      	str	r3, [r4, #16]
 8007078:	e756      	b.n	8006f28 <f_open+0x24>
 800707a:	2509      	movs	r5, #9
 800707c:	4628      	mov	r0, r5
 800707e:	b011      	add	sp, #68	; 0x44
 8007080:	e8bd 8ff0 	ldmia.w	sp!, {r4, r5, r6, r7, r8, r9, sl, fp, pc}
 8007084:	4605      	mov	r5, r0
 8007086:	e74f      	b.n	8006f28 <f_open+0x24>
 8007088:	2506      	movs	r5, #6
 800708a:	e74d      	b.n	8006f28 <f_open+0x24>
 800708c:	f8d8 0014 	ldr.w	r0, [r8, #20]
 8007090:	9900      	ldr	r1, [sp, #0]
 8007092:	4288      	cmp	r0, r1
 8007094:	d1e5      	bne.n	8007062 <f_open+0x15e>
 8007096:	f8d8 0018 	ldr.w	r0, [r8, #24]
 800709a:	4586      	cmp	lr, r0
 800709c:	d1e1      	bne.n	8007062 <f_open+0x15e>
 800709e:	f04f 0c01 	mov.w	ip, #1
 80070a2:	eb08 130c 	add.w	r3, r8, ip, lsl #4
 80070a6:	2a00      	cmp	r2, #0
 80070a8:	f040 8097 	bne.w	80071da <f_open+0x2d6>
 80070ac:	8999      	ldrh	r1, [r3, #12]
 80070ae:	f10c 0a01 	add.w	sl, ip, #1
 80070b2:	ea4f 120c 	mov.w	r2, ip, lsl #4
 80070b6:	3101      	adds	r1, #1
 80070b8:	b289      	uxth	r1, r1
 80070ba:	f8c4 a010 	str.w	sl, [r4, #16]
 80070be:	4442      	add	r2, r8
 80070c0:	f899 3000 	ldrb.w	r3, [r9]
 80070c4:	7ef0      	ldrb	r0, [r6, #27]
 80070c6:	f896 801a 	ldrb.w	r8, [r6, #26]
 80070ca:	2b03      	cmp	r3, #3
 80070cc:	8191      	strh	r1, [r2, #12]
 80070ce:	ea48 2800 	orr.w	r8, r8, r0, lsl #8
 80070d2:	d105      	bne.n	80070e0 <f_open+0x1dc>
 80070d4:	7d72      	ldrb	r2, [r6, #21]
 80070d6:	7d33      	ldrb	r3, [r6, #20]
 80070d8:	ea43 2302 	orr.w	r3, r3, r2, lsl #8
 80070dc:	ea48 4803 	orr.w	r8, r8, r3, lsl #16
 80070e0:	f8c4 8008 	str.w	r8, [r4, #8]
 80070e4:	2100      	movs	r1, #0
 80070e6:	8bf2      	ldrh	r2, [r6, #30]
 80070e8:	f104 0a30 	add.w	sl, r4, #48	; 0x30
 80070ec:	7f73      	ldrb	r3, [r6, #29]
 80070ee:	7f36      	ldrb	r6, [r6, #28]
 80070f0:	4650      	mov	r0, sl
 80070f2:	ea43 2302 	orr.w	r3, r3, r2, lsl #8
 80070f6:	f8b9 2006 	ldrh.w	r2, [r9, #6]
 80070fa:	f8c4 9000 	str.w	r9, [r4]
 80070fe:	ea46 2603 	orr.w	r6, r6, r3, lsl #8
 8007102:	80a2      	strh	r2, [r4, #4]
 8007104:	62e1      	str	r1, [r4, #44]	; 0x2c
 8007106:	f44f 7200 	mov.w	r2, #512	; 0x200
 800710a:	7561      	strb	r1, [r4, #21]
 800710c:	60e6      	str	r6, [r4, #12]
 800710e:	6221      	str	r1, [r4, #32]
 8007110:	61a1      	str	r1, [r4, #24]
 8007112:	7527      	strb	r7, [r4, #20]
 8007114:	f004 fda4 	bl	800bc60 <memset>
 8007118:	06b8      	lsls	r0, r7, #26
 800711a:	f57f af07 	bpl.w	8006f2c <f_open+0x28>
 800711e:	2e00      	cmp	r6, #0
 8007120:	f43f af04 	beq.w	8006f2c <f_open+0x28>
 8007124:	f8b9 300a 	ldrh.w	r3, [r9, #10]
 8007128:	61a6      	str	r6, [r4, #24]
 800712a:	ebb6 2f43 	cmp.w	r6, r3, lsl #9
 800712e:	ea4f 2743 	mov.w	r7, r3, lsl #9
 8007132:	d807      	bhi.n	8007144 <f_open+0x240>
 8007134:	e0a4      	b.n	8007280 <f_open+0x37c>
 8007136:	f1b0 3fff 	cmp.w	r0, #4294967295
 800713a:	f000 80d6 	beq.w	80072ea <f_open+0x3e6>
 800713e:	42b7      	cmp	r7, r6
 8007140:	f080 80d3 	bcs.w	80072ea <f_open+0x3e6>
 8007144:	4641      	mov	r1, r8
 8007146:	6820      	ldr	r0, [r4, #0]
 8007148:	f7fd fd00 	bl	8004b4c <get_fat.isra.0>
 800714c:	2801      	cmp	r0, #1
 800714e:	eba6 0607 	sub.w	r6, r6, r7
 8007152:	4680      	mov	r8, r0
 8007154:	d8ef      	bhi.n	8007136 <f_open+0x232>
 8007156:	61e0      	str	r0, [r4, #28]
 8007158:	2502      	movs	r5, #2
 800715a:	e6e5      	b.n	8006f28 <f_open+0x24>
 800715c:	f8d8 1004 	ldr.w	r1, [r8, #4]
 8007160:	4288      	cmp	r0, r1
 8007162:	f000 8086 	beq.w	8007272 <f_open+0x36e>
 8007166:	f8d8 1010 	ldr.w	r1, [r8, #16]
 800716a:	b1b9      	cbz	r1, 800719c <f_open+0x298>
 800716c:	4299      	cmp	r1, r3
 800716e:	f47f af07 	bne.w	8006f80 <f_open+0x7c>
 8007172:	f8d8 1014 	ldr.w	r1, [r8, #20]
 8007176:	9800      	ldr	r0, [sp, #0]
 8007178:	4288      	cmp	r0, r1
 800717a:	f47f af01 	bne.w	8006f80 <f_open+0x7c>
 800717e:	f8d8 1018 	ldr.w	r1, [r8, #24]
 8007182:	4571      	cmp	r1, lr
 8007184:	f47f aefc 	bne.w	8006f80 <f_open+0x7c>
 8007188:	2101      	movs	r1, #1
 800718a:	f1bc 0f00 	cmp.w	ip, #0
 800718e:	d13d      	bne.n	800720c <f_open+0x308>
 8007190:	eb08 1101 	add.w	r1, r8, r1, lsl #4
 8007194:	8989      	ldrh	r1, [r1, #12]
 8007196:	f5b1 7f80 	cmp.w	r1, #256	; 0x100
 800719a:	d037      	beq.n	800720c <f_open+0x308>
 800719c:	f016 0f1c 	tst.w	r6, #28
 80071a0:	d008      	beq.n	80071b4 <f_open+0x2b0>
 80071a2:	f89d 1012 	ldrb.w	r1, [sp, #18]
 80071a6:	f011 0f11 	tst.w	r1, #17
 80071aa:	d131      	bne.n	8007210 <f_open+0x30c>
 80071ac:	0771      	lsls	r1, r6, #29
 80071ae:	d540      	bpl.n	8007232 <f_open+0x32e>
 80071b0:	2508      	movs	r5, #8
 80071b2:	e6b9      	b.n	8006f28 <f_open+0x24>
 80071b4:	f89d 2012 	ldrb.w	r2, [sp, #18]
 80071b8:	06d1      	lsls	r1, r2, #27
 80071ba:	d442      	bmi.n	8007242 <f_open+0x33e>
 80071bc:	07b1      	lsls	r1, r6, #30
 80071be:	d501      	bpl.n	80071c4 <f_open+0x2c0>
 80071c0:	07d2      	lsls	r2, r2, #31
 80071c2:	d425      	bmi.n	8007210 <f_open+0x30c>
 80071c4:	f8dd 9008 	ldr.w	r9, [sp, #8]
 80071c8:	f006 0608 	and.w	r6, r6, #8
 80071cc:	f8d9 1030 	ldr.w	r1, [r9, #48]	; 0x30
 80071d0:	2e00      	cmp	r6, #0
 80071d2:	f47f af36 	bne.w	8007042 <f_open+0x13e>
 80071d6:	4662      	mov	r2, ip
 80071d8:	e737      	b.n	800704a <f_open+0x146>
 80071da:	899b      	ldrh	r3, [r3, #12]
 80071dc:	ea4f 120c 	mov.w	r2, ip, lsl #4
 80071e0:	2b00      	cmp	r3, #0
 80071e2:	f47f af46 	bne.w	8007072 <f_open+0x16e>
 80071e6:	f10c 0a01 	add.w	sl, ip, #1
 80071ea:	f44f 7180 	mov.w	r1, #256	; 0x100
 80071ee:	e764      	b.n	80070ba <f_open+0x1b6>
 80071f0:	f8d8 1004 	ldr.w	r1, [r8, #4]
 80071f4:	9800      	ldr	r0, [sp, #0]
 80071f6:	4281      	cmp	r1, r0
 80071f8:	f47f af2f 	bne.w	800705a <f_open+0x156>
 80071fc:	f8d8 1008 	ldr.w	r1, [r8, #8]
 8007200:	458e      	cmp	lr, r1
 8007202:	f47f af2a 	bne.w	800705a <f_open+0x156>
 8007206:	f04f 0c00 	mov.w	ip, #0
 800720a:	e74a      	b.n	80070a2 <f_open+0x19e>
 800720c:	2510      	movs	r5, #16
 800720e:	e68b      	b.n	8006f28 <f_open+0x24>
 8007210:	2507      	movs	r5, #7
 8007212:	e689      	b.n	8006f28 <f_open+0x24>
 8007214:	f8d8 1010 	ldr.w	r1, [r8, #16]
 8007218:	2900      	cmp	r1, #0
 800721a:	d0bf      	beq.n	800719c <f_open+0x298>
 800721c:	4299      	cmp	r1, r3
 800721e:	d1bd      	bne.n	800719c <f_open+0x298>
 8007220:	f8d8 1014 	ldr.w	r1, [r8, #20]
 8007224:	4281      	cmp	r1, r0
 8007226:	d1b9      	bne.n	800719c <f_open+0x298>
 8007228:	f8d8 1018 	ldr.w	r1, [r8, #24]
 800722c:	458e      	cmp	lr, r1
 800722e:	d1b5      	bne.n	800719c <f_open+0x298>
 8007230:	e7aa      	b.n	8007188 <f_open+0x284>
 8007232:	0730      	lsls	r0, r6, #28
 8007234:	f53f aebb 	bmi.w	8006fae <f_open+0xaa>
 8007238:	f8dd 9008 	ldr.w	r9, [sp, #8]
 800723c:	f8d9 1030 	ldr.w	r1, [r9, #48]	; 0x30
 8007240:	e703      	b.n	800704a <f_open+0x146>
 8007242:	2504      	movs	r5, #4
 8007244:	e670      	b.n	8006f28 <f_open+0x24>
 8007246:	f04f 0a01 	mov.w	sl, #1
 800724a:	2a00      	cmp	r2, #0
 800724c:	ea4f 120c 	mov.w	r2, ip, lsl #4
 8007250:	f04f 0b00 	mov.w	fp, #0
 8007254:	eb08 1c0c 	add.w	ip, r8, ip, lsl #4
 8007258:	f848 3002 	str.w	r3, [r8, r2]
 800725c:	bf18      	it	ne
 800725e:	f44f 7180 	movne.w	r1, #256	; 0x100
 8007262:	9b00      	ldr	r3, [sp, #0]
 8007264:	bf08      	it	eq
 8007266:	2101      	moveq	r1, #1
 8007268:	f8ac b00c 	strh.w	fp, [ip, #12]
 800726c:	e9cc 3e01 	strd	r3, lr, [ip, #4]
 8007270:	e723      	b.n	80070ba <f_open+0x1b6>
 8007272:	f8d8 1008 	ldr.w	r1, [r8, #8]
 8007276:	458e      	cmp	lr, r1
 8007278:	f47f af75 	bne.w	8007166 <f_open+0x262>
 800727c:	4629      	mov	r1, r5
 800727e:	e784      	b.n	800718a <f_open+0x286>
 8007280:	f8c4 801c 	str.w	r8, [r4, #28]
 8007284:	f3c6 0308 	ubfx	r3, r6, #0, #9
 8007288:	2b00      	cmp	r3, #0
 800728a:	f43f ae4f 	beq.w	8006f2c <f_open+0x28>
 800728e:	9802      	ldr	r0, [sp, #8]
 8007290:	f1a8 0802 	sub.w	r8, r8, #2
 8007294:	6983      	ldr	r3, [r0, #24]
 8007296:	3b02      	subs	r3, #2
 8007298:	4598      	cmp	r8, r3
 800729a:	f4bf af5d 	bcs.w	8007158 <f_open+0x254>
 800729e:	8943      	ldrh	r3, [r0, #10]
 80072a0:	6ac2      	ldr	r2, [r0, #44]	; 0x2c
 80072a2:	fb08 2203 	mla	r2, r8, r3, r2
 80072a6:	2a00      	cmp	r2, #0
 80072a8:	f43f af56 	beq.w	8007158 <f_open+0x254>
 80072ac:	eb02 2256 	add.w	r2, r2, r6, lsr #9
 80072b0:	4651      	mov	r1, sl
 80072b2:	2301      	movs	r3, #1
 80072b4:	6222      	str	r2, [r4, #32]
 80072b6:	7840      	ldrb	r0, [r0, #1]
 80072b8:	f7fd fac0 	bl	800483c <disk_read>
 80072bc:	2800      	cmp	r0, #0
 80072be:	f43f ae35 	beq.w	8006f2c <f_open+0x28>
 80072c2:	2501      	movs	r5, #1
 80072c4:	e630      	b.n	8006f28 <f_open+0x24>
 80072c6:	f04f 0a02 	mov.w	sl, #2
 80072ca:	f04f 0c01 	mov.w	ip, #1
 80072ce:	e7bc      	b.n	800724a <f_open+0x346>
 80072d0:	52210000 	.word	0x52210000
 80072d4:	200000b4 	.word	0x200000b4
 80072d8:	3e01      	subs	r6, #1
 80072da:	9a05      	ldr	r2, [sp, #20]
 80072dc:	9b03      	ldr	r3, [sp, #12]
 80072de:	f8dd e020 	ldr.w	lr, [sp, #32]
 80072e2:	9200      	str	r2, [sp, #0]
 80072e4:	f8c9 6010 	str.w	r6, [r9, #16]
 80072e8:	e6ab      	b.n	8007042 <f_open+0x13e>
 80072ea:	f1b8 3fff 	cmp.w	r8, #4294967295
 80072ee:	f8c4 801c 	str.w	r8, [r4, #28]
 80072f2:	bf0c      	ite	eq
 80072f4:	2301      	moveq	r3, #1
 80072f6:	2300      	movne	r3, #0
 80072f8:	d1c4      	bne.n	8007284 <f_open+0x380>
 80072fa:	461d      	mov	r5, r3
 80072fc:	e614      	b.n	8006f28 <f_open+0x24>
 80072fe:	bf00      	nop

08007300 <f_read>:
 8007300:	e92d 4ff0 	stmdb	sp!, {r4, r5, r6, r7, r8, r9, sl, fp, lr}
 8007304:	461f      	mov	r7, r3
 8007306:	2300      	movs	r3, #0
 8007308:	b085      	sub	sp, #20
 800730a:	603b      	str	r3, [r7, #0]
 800730c:	b150      	cbz	r0, 8007324 <f_read+0x24>
 800730e:	6803      	ldr	r3, [r0, #0]
 8007310:	4604      	mov	r4, r0
 8007312:	b13b      	cbz	r3, 8007324 <f_read+0x24>
 8007314:	4690      	mov	r8, r2
 8007316:	781a      	ldrb	r2, [r3, #0]
 8007318:	b122      	cbz	r2, 8007324 <f_read+0x24>
 800731a:	460e      	mov	r6, r1
 800731c:	88da      	ldrh	r2, [r3, #6]
 800731e:	8881      	ldrh	r1, [r0, #4]
 8007320:	4291      	cmp	r1, r2
 8007322:	d005      	beq.n	8007330 <f_read+0x30>
 8007324:	f04f 0909 	mov.w	r9, #9
 8007328:	4648      	mov	r0, r9
 800732a:	b005      	add	sp, #20
 800732c:	e8bd 8ff0 	ldmia.w	sp!, {r4, r5, r6, r7, r8, r9, sl, fp, pc}
 8007330:	7858      	ldrb	r0, [r3, #1]
 8007332:	f7fd fa65 	bl	8004800 <disk_status>
 8007336:	07c2      	lsls	r2, r0, #31
 8007338:	d4f4      	bmi.n	8007324 <f_read+0x24>
 800733a:	f894 9015 	ldrb.w	r9, [r4, #21]
 800733e:	f1b9 0f00 	cmp.w	r9, #0
 8007342:	d1f1      	bne.n	8007328 <f_read+0x28>
 8007344:	7d23      	ldrb	r3, [r4, #20]
 8007346:	f013 0301 	ands.w	r3, r3, #1
 800734a:	9301      	str	r3, [sp, #4]
 800734c:	f000 80d3 	beq.w	80074f6 <f_read+0x1f6>
 8007350:	69a1      	ldr	r1, [r4, #24]
 8007352:	68e2      	ldr	r2, [r4, #12]
 8007354:	1a52      	subs	r2, r2, r1
 8007356:	4590      	cmp	r8, r2
 8007358:	bf28      	it	cs
 800735a:	4690      	movcs	r8, r2
 800735c:	f1b8 0f00 	cmp.w	r8, #0
 8007360:	d0e2      	beq.n	8007328 <f_read+0x28>
 8007362:	46a3      	mov	fp, r4
 8007364:	f104 0334 	add.w	r3, r4, #52	; 0x34
 8007368:	f3c1 0208 	ubfx	r2, r1, #0, #9
 800736c:	f85b ab30 	ldr.w	sl, [fp], #48
 8007370:	9302      	str	r3, [sp, #8]
 8007372:	2a00      	cmp	r2, #0
 8007374:	d13f      	bne.n	80073f6 <f_read+0xf6>
 8007376:	f8ba 200a 	ldrh.w	r2, [sl, #10]
 800737a:	0a4b      	lsrs	r3, r1, #9
 800737c:	3a01      	subs	r2, #1
 800737e:	ea12 2251 	ands.w	r2, r2, r1, lsr #9
 8007382:	d06a      	beq.n	800745a <f_read+0x15a>
 8007384:	69e0      	ldr	r0, [r4, #28]
 8007386:	f8da 3018 	ldr.w	r3, [sl, #24]
 800738a:	3802      	subs	r0, #2
 800738c:	3b02      	subs	r3, #2
 800738e:	4298      	cmp	r0, r3
 8007390:	d270      	bcs.n	8007474 <f_read+0x174>
 8007392:	f8ba 100a 	ldrh.w	r1, [sl, #10]
 8007396:	f8da 502c 	ldr.w	r5, [sl, #44]	; 0x2c
 800739a:	fb01 5500 	mla	r5, r1, r0, r5
 800739e:	2d00      	cmp	r5, #0
 80073a0:	d068      	beq.n	8007474 <f_read+0x174>
 80073a2:	f5b8 7f00 	cmp.w	r8, #512	; 0x200
 80073a6:	4415      	add	r5, r2
 80073a8:	d36c      	bcc.n	8007484 <f_read+0x184>
 80073aa:	eb02 2058 	add.w	r0, r2, r8, lsr #9
 80073ae:	ea4f 2358 	mov.w	r3, r8, lsr #9
 80073b2:	4288      	cmp	r0, r1
 80073b4:	f89a 0001 	ldrb.w	r0, [sl, #1]
 80073b8:	bf88      	it	hi
 80073ba:	1a8b      	subhi	r3, r1, r2
 80073bc:	462a      	mov	r2, r5
 80073be:	4631      	mov	r1, r6
 80073c0:	9303      	str	r3, [sp, #12]
 80073c2:	f7fd fa3b 	bl	800483c <disk_read>
 80073c6:	2800      	cmp	r0, #0
 80073c8:	f040 8084 	bne.w	80074d4 <f_read+0x1d4>
 80073cc:	f994 2014 	ldrsb.w	r2, [r4, #20]
 80073d0:	9b03      	ldr	r3, [sp, #12]
 80073d2:	2a00      	cmp	r2, #0
 80073d4:	f2c0 80a6 	blt.w	8007524 <f_read+0x224>
 80073d8:	025b      	lsls	r3, r3, #9
 80073da:	69a1      	ldr	r1, [r4, #24]
 80073dc:	ebb8 0803 	subs.w	r8, r8, r3
 80073e0:	683a      	ldr	r2, [r7, #0]
 80073e2:	441e      	add	r6, r3
 80073e4:	4419      	add	r1, r3
 80073e6:	441a      	add	r2, r3
 80073e8:	61a1      	str	r1, [r4, #24]
 80073ea:	603a      	str	r2, [r7, #0]
 80073ec:	d09c      	beq.n	8007328 <f_read+0x28>
 80073ee:	f3c1 0208 	ubfx	r2, r1, #0, #9
 80073f2:	2a00      	cmp	r2, #0
 80073f4:	d0bf      	beq.n	8007376 <f_read+0x76>
 80073f6:	f5c2 7300 	rsb	r3, r2, #512	; 0x200
 80073fa:	1d10      	adds	r0, r2, #4
 80073fc:	1d31      	adds	r1, r6, #4
 80073fe:	445a      	add	r2, fp
 8007400:	4543      	cmp	r3, r8
 8007402:	4458      	add	r0, fp
 8007404:	bf28      	it	cs
 8007406:	4643      	movcs	r3, r8
 8007408:	428a      	cmp	r2, r1
 800740a:	bf38      	it	cc
 800740c:	4286      	cmpcc	r6, r0
 800740e:	f103 3cff 	add.w	ip, r3, #4294967295
 8007412:	d367      	bcc.n	80074e4 <f_read+0x1e4>
 8007414:	f1bc 0f07 	cmp.w	ip, #7
 8007418:	d964      	bls.n	80074e4 <f_read+0x1e4>
 800741a:	f023 0003 	bic.w	r0, r3, #3
 800741e:	4631      	mov	r1, r6
 8007420:	4615      	mov	r5, r2
 8007422:	4430      	add	r0, r6
 8007424:	f855 eb04 	ldr.w	lr, [r5], #4
 8007428:	f841 eb04 	str.w	lr, [r1], #4
 800742c:	4288      	cmp	r0, r1
 800742e:	d1f9      	bne.n	8007424 <f_read+0x124>
 8007430:	f023 0103 	bic.w	r1, r3, #3
 8007434:	428b      	cmp	r3, r1
 8007436:	eb06 0001 	add.w	r0, r6, r1
 800743a:	eb02 0501 	add.w	r5, r2, r1
 800743e:	d0cc      	beq.n	80073da <f_read+0xda>
 8007440:	5c52      	ldrb	r2, [r2, r1]
 8007442:	ebbc 0c01 	subs.w	ip, ip, r1
 8007446:	5472      	strb	r2, [r6, r1]
 8007448:	d0c7      	beq.n	80073da <f_read+0xda>
 800744a:	786a      	ldrb	r2, [r5, #1]
 800744c:	f1bc 0f01 	cmp.w	ip, #1
 8007450:	7042      	strb	r2, [r0, #1]
 8007452:	d0c2      	beq.n	80073da <f_read+0xda>
 8007454:	78aa      	ldrb	r2, [r5, #2]
 8007456:	7082      	strb	r2, [r0, #2]
 8007458:	e7bf      	b.n	80073da <f_read+0xda>
 800745a:	bb39      	cbnz	r1, 80074ac <f_read+0x1ac>
 800745c:	68a0      	ldr	r0, [r4, #8]
 800745e:	2801      	cmp	r0, #1
 8007460:	d908      	bls.n	8007474 <f_read+0x174>
 8007462:	1c43      	adds	r3, r0, #1
 8007464:	d036      	beq.n	80074d4 <f_read+0x1d4>
 8007466:	f8da 3018 	ldr.w	r3, [sl, #24]
 800746a:	61e0      	str	r0, [r4, #28]
 800746c:	3802      	subs	r0, #2
 800746e:	3b02      	subs	r3, #2
 8007470:	4298      	cmp	r0, r3
 8007472:	d38e      	bcc.n	8007392 <f_read+0x92>
 8007474:	f04f 0902 	mov.w	r9, #2
 8007478:	4648      	mov	r0, r9
 800747a:	f884 9015 	strb.w	r9, [r4, #21]
 800747e:	b005      	add	sp, #20
 8007480:	e8bd 8ff0 	ldmia.w	sp!, {r4, r5, r6, r7, r8, r9, sl, fp, pc}
 8007484:	6a22      	ldr	r2, [r4, #32]
 8007486:	42aa      	cmp	r2, r5
 8007488:	d00b      	beq.n	80074a2 <f_read+0x1a2>
 800748a:	f994 3014 	ldrsb.w	r3, [r4, #20]
 800748e:	2b00      	cmp	r3, #0
 8007490:	db3b      	blt.n	800750a <f_read+0x20a>
 8007492:	2301      	movs	r3, #1
 8007494:	462a      	mov	r2, r5
 8007496:	4659      	mov	r1, fp
 8007498:	f89a 0001 	ldrb.w	r0, [sl, #1]
 800749c:	f7fd f9ce 	bl	800483c <disk_read>
 80074a0:	b9c0      	cbnz	r0, 80074d4 <f_read+0x1d4>
 80074a2:	69a2      	ldr	r2, [r4, #24]
 80074a4:	6225      	str	r5, [r4, #32]
 80074a6:	f3c2 0208 	ubfx	r2, r2, #0, #9
 80074aa:	e7a4      	b.n	80073f6 <f_read+0xf6>
 80074ac:	6ae1      	ldr	r1, [r4, #44]	; 0x2c
 80074ae:	b329      	cbz	r1, 80074fc <f_read+0x1fc>
 80074b0:	6825      	ldr	r5, [r4, #0]
 80074b2:	1d08      	adds	r0, r1, #4
 80074b4:	6849      	ldr	r1, [r1, #4]
 80074b6:	896d      	ldrh	r5, [r5, #10]
 80074b8:	fbb3 f3f5 	udiv	r3, r3, r5
 80074bc:	b929      	cbnz	r1, 80074ca <f_read+0x1ca>
 80074be:	e7d9      	b.n	8007474 <f_read+0x174>
 80074c0:	1a5b      	subs	r3, r3, r1
 80074c2:	f850 1f08 	ldr.w	r1, [r0, #8]!
 80074c6:	2900      	cmp	r1, #0
 80074c8:	d0d4      	beq.n	8007474 <f_read+0x174>
 80074ca:	4299      	cmp	r1, r3
 80074cc:	d9f8      	bls.n	80074c0 <f_read+0x1c0>
 80074ce:	6840      	ldr	r0, [r0, #4]
 80074d0:	4418      	add	r0, r3
 80074d2:	e7c4      	b.n	800745e <f_read+0x15e>
 80074d4:	f8dd 9004 	ldr.w	r9, [sp, #4]
 80074d8:	2301      	movs	r3, #1
 80074da:	4648      	mov	r0, r9
 80074dc:	7563      	strb	r3, [r4, #21]
 80074de:	b005      	add	sp, #20
 80074e0:	e8bd 8ff0 	ldmia.w	sp!, {r4, r5, r6, r7, r8, r9, sl, fp, pc}
 80074e4:	1e71      	subs	r1, r6, #1
 80074e6:	18d5      	adds	r5, r2, r3
 80074e8:	f812 0b01 	ldrb.w	r0, [r2], #1
 80074ec:	42aa      	cmp	r2, r5
 80074ee:	f801 0f01 	strb.w	r0, [r1, #1]!
 80074f2:	d1f9      	bne.n	80074e8 <f_read+0x1e8>
 80074f4:	e771      	b.n	80073da <f_read+0xda>
 80074f6:	f04f 0907 	mov.w	r9, #7
 80074fa:	e715      	b.n	8007328 <f_read+0x28>
 80074fc:	69e1      	ldr	r1, [r4, #28]
 80074fe:	6820      	ldr	r0, [r4, #0]
 8007500:	9203      	str	r2, [sp, #12]
 8007502:	f7fd fb23 	bl	8004b4c <get_fat.isra.0>
 8007506:	9a03      	ldr	r2, [sp, #12]
 8007508:	e7a9      	b.n	800745e <f_read+0x15e>
 800750a:	2301      	movs	r3, #1
 800750c:	4659      	mov	r1, fp
 800750e:	f89a 0001 	ldrb.w	r0, [sl, #1]
 8007512:	f7fd f9a1 	bl	8004858 <disk_write>
 8007516:	2800      	cmp	r0, #0
 8007518:	d1dc      	bne.n	80074d4 <f_read+0x1d4>
 800751a:	7d23      	ldrb	r3, [r4, #20]
 800751c:	f003 037f 	and.w	r3, r3, #127	; 0x7f
 8007520:	7523      	strb	r3, [r4, #20]
 8007522:	e7b6      	b.n	8007492 <f_read+0x192>
 8007524:	6a22      	ldr	r2, [r4, #32]
 8007526:	1b55      	subs	r5, r2, r5
 8007528:	429d      	cmp	r5, r3
 800752a:	f4bf af55 	bcs.w	80073d8 <f_read+0xd8>
 800752e:	eb06 2045 	add.w	r0, r6, r5, lsl #9
 8007532:	4659      	mov	r1, fp
 8007534:	4602      	mov	r2, r0
 8007536:	3004      	adds	r0, #4
 8007538:	4583      	cmp	fp, r0
 800753a:	d202      	bcs.n	8007542 <f_read+0x242>
 800753c:	9802      	ldr	r0, [sp, #8]
 800753e:	4282      	cmp	r2, r0
 8007540:	d309      	bcc.n	8007556 <f_read+0x256>
 8007542:	4659      	mov	r1, fp
 8007544:	f502 7500 	add.w	r5, r2, #512	; 0x200
 8007548:	f851 0b04 	ldr.w	r0, [r1], #4
 800754c:	f842 0b04 	str.w	r0, [r2], #4
 8007550:	42aa      	cmp	r2, r5
 8007552:	d1f9      	bne.n	8007548 <f_read+0x248>
 8007554:	e740      	b.n	80073d8 <f_read+0xd8>
 8007556:	3a01      	subs	r2, #1
 8007558:	f504 750c 	add.w	r5, r4, #560	; 0x230
 800755c:	f811 0b01 	ldrb.w	r0, [r1], #1
 8007560:	428d      	cmp	r5, r1
 8007562:	f802 0f01 	strb.w	r0, [r2, #1]!
 8007566:	d1f9      	bne.n	800755c <f_read+0x25c>
 8007568:	e736      	b.n	80073d8 <f_read+0xd8>
 800756a:	bf00      	nop

0800756c <f_write>:
 800756c:	e92d 4ff0 	stmdb	sp!, {r4, r5, r6, r7, r8, r9, sl, fp, lr}
 8007570:	461f      	mov	r7, r3
 8007572:	2300      	movs	r3, #0
 8007574:	b085      	sub	sp, #20
 8007576:	603b      	str	r3, [r7, #0]
 8007578:	b150      	cbz	r0, 8007590 <f_write+0x24>
 800757a:	6803      	ldr	r3, [r0, #0]
 800757c:	4604      	mov	r4, r0
 800757e:	b13b      	cbz	r3, 8007590 <f_write+0x24>
 8007580:	4616      	mov	r6, r2
 8007582:	781a      	ldrb	r2, [r3, #0]
 8007584:	b122      	cbz	r2, 8007590 <f_write+0x24>
 8007586:	460d      	mov	r5, r1
 8007588:	88da      	ldrh	r2, [r3, #6]
 800758a:	8881      	ldrh	r1, [r0, #4]
 800758c:	4291      	cmp	r1, r2
 800758e:	d005      	beq.n	800759c <f_write+0x30>
 8007590:	f04f 0809 	mov.w	r8, #9
 8007594:	4640      	mov	r0, r8
 8007596:	b005      	add	sp, #20
 8007598:	e8bd 8ff0 	ldmia.w	sp!, {r4, r5, r6, r7, r8, r9, sl, fp, pc}
 800759c:	7858      	ldrb	r0, [r3, #1]
 800759e:	f7fd f92f 	bl	8004800 <disk_status>
 80075a2:	07c1      	lsls	r1, r0, #31
 80075a4:	d4f4      	bmi.n	8007590 <f_write+0x24>
 80075a6:	f894 8015 	ldrb.w	r8, [r4, #21]
 80075aa:	f1b8 0f00 	cmp.w	r8, #0
 80075ae:	d1f1      	bne.n	8007594 <f_write+0x28>
 80075b0:	7d23      	ldrb	r3, [r4, #20]
 80075b2:	079a      	lsls	r2, r3, #30
 80075b4:	f140 80f5 	bpl.w	80077a2 <f_write+0x236>
 80075b8:	69a2      	ldr	r2, [r4, #24]
 80075ba:	42f2      	cmn	r2, r6
 80075bc:	bf28      	it	cs
 80075be:	43d6      	mvncs	r6, r2
 80075c0:	2e00      	cmp	r6, #0
 80075c2:	d064      	beq.n	800768e <f_write+0x122>
 80075c4:	46a2      	mov	sl, r4
 80075c6:	f504 730c 	add.w	r3, r4, #560	; 0x230
 80075ca:	f85a 9b30 	ldr.w	r9, [sl], #48
 80075ce:	9301      	str	r3, [sp, #4]
 80075d0:	f3c2 0108 	ubfx	r1, r2, #0, #9
 80075d4:	2900      	cmp	r1, #0
 80075d6:	d169      	bne.n	80076ac <f_write+0x140>
 80075d8:	f8b9 b00a 	ldrh.w	fp, [r9, #10]
 80075dc:	0a53      	lsrs	r3, r2, #9
 80075de:	f10b 3bff 	add.w	fp, fp, #4294967295
 80075e2:	ea1b 2b52 	ands.w	fp, fp, r2, lsr #9
 80075e6:	d110      	bne.n	800760a <f_write+0x9e>
 80075e8:	2a00      	cmp	r2, #0
 80075ea:	f040 80a2 	bne.w	8007732 <f_write+0x1c6>
 80075ee:	68a0      	ldr	r0, [r4, #8]
 80075f0:	2800      	cmp	r0, #0
 80075f2:	f000 80e3 	beq.w	80077bc <f_write+0x250>
 80075f6:	2801      	cmp	r0, #1
 80075f8:	f000 8093 	beq.w	8007722 <f_write+0x1b6>
 80075fc:	1c43      	adds	r3, r0, #1
 80075fe:	f000 80bd 	beq.w	800777c <f_write+0x210>
 8007602:	68a3      	ldr	r3, [r4, #8]
 8007604:	61e0      	str	r0, [r4, #28]
 8007606:	b903      	cbnz	r3, 800760a <f_write+0x9e>
 8007608:	60a0      	str	r0, [r4, #8]
 800760a:	f994 3014 	ldrsb.w	r3, [r4, #20]
 800760e:	2b00      	cmp	r3, #0
 8007610:	f2c0 80a7 	blt.w	8007762 <f_write+0x1f6>
 8007614:	69e2      	ldr	r2, [r4, #28]
 8007616:	f8d9 3018 	ldr.w	r3, [r9, #24]
 800761a:	3a02      	subs	r2, #2
 800761c:	3b02      	subs	r3, #2
 800761e:	429a      	cmp	r2, r3
 8007620:	d27f      	bcs.n	8007722 <f_write+0x1b6>
 8007622:	f8b9 100a 	ldrh.w	r1, [r9, #10]
 8007626:	f8d9 302c 	ldr.w	r3, [r9, #44]	; 0x2c
 800762a:	fb01 3202 	mla	r2, r1, r2, r3
 800762e:	2a00      	cmp	r2, #0
 8007630:	d077      	beq.n	8007722 <f_write+0x1b6>
 8007632:	f5b6 7f00 	cmp.w	r6, #512	; 0x200
 8007636:	445a      	add	r2, fp
 8007638:	d32d      	bcc.n	8007696 <f_write+0x12a>
 800763a:	eb0b 2056 	add.w	r0, fp, r6, lsr #9
 800763e:	0a73      	lsrs	r3, r6, #9
 8007640:	4288      	cmp	r0, r1
 8007642:	f899 0001 	ldrb.w	r0, [r9, #1]
 8007646:	bf88      	it	hi
 8007648:	eba1 030b 	subhi.w	r3, r1, fp
 800764c:	4629      	mov	r1, r5
 800764e:	e9cd 2302 	strd	r2, r3, [sp, #8]
 8007652:	f7fd f901 	bl	8004858 <disk_write>
 8007656:	2800      	cmp	r0, #0
 8007658:	f040 8090 	bne.w	800777c <f_write+0x210>
 800765c:	6a21      	ldr	r1, [r4, #32]
 800765e:	9a02      	ldr	r2, [sp, #8]
 8007660:	9b03      	ldr	r3, [sp, #12]
 8007662:	1a8a      	subs	r2, r1, r2
 8007664:	429a      	cmp	r2, r3
 8007666:	f0c0 80bd 	bcc.w	80077e4 <f_write+0x278>
 800766a:	eb05 2143 	add.w	r1, r5, r3, lsl #9
 800766e:	025b      	lsls	r3, r3, #9
 8007670:	69a2      	ldr	r2, [r4, #24]
 8007672:	460d      	mov	r5, r1
 8007674:	68e0      	ldr	r0, [r4, #12]
 8007676:	441a      	add	r2, r3
 8007678:	6839      	ldr	r1, [r7, #0]
 800767a:	4290      	cmp	r0, r2
 800767c:	4419      	add	r1, r3
 800767e:	61a2      	str	r2, [r4, #24]
 8007680:	bf38      	it	cc
 8007682:	4610      	movcc	r0, r2
 8007684:	1af6      	subs	r6, r6, r3
 8007686:	60e0      	str	r0, [r4, #12]
 8007688:	6039      	str	r1, [r7, #0]
 800768a:	d1a1      	bne.n	80075d0 <f_write+0x64>
 800768c:	7d23      	ldrb	r3, [r4, #20]
 800768e:	f043 0340 	orr.w	r3, r3, #64	; 0x40
 8007692:	7523      	strb	r3, [r4, #20]
 8007694:	e77e      	b.n	8007594 <f_write+0x28>
 8007696:	6a23      	ldr	r3, [r4, #32]
 8007698:	69a1      	ldr	r1, [r4, #24]
 800769a:	4293      	cmp	r3, r2
 800769c:	d003      	beq.n	80076a6 <f_write+0x13a>
 800769e:	68e3      	ldr	r3, [r4, #12]
 80076a0:	4299      	cmp	r1, r3
 80076a2:	f0c0 8093 	bcc.w	80077cc <f_write+0x260>
 80076a6:	f3c1 0108 	ubfx	r1, r1, #0, #9
 80076aa:	6222      	str	r2, [r4, #32]
 80076ac:	f5c1 7300 	rsb	r3, r1, #512	; 0x200
 80076b0:	1d08      	adds	r0, r1, #4
 80076b2:	1d2a      	adds	r2, r5, #4
 80076b4:	4451      	add	r1, sl
 80076b6:	42b3      	cmp	r3, r6
 80076b8:	4450      	add	r0, sl
 80076ba:	bf28      	it	cs
 80076bc:	4633      	movcs	r3, r6
 80076be:	4291      	cmp	r1, r2
 80076c0:	bf38      	it	cc
 80076c2:	4285      	cmpcc	r5, r0
 80076c4:	f103 3eff 	add.w	lr, r3, #4294967295
 80076c8:	d360      	bcc.n	800778c <f_write+0x220>
 80076ca:	f1be 0f07 	cmp.w	lr, #7
 80076ce:	d95d      	bls.n	800778c <f_write+0x220>
 80076d0:	f023 0003 	bic.w	r0, r3, #3
 80076d4:	462a      	mov	r2, r5
 80076d6:	468c      	mov	ip, r1
 80076d8:	4428      	add	r0, r5
 80076da:	f852 bb04 	ldr.w	fp, [r2], #4
 80076de:	4290      	cmp	r0, r2
 80076e0:	f84c bb04 	str.w	fp, [ip], #4
 80076e4:	d1f9      	bne.n	80076da <f_write+0x16e>
 80076e6:	f023 0203 	bic.w	r2, r3, #3
 80076ea:	4293      	cmp	r3, r2
 80076ec:	eb01 0002 	add.w	r0, r1, r2
 80076f0:	eb05 0c02 	add.w	ip, r5, r2
 80076f4:	d053      	beq.n	800779e <f_write+0x232>
 80076f6:	f815 b002 	ldrb.w	fp, [r5, r2]
 80076fa:	ebbe 0e02 	subs.w	lr, lr, r2
 80076fe:	f801 b002 	strb.w	fp, [r1, r2]
 8007702:	d051      	beq.n	80077a8 <f_write+0x23c>
 8007704:	f89c 2001 	ldrb.w	r2, [ip, #1]
 8007708:	f1be 0f01 	cmp.w	lr, #1
 800770c:	7042      	strb	r2, [r0, #1]
 800770e:	d04b      	beq.n	80077a8 <f_write+0x23c>
 8007710:	f89c 2002 	ldrb.w	r2, [ip, #2]
 8007714:	18e9      	adds	r1, r5, r3
 8007716:	7082      	strb	r2, [r0, #2]
 8007718:	7d22      	ldrb	r2, [r4, #20]
 800771a:	f062 027f 	orn	r2, r2, #127	; 0x7f
 800771e:	7522      	strb	r2, [r4, #20]
 8007720:	e7a6      	b.n	8007670 <f_write+0x104>
 8007722:	f04f 0802 	mov.w	r8, #2
 8007726:	4640      	mov	r0, r8
 8007728:	f884 8015 	strb.w	r8, [r4, #21]
 800772c:	b005      	add	sp, #20
 800772e:	e8bd 8ff0 	ldmia.w	sp!, {r4, r5, r6, r7, r8, r9, sl, fp, pc}
 8007732:	6ae2      	ldr	r2, [r4, #44]	; 0x2c
 8007734:	2a00      	cmp	r2, #0
 8007736:	d039      	beq.n	80077ac <f_write+0x240>
 8007738:	6820      	ldr	r0, [r4, #0]
 800773a:	1d11      	adds	r1, r2, #4
 800773c:	6852      	ldr	r2, [r2, #4]
 800773e:	8940      	ldrh	r0, [r0, #10]
 8007740:	fbb3 f3f0 	udiv	r3, r3, r0
 8007744:	b92a      	cbnz	r2, 8007752 <f_write+0x1e6>
 8007746:	e7a1      	b.n	800768c <f_write+0x120>
 8007748:	1a9b      	subs	r3, r3, r2
 800774a:	f851 2f08 	ldr.w	r2, [r1, #8]!
 800774e:	2a00      	cmp	r2, #0
 8007750:	d09c      	beq.n	800768c <f_write+0x120>
 8007752:	4293      	cmp	r3, r2
 8007754:	d2f8      	bcs.n	8007748 <f_write+0x1dc>
 8007756:	6848      	ldr	r0, [r1, #4]
 8007758:	4418      	add	r0, r3
 800775a:	2800      	cmp	r0, #0
 800775c:	f47f af4b 	bne.w	80075f6 <f_write+0x8a>
 8007760:	e794      	b.n	800768c <f_write+0x120>
 8007762:	2301      	movs	r3, #1
 8007764:	6a22      	ldr	r2, [r4, #32]
 8007766:	4651      	mov	r1, sl
 8007768:	f899 0001 	ldrb.w	r0, [r9, #1]
 800776c:	f7fd f874 	bl	8004858 <disk_write>
 8007770:	b920      	cbnz	r0, 800777c <f_write+0x210>
 8007772:	7d23      	ldrb	r3, [r4, #20]
 8007774:	f003 037f 	and.w	r3, r3, #127	; 0x7f
 8007778:	7523      	strb	r3, [r4, #20]
 800777a:	e74b      	b.n	8007614 <f_write+0xa8>
 800777c:	f04f 0801 	mov.w	r8, #1
 8007780:	4640      	mov	r0, r8
 8007782:	f884 8015 	strb.w	r8, [r4, #21]
 8007786:	b005      	add	sp, #20
 8007788:	e8bd 8ff0 	ldmia.w	sp!, {r4, r5, r6, r7, r8, r9, sl, fp, pc}
 800778c:	1e4a      	subs	r2, r1, #1
 800778e:	18e9      	adds	r1, r5, r3
 8007790:	f815 0b01 	ldrb.w	r0, [r5], #1
 8007794:	428d      	cmp	r5, r1
 8007796:	f802 0f01 	strb.w	r0, [r2, #1]!
 800779a:	d1f9      	bne.n	8007790 <f_write+0x224>
 800779c:	e7bc      	b.n	8007718 <f_write+0x1ac>
 800779e:	4661      	mov	r1, ip
 80077a0:	e7ba      	b.n	8007718 <f_write+0x1ac>
 80077a2:	f04f 0807 	mov.w	r8, #7
 80077a6:	e6f5      	b.n	8007594 <f_write+0x28>
 80077a8:	18e9      	adds	r1, r5, r3
 80077aa:	e7b5      	b.n	8007718 <f_write+0x1ac>
 80077ac:	69e1      	ldr	r1, [r4, #28]
 80077ae:	4620      	mov	r0, r4
 80077b0:	f7fd fd5e 	bl	8005270 <create_chain>
 80077b4:	2800      	cmp	r0, #0
 80077b6:	f47f af1e 	bne.w	80075f6 <f_write+0x8a>
 80077ba:	e767      	b.n	800768c <f_write+0x120>
 80077bc:	4659      	mov	r1, fp
 80077be:	4620      	mov	r0, r4
 80077c0:	f7fd fd56 	bl	8005270 <create_chain>
 80077c4:	2800      	cmp	r0, #0
 80077c6:	f47f af16 	bne.w	80075f6 <f_write+0x8a>
 80077ca:	e75f      	b.n	800768c <f_write+0x120>
 80077cc:	2301      	movs	r3, #1
 80077ce:	4651      	mov	r1, sl
 80077d0:	f899 0001 	ldrb.w	r0, [r9, #1]
 80077d4:	9202      	str	r2, [sp, #8]
 80077d6:	f7fd f831 	bl	800483c <disk_read>
 80077da:	2800      	cmp	r0, #0
 80077dc:	d1ce      	bne.n	800777c <f_write+0x210>
 80077de:	69a1      	ldr	r1, [r4, #24]
 80077e0:	9a02      	ldr	r2, [sp, #8]
 80077e2:	e760      	b.n	80076a6 <f_write+0x13a>
 80077e4:	eb05 2142 	add.w	r1, r5, r2, lsl #9
 80077e8:	460a      	mov	r2, r1
 80077ea:	3104      	adds	r1, #4
 80077ec:	458a      	cmp	sl, r1
 80077ee:	d203      	bcs.n	80077f8 <f_write+0x28c>
 80077f0:	f104 0134 	add.w	r1, r4, #52	; 0x34
 80077f4:	428a      	cmp	r2, r1
 80077f6:	d30d      	bcc.n	8007814 <f_write+0x2a8>
 80077f8:	4651      	mov	r1, sl
 80077fa:	f8dd c004 	ldr.w	ip, [sp, #4]
 80077fe:	f852 0b04 	ldr.w	r0, [r2], #4
 8007802:	f841 0b04 	str.w	r0, [r1], #4
 8007806:	4561      	cmp	r1, ip
 8007808:	d1f9      	bne.n	80077fe <f_write+0x292>
 800780a:	7d22      	ldrb	r2, [r4, #20]
 800780c:	f002 027f 	and.w	r2, r2, #127	; 0x7f
 8007810:	7522      	strb	r2, [r4, #20]
 8007812:	e72a      	b.n	800766a <f_write+0xfe>
 8007814:	f104 012f 	add.w	r1, r4, #47	; 0x2f
 8007818:	f502 7c00 	add.w	ip, r2, #512	; 0x200
 800781c:	f812 0b01 	ldrb.w	r0, [r2], #1
 8007820:	4594      	cmp	ip, r2
 8007822:	f801 0f01 	strb.w	r0, [r1, #1]!
 8007826:	d1f9      	bne.n	800781c <f_write+0x2b0>
 8007828:	e7ef      	b.n	800780a <f_write+0x29e>
 800782a:	bf00      	nop

0800782c <f_close>:
 800782c:	b158      	cbz	r0, 8007846 <f_close+0x1a>
 800782e:	6803      	ldr	r3, [r0, #0]
 8007830:	b570      	push	{r4, r5, r6, lr}
 8007832:	4604      	mov	r4, r0
 8007834:	b12b      	cbz	r3, 8007842 <f_close+0x16>
 8007836:	781a      	ldrb	r2, [r3, #0]
 8007838:	b11a      	cbz	r2, 8007842 <f_close+0x16>
 800783a:	8881      	ldrh	r1, [r0, #4]
 800783c:	88da      	ldrh	r2, [r3, #6]
 800783e:	4291      	cmp	r1, r2
 8007840:	d003      	beq.n	800784a <f_close+0x1e>
 8007842:	2009      	movs	r0, #9
 8007844:	bd70      	pop	{r4, r5, r6, pc}
 8007846:	2009      	movs	r0, #9
 8007848:	4770      	bx	lr
 800784a:	7858      	ldrb	r0, [r3, #1]
 800784c:	f7fc ffd8 	bl	8004800 <disk_status>
 8007850:	07c1      	lsls	r1, r0, #31
 8007852:	d4f6      	bmi.n	8007842 <f_close+0x16>
 8007854:	7d23      	ldrb	r3, [r4, #20]
 8007856:	6825      	ldr	r5, [r4, #0]
 8007858:	065a      	lsls	r2, r3, #25
 800785a:	d536      	bpl.n	80078ca <f_close+0x9e>
 800785c:	061b      	lsls	r3, r3, #24
 800785e:	d457      	bmi.n	8007910 <f_close+0xe4>
 8007860:	6a61      	ldr	r1, [r4, #36]	; 0x24
 8007862:	6b2b      	ldr	r3, [r5, #48]	; 0x30
 8007864:	4299      	cmp	r1, r3
 8007866:	d004      	beq.n	8007872 <f_close+0x46>
 8007868:	4628      	mov	r0, r5
 800786a:	f7fd f897 	bl	800499c <move_window.part.0>
 800786e:	2800      	cmp	r0, #0
 8007870:	d1e8      	bne.n	8007844 <f_close+0x18>
 8007872:	6aa1      	ldr	r1, [r4, #40]	; 0x28
 8007874:	7acb      	ldrb	r3, [r1, #11]
 8007876:	f043 0320 	orr.w	r3, r3, #32
 800787a:	72cb      	strb	r3, [r1, #11]
 800787c:	68a3      	ldr	r3, [r4, #8]
 800787e:	6822      	ldr	r2, [r4, #0]
 8007880:	f3c3 2007 	ubfx	r0, r3, #8, #8
 8007884:	768b      	strb	r3, [r1, #26]
 8007886:	76c8      	strb	r0, [r1, #27]
 8007888:	7812      	ldrb	r2, [r2, #0]
 800788a:	2a03      	cmp	r2, #3
 800788c:	d103      	bne.n	8007896 <f_close+0x6a>
 800788e:	0c1b      	lsrs	r3, r3, #16
 8007890:	0a1a      	lsrs	r2, r3, #8
 8007892:	750b      	strb	r3, [r1, #20]
 8007894:	754a      	strb	r2, [r1, #21]
 8007896:	68e3      	ldr	r3, [r4, #12]
 8007898:	2200      	movs	r2, #0
 800789a:	4828      	ldr	r0, [pc, #160]	; (800793c <f_close+0x110>)
 800789c:	0a1e      	lsrs	r6, r3, #8
 800789e:	770b      	strb	r3, [r1, #28]
 80078a0:	f8c1 0016 	str.w	r0, [r1, #22]
 80078a4:	0c18      	lsrs	r0, r3, #16
 80078a6:	774e      	strb	r6, [r1, #29]
 80078a8:	0e1b      	lsrs	r3, r3, #24
 80078aa:	2601      	movs	r6, #1
 80078ac:	7788      	strb	r0, [r1, #30]
 80078ae:	77cb      	strb	r3, [r1, #31]
 80078b0:	4628      	mov	r0, r5
 80078b2:	748a      	strb	r2, [r1, #18]
 80078b4:	74ca      	strb	r2, [r1, #19]
 80078b6:	70ee      	strb	r6, [r5, #3]
 80078b8:	f7fd fc68 	bl	800518c <sync_fs>
 80078bc:	7d23      	ldrb	r3, [r4, #20]
 80078be:	f023 0340 	bic.w	r3, r3, #64	; 0x40
 80078c2:	7523      	strb	r3, [r4, #20]
 80078c4:	2800      	cmp	r0, #0
 80078c6:	d1bd      	bne.n	8007844 <f_close+0x18>
 80078c8:	6825      	ldr	r5, [r4, #0]
 80078ca:	2d00      	cmp	r5, #0
 80078cc:	d0b9      	beq.n	8007842 <f_close+0x16>
 80078ce:	782b      	ldrb	r3, [r5, #0]
 80078d0:	2b00      	cmp	r3, #0
 80078d2:	d0b6      	beq.n	8007842 <f_close+0x16>
 80078d4:	88a2      	ldrh	r2, [r4, #4]
 80078d6:	88eb      	ldrh	r3, [r5, #6]
 80078d8:	429a      	cmp	r2, r3
 80078da:	d1b2      	bne.n	8007842 <f_close+0x16>
 80078dc:	7868      	ldrb	r0, [r5, #1]
 80078de:	f7fc ff8f 	bl	8004800 <disk_status>
 80078e2:	f010 0001 	ands.w	r0, r0, #1
 80078e6:	d1ac      	bne.n	8007842 <f_close+0x16>
 80078e8:	6923      	ldr	r3, [r4, #16]
 80078ea:	3b01      	subs	r3, #1
 80078ec:	2b01      	cmp	r3, #1
 80078ee:	d81e      	bhi.n	800792e <f_close+0x102>
 80078f0:	4913      	ldr	r1, [pc, #76]	; (8007940 <f_close+0x114>)
 80078f2:	011d      	lsls	r5, r3, #4
 80078f4:	eb01 1303 	add.w	r3, r1, r3, lsl #4
 80078f8:	899a      	ldrh	r2, [r3, #12]
 80078fa:	f5b2 7f80 	cmp.w	r2, #256	; 0x100
 80078fe:	d018      	beq.n	8007932 <f_close+0x106>
 8007900:	b1c2      	cbz	r2, 8007934 <f_close+0x108>
 8007902:	3a01      	subs	r2, #1
 8007904:	b292      	uxth	r2, r2
 8007906:	819a      	strh	r2, [r3, #12]
 8007908:	b1a2      	cbz	r2, 8007934 <f_close+0x108>
 800790a:	2300      	movs	r3, #0
 800790c:	6023      	str	r3, [r4, #0]
 800790e:	bd70      	pop	{r4, r5, r6, pc}
 8007910:	2301      	movs	r3, #1
 8007912:	6a22      	ldr	r2, [r4, #32]
 8007914:	f104 0130 	add.w	r1, r4, #48	; 0x30
 8007918:	7868      	ldrb	r0, [r5, #1]
 800791a:	f7fc ff9d 	bl	8004858 <disk_write>
 800791e:	b920      	cbnz	r0, 800792a <f_close+0xfe>
 8007920:	7d23      	ldrb	r3, [r4, #20]
 8007922:	f003 037f 	and.w	r3, r3, #127	; 0x7f
 8007926:	7523      	strb	r3, [r4, #20]
 8007928:	e79a      	b.n	8007860 <f_close+0x34>
 800792a:	2001      	movs	r0, #1
 800792c:	bd70      	pop	{r4, r5, r6, pc}
 800792e:	2002      	movs	r0, #2
 8007930:	bd70      	pop	{r4, r5, r6, pc}
 8007932:	8198      	strh	r0, [r3, #12]
 8007934:	2300      	movs	r3, #0
 8007936:	514b      	str	r3, [r1, r5]
 8007938:	e7e7      	b.n	800790a <f_close+0xde>
 800793a:	bf00      	nop
 800793c:	52210000 	.word	0x52210000
 8007940:	200000b4 	.word	0x200000b4

08007944 <f_lseek>:
 8007944:	e92d 4ff0 	stmdb	sp!, {r4, r5, r6, r7, r8, r9, sl, fp, lr}
 8007948:	b085      	sub	sp, #20
 800794a:	b148      	cbz	r0, 8007960 <f_lseek+0x1c>
 800794c:	6803      	ldr	r3, [r0, #0]
 800794e:	4604      	mov	r4, r0
 8007950:	b133      	cbz	r3, 8007960 <f_lseek+0x1c>
 8007952:	781a      	ldrb	r2, [r3, #0]
 8007954:	b122      	cbz	r2, 8007960 <f_lseek+0x1c>
 8007956:	460d      	mov	r5, r1
 8007958:	88da      	ldrh	r2, [r3, #6]
 800795a:	8881      	ldrh	r1, [r0, #4]
 800795c:	4291      	cmp	r1, r2
 800795e:	d004      	beq.n	800796a <f_lseek+0x26>
 8007960:	2609      	movs	r6, #9
 8007962:	4630      	mov	r0, r6
 8007964:	b005      	add	sp, #20
 8007966:	e8bd 8ff0 	ldmia.w	sp!, {r4, r5, r6, r7, r8, r9, sl, fp, pc}
 800796a:	7858      	ldrb	r0, [r3, #1]
 800796c:	f7fc ff48 	bl	8004800 <disk_status>
 8007970:	07c3      	lsls	r3, r0, #31
 8007972:	d4f5      	bmi.n	8007960 <f_lseek+0x1c>
 8007974:	7d66      	ldrb	r6, [r4, #21]
 8007976:	f8d4 a000 	ldr.w	sl, [r4]
 800797a:	2e00      	cmp	r6, #0
 800797c:	d1f1      	bne.n	8007962 <f_lseek+0x1e>
 800797e:	6ae0      	ldr	r0, [r4, #44]	; 0x2c
 8007980:	2800      	cmp	r0, #0
 8007982:	d049      	beq.n	8007a18 <f_lseek+0xd4>
 8007984:	1c6f      	adds	r7, r5, #1
 8007986:	f000 8097 	beq.w	8007ab8 <f_lseek+0x174>
 800798a:	68e1      	ldr	r1, [r4, #12]
 800798c:	428d      	cmp	r5, r1
 800798e:	bf28      	it	cs
 8007990:	460d      	movcs	r5, r1
 8007992:	61a5      	str	r5, [r4, #24]
 8007994:	2d00      	cmp	r5, #0
 8007996:	d0e4      	beq.n	8007962 <f_lseek+0x1e>
 8007998:	1e69      	subs	r1, r5, #1
 800799a:	f8ba 700a 	ldrh.w	r7, [sl, #10]
 800799e:	6843      	ldr	r3, [r0, #4]
 80079a0:	1d02      	adds	r2, r0, #4
 80079a2:	0a49      	lsrs	r1, r1, #9
 80079a4:	fbb1 f0f7 	udiv	r0, r1, r7
 80079a8:	b933      	cbnz	r3, 80079b8 <f_lseek+0x74>
 80079aa:	e11e      	b.n	8007bea <f_lseek+0x2a6>
 80079ac:	1ac0      	subs	r0, r0, r3
 80079ae:	f852 3f08 	ldr.w	r3, [r2, #8]!
 80079b2:	2b00      	cmp	r3, #0
 80079b4:	f000 8119 	beq.w	8007bea <f_lseek+0x2a6>
 80079b8:	4298      	cmp	r0, r3
 80079ba:	d2f7      	bcs.n	80079ac <f_lseek+0x68>
 80079bc:	6853      	ldr	r3, [r2, #4]
 80079be:	4403      	add	r3, r0
 80079c0:	1e9a      	subs	r2, r3, #2
 80079c2:	f8da 0018 	ldr.w	r0, [sl, #24]
 80079c6:	61e3      	str	r3, [r4, #28]
 80079c8:	1e83      	subs	r3, r0, #2
 80079ca:	4293      	cmp	r3, r2
 80079cc:	f240 80cf 	bls.w	8007b6e <f_lseek+0x22a>
 80079d0:	f8da 302c 	ldr.w	r3, [sl, #44]	; 0x2c
 80079d4:	fb02 3307 	mla	r3, r2, r7, r3
 80079d8:	2b00      	cmp	r3, #0
 80079da:	f000 80c8 	beq.w	8007b6e <f_lseek+0x22a>
 80079de:	f3c5 0508 	ubfx	r5, r5, #0, #9
 80079e2:	2d00      	cmp	r5, #0
 80079e4:	d0bd      	beq.n	8007962 <f_lseek+0x1e>
 80079e6:	3f01      	subs	r7, #1
 80079e8:	6a22      	ldr	r2, [r4, #32]
 80079ea:	4039      	ands	r1, r7
 80079ec:	18cf      	adds	r7, r1, r3
 80079ee:	42ba      	cmp	r2, r7
 80079f0:	d0b7      	beq.n	8007962 <f_lseek+0x1e>
 80079f2:	f994 3014 	ldrsb.w	r3, [r4, #20]
 80079f6:	f104 0130 	add.w	r1, r4, #48	; 0x30
 80079fa:	2b00      	cmp	r3, #0
 80079fc:	f2c0 8142 	blt.w	8007c84 <f_lseek+0x340>
 8007a00:	f89a 0001 	ldrb.w	r0, [sl, #1]
 8007a04:	2301      	movs	r3, #1
 8007a06:	463a      	mov	r2, r7
 8007a08:	f7fc ff18 	bl	800483c <disk_read>
 8007a0c:	4606      	mov	r6, r0
 8007a0e:	2800      	cmp	r0, #0
 8007a10:	f040 80aa 	bne.w	8007b68 <f_lseek+0x224>
 8007a14:	6227      	str	r7, [r4, #32]
 8007a16:	e7a4      	b.n	8007962 <f_lseek+0x1e>
 8007a18:	68e3      	ldr	r3, [r4, #12]
 8007a1a:	42ab      	cmp	r3, r5
 8007a1c:	d204      	bcs.n	8007a28 <f_lseek+0xe4>
 8007a1e:	7d22      	ldrb	r2, [r4, #20]
 8007a20:	f012 0f02 	tst.w	r2, #2
 8007a24:	bf08      	it	eq
 8007a26:	461d      	moveq	r5, r3
 8007a28:	2200      	movs	r2, #0
 8007a2a:	69a3      	ldr	r3, [r4, #24]
 8007a2c:	61a2      	str	r2, [r4, #24]
 8007a2e:	2d00      	cmp	r5, #0
 8007a30:	d097      	beq.n	8007962 <f_lseek+0x1e>
 8007a32:	f8ba 800a 	ldrh.w	r8, [sl, #10]
 8007a36:	ea4f 2848 	mov.w	r8, r8, lsl #9
 8007a3a:	2b00      	cmp	r3, #0
 8007a3c:	d035      	beq.n	8007aaa <f_lseek+0x166>
 8007a3e:	3b01      	subs	r3, #1
 8007a40:	1e6a      	subs	r2, r5, #1
 8007a42:	fbb3 f1f8 	udiv	r1, r3, r8
 8007a46:	fbb2 f2f8 	udiv	r2, r2, r8
 8007a4a:	428a      	cmp	r2, r1
 8007a4c:	d32d      	bcc.n	8007aaa <f_lseek+0x166>
 8007a4e:	f1c8 0200 	rsb	r2, r8, #0
 8007a52:	69e7      	ldr	r7, [r4, #28]
 8007a54:	4013      	ands	r3, r2
 8007a56:	1aed      	subs	r5, r5, r3
 8007a58:	61a3      	str	r3, [r4, #24]
 8007a5a:	2f00      	cmp	r7, #0
 8007a5c:	f000 80ec 	beq.w	8007c38 <f_lseek+0x2f4>
 8007a60:	4545      	cmp	r5, r8
 8007a62:	f240 80d3 	bls.w	8007c0c <f_lseek+0x2c8>
 8007a66:	4639      	mov	r1, r7
 8007a68:	e012      	b.n	8007a90 <f_lseek+0x14c>
 8007a6a:	f7fd fc01 	bl	8005270 <create_chain>
 8007a6e:	4601      	mov	r1, r0
 8007a70:	2800      	cmp	r0, #0
 8007a72:	f000 8126 	beq.w	8007cc2 <f_lseek+0x37e>
 8007a76:	1c4b      	adds	r3, r1, #1
 8007a78:	d076      	beq.n	8007b68 <f_lseek+0x224>
 8007a7a:	2901      	cmp	r1, #1
 8007a7c:	d977      	bls.n	8007b6e <f_lseek+0x22a>
 8007a7e:	f8da 3018 	ldr.w	r3, [sl, #24]
 8007a82:	428b      	cmp	r3, r1
 8007a84:	d973      	bls.n	8007b6e <f_lseek+0x22a>
 8007a86:	45a8      	cmp	r8, r5
 8007a88:	61e1      	str	r1, [r4, #28]
 8007a8a:	f080 80bd 	bcs.w	8007c08 <f_lseek+0x2c4>
 8007a8e:	69a3      	ldr	r3, [r4, #24]
 8007a90:	7d22      	ldrb	r2, [r4, #20]
 8007a92:	4443      	add	r3, r8
 8007a94:	4620      	mov	r0, r4
 8007a96:	eba5 0508 	sub.w	r5, r5, r8
 8007a9a:	0792      	lsls	r2, r2, #30
 8007a9c:	61a3      	str	r3, [r4, #24]
 8007a9e:	d4e4      	bmi.n	8007a6a <f_lseek+0x126>
 8007aa0:	6820      	ldr	r0, [r4, #0]
 8007aa2:	f7fd f853 	bl	8004b4c <get_fat.isra.0>
 8007aa6:	4601      	mov	r1, r0
 8007aa8:	e7e5      	b.n	8007a76 <f_lseek+0x132>
 8007aaa:	68a7      	ldr	r7, [r4, #8]
 8007aac:	2f00      	cmp	r7, #0
 8007aae:	f000 809f 	beq.w	8007bf0 <f_lseek+0x2ac>
 8007ab2:	2300      	movs	r3, #0
 8007ab4:	61e7      	str	r7, [r4, #28]
 8007ab6:	e7d0      	b.n	8007a5a <f_lseek+0x116>
 8007ab8:	4683      	mov	fp, r0
 8007aba:	68a3      	ldr	r3, [r4, #8]
 8007abc:	f85b 2b04 	ldr.w	r2, [fp], #4
 8007ac0:	9200      	str	r2, [sp, #0]
 8007ac2:	2b00      	cmp	r3, #0
 8007ac4:	f000 8088 	beq.w	8007bd8 <f_lseek+0x294>
 8007ac8:	2202      	movs	r2, #2
 8007aca:	4657      	mov	r7, sl
 8007acc:	4699      	mov	r9, r3
 8007ace:	9603      	str	r6, [sp, #12]
 8007ad0:	e9cd ba01 	strd	fp, sl, [sp, #4]
 8007ad4:	4692      	mov	sl, r2
 8007ad6:	46a3      	mov	fp, r4
 8007ad8:	464d      	mov	r5, r9
 8007ada:	2400      	movs	r4, #0
 8007adc:	2d01      	cmp	r5, #1
 8007ade:	f104 0401 	add.w	r4, r4, #1
 8007ae2:	d902      	bls.n	8007aea <f_lseek+0x1a6>
 8007ae4:	69bb      	ldr	r3, [r7, #24]
 8007ae6:	429d      	cmp	r5, r3
 8007ae8:	d303      	bcc.n	8007af2 <f_lseek+0x1ae>
 8007aea:	2602      	movs	r6, #2
 8007aec:	f88b 6015 	strb.w	r6, [fp, #21]
 8007af0:	e737      	b.n	8007962 <f_lseek+0x1e>
 8007af2:	783b      	ldrb	r3, [r7, #0]
 8007af4:	2b02      	cmp	r3, #2
 8007af6:	d02c      	beq.n	8007b52 <f_lseek+0x20e>
 8007af8:	2b03      	cmp	r3, #3
 8007afa:	d03e      	beq.n	8007b7a <f_lseek+0x236>
 8007afc:	2b01      	cmp	r3, #1
 8007afe:	d1f4      	bne.n	8007aea <f_lseek+0x1a6>
 8007b00:	eb05 0655 	add.w	r6, r5, r5, lsr #1
 8007b04:	6a7b      	ldr	r3, [r7, #36]	; 0x24
 8007b06:	6b3a      	ldr	r2, [r7, #48]	; 0x30
 8007b08:	eb03 2156 	add.w	r1, r3, r6, lsr #9
 8007b0c:	4291      	cmp	r1, r2
 8007b0e:	d005      	beq.n	8007b1c <f_lseek+0x1d8>
 8007b10:	4638      	mov	r0, r7
 8007b12:	f7fc ff43 	bl	800499c <move_window.part.0>
 8007b16:	bb30      	cbnz	r0, 8007b66 <f_lseek+0x222>
 8007b18:	6a7b      	ldr	r3, [r7, #36]	; 0x24
 8007b1a:	6b3a      	ldr	r2, [r7, #48]	; 0x30
 8007b1c:	f3c6 0008 	ubfx	r0, r6, #0, #9
 8007b20:	3601      	adds	r6, #1
 8007b22:	eb03 2156 	add.w	r1, r3, r6, lsr #9
 8007b26:	4438      	add	r0, r7
 8007b28:	4291      	cmp	r1, r2
 8007b2a:	f890 8034 	ldrb.w	r8, [r0, #52]	; 0x34
 8007b2e:	d003      	beq.n	8007b38 <f_lseek+0x1f4>
 8007b30:	4638      	mov	r0, r7
 8007b32:	f7fc ff33 	bl	800499c <move_window.part.0>
 8007b36:	b9b0      	cbnz	r0, 8007b66 <f_lseek+0x222>
 8007b38:	f3c6 0608 	ubfx	r6, r6, #0, #9
 8007b3c:	07e8      	lsls	r0, r5, #31
 8007b3e:	4437      	add	r7, r6
 8007b40:	f897 3034 	ldrb.w	r3, [r7, #52]	; 0x34
 8007b44:	ea48 2803 	orr.w	r8, r8, r3, lsl #8
 8007b48:	f140 80ad 	bpl.w	8007ca6 <f_lseek+0x362>
 8007b4c:	ea4f 1818 	mov.w	r8, r8, lsr #4
 8007b50:	e02d      	b.n	8007bae <f_lseek+0x26a>
 8007b52:	6a79      	ldr	r1, [r7, #36]	; 0x24
 8007b54:	6b3b      	ldr	r3, [r7, #48]	; 0x30
 8007b56:	eb01 2115 	add.w	r1, r1, r5, lsr #8
 8007b5a:	4299      	cmp	r1, r3
 8007b5c:	d031      	beq.n	8007bc2 <f_lseek+0x27e>
 8007b5e:	4638      	mov	r0, r7
 8007b60:	f7fc ff1c 	bl	800499c <move_window.part.0>
 8007b64:	b368      	cbz	r0, 8007bc2 <f_lseek+0x27e>
 8007b66:	465c      	mov	r4, fp
 8007b68:	2601      	movs	r6, #1
 8007b6a:	7566      	strb	r6, [r4, #21]
 8007b6c:	e6f9      	b.n	8007962 <f_lseek+0x1e>
 8007b6e:	2602      	movs	r6, #2
 8007b70:	4630      	mov	r0, r6
 8007b72:	7566      	strb	r6, [r4, #21]
 8007b74:	b005      	add	sp, #20
 8007b76:	e8bd 8ff0 	ldmia.w	sp!, {r4, r5, r6, r7, r8, r9, sl, fp, pc}
 8007b7a:	6a79      	ldr	r1, [r7, #36]	; 0x24
 8007b7c:	6b3b      	ldr	r3, [r7, #48]	; 0x30
 8007b7e:	eb01 11d5 	add.w	r1, r1, r5, lsr #7
 8007b82:	4299      	cmp	r1, r3
 8007b84:	d004      	beq.n	8007b90 <f_lseek+0x24c>
 8007b86:	4638      	mov	r0, r7
 8007b88:	f7fc ff08 	bl	800499c <move_window.part.0>
 8007b8c:	2800      	cmp	r0, #0
 8007b8e:	d1ea      	bne.n	8007b66 <f_lseek+0x222>
 8007b90:	00ab      	lsls	r3, r5, #2
 8007b92:	3734      	adds	r7, #52	; 0x34
 8007b94:	f403 73fe 	and.w	r3, r3, #508	; 0x1fc
 8007b98:	18fa      	adds	r2, r7, r3
 8007b9a:	f817 8003 	ldrb.w	r8, [r7, r3]
 8007b9e:	8851      	ldrh	r1, [r2, #2]
 8007ba0:	7853      	ldrb	r3, [r2, #1]
 8007ba2:	ea43 2301 	orr.w	r3, r3, r1, lsl #8
 8007ba6:	ea48 2803 	orr.w	r8, r8, r3, lsl #8
 8007baa:	f028 4870 	bic.w	r8, r8, #4026531840	; 0xf0000000
 8007bae:	f1b8 0f01 	cmp.w	r8, #1
 8007bb2:	d99a      	bls.n	8007aea <f_lseek+0x1a6>
 8007bb4:	3501      	adds	r5, #1
 8007bb6:	4545      	cmp	r5, r8
 8007bb8:	d150      	bne.n	8007c5c <f_lseek+0x318>
 8007bba:	4645      	mov	r5, r8
 8007bbc:	f8db 7000 	ldr.w	r7, [fp]
 8007bc0:	e78c      	b.n	8007adc <f_lseek+0x198>
 8007bc2:	006b      	lsls	r3, r5, #1
 8007bc4:	3734      	adds	r7, #52	; 0x34
 8007bc6:	f403 73ff 	and.w	r3, r3, #510	; 0x1fe
 8007bca:	18fa      	adds	r2, r7, r3
 8007bcc:	f817 8003 	ldrb.w	r8, [r7, r3]
 8007bd0:	7853      	ldrb	r3, [r2, #1]
 8007bd2:	ea48 2803 	orr.w	r8, r8, r3, lsl #8
 8007bd6:	e7ea      	b.n	8007bae <f_lseek+0x26a>
 8007bd8:	2202      	movs	r2, #2
 8007bda:	9b00      	ldr	r3, [sp, #0]
 8007bdc:	6002      	str	r2, [r0, #0]
 8007bde:	429a      	cmp	r2, r3
 8007be0:	d85f      	bhi.n	8007ca2 <f_lseek+0x35e>
 8007be2:	2300      	movs	r3, #0
 8007be4:	f8cb 3000 	str.w	r3, [fp]
 8007be8:	e6bb      	b.n	8007962 <f_lseek+0x1e>
 8007bea:	f06f 0201 	mvn.w	r2, #1
 8007bee:	e6e8      	b.n	80079c2 <f_lseek+0x7e>
 8007bf0:	4639      	mov	r1, r7
 8007bf2:	4620      	mov	r0, r4
 8007bf4:	f7fd fb3c 	bl	8005270 <create_chain>
 8007bf8:	2801      	cmp	r0, #1
 8007bfa:	4607      	mov	r7, r0
 8007bfc:	d0b7      	beq.n	8007b6e <f_lseek+0x22a>
 8007bfe:	1c41      	adds	r1, r0, #1
 8007c00:	d0b2      	beq.n	8007b68 <f_lseek+0x224>
 8007c02:	69a3      	ldr	r3, [r4, #24]
 8007c04:	60a0      	str	r0, [r4, #8]
 8007c06:	e755      	b.n	8007ab4 <f_lseek+0x170>
 8007c08:	460f      	mov	r7, r1
 8007c0a:	69a3      	ldr	r3, [r4, #24]
 8007c0c:	442b      	add	r3, r5
 8007c0e:	f3c5 0208 	ubfx	r2, r5, #0, #9
 8007c12:	61a3      	str	r3, [r4, #24]
 8007c14:	2a00      	cmp	r2, #0
 8007c16:	d057      	beq.n	8007cc8 <f_lseek+0x384>
 8007c18:	f8da 2018 	ldr.w	r2, [sl, #24]
 8007c1c:	1eb9      	subs	r1, r7, #2
 8007c1e:	3a02      	subs	r2, #2
 8007c20:	4291      	cmp	r1, r2
 8007c22:	d2a4      	bcs.n	8007b6e <f_lseek+0x22a>
 8007c24:	f8ba 700a 	ldrh.w	r7, [sl, #10]
 8007c28:	f8da 202c 	ldr.w	r2, [sl, #44]	; 0x2c
 8007c2c:	fb01 2707 	mla	r7, r1, r7, r2
 8007c30:	2f00      	cmp	r7, #0
 8007c32:	d09c      	beq.n	8007b6e <f_lseek+0x22a>
 8007c34:	eb07 2755 	add.w	r7, r7, r5, lsr #9
 8007c38:	68e2      	ldr	r2, [r4, #12]
 8007c3a:	429a      	cmp	r2, r3
 8007c3c:	d204      	bcs.n	8007c48 <f_lseek+0x304>
 8007c3e:	7d22      	ldrb	r2, [r4, #20]
 8007c40:	60e3      	str	r3, [r4, #12]
 8007c42:	f042 0240 	orr.w	r2, r2, #64	; 0x40
 8007c46:	7522      	strb	r2, [r4, #20]
 8007c48:	f3c3 0308 	ubfx	r3, r3, #0, #9
 8007c4c:	2b00      	cmp	r3, #0
 8007c4e:	f43f ae88 	beq.w	8007962 <f_lseek+0x1e>
 8007c52:	6a22      	ldr	r2, [r4, #32]
 8007c54:	42ba      	cmp	r2, r7
 8007c56:	f47f aecc 	bne.w	80079f2 <f_lseek+0xae>
 8007c5a:	e682      	b.n	8007962 <f_lseek+0x1e>
 8007c5c:	f10a 0a02 	add.w	sl, sl, #2
 8007c60:	9b00      	ldr	r3, [sp, #0]
 8007c62:	4553      	cmp	r3, sl
 8007c64:	d322      	bcc.n	8007cac <f_lseek+0x368>
 8007c66:	9b01      	ldr	r3, [sp, #4]
 8007c68:	4618      	mov	r0, r3
 8007c6a:	f840 4b08 	str.w	r4, [r0], #8
 8007c6e:	f8c3 9004 	str.w	r9, [r3, #4]
 8007c72:	9b02      	ldr	r3, [sp, #8]
 8007c74:	699a      	ldr	r2, [r3, #24]
 8007c76:	4590      	cmp	r8, r2
 8007c78:	d228      	bcs.n	8007ccc <f_lseek+0x388>
 8007c7a:	9001      	str	r0, [sp, #4]
 8007c7c:	46c1      	mov	r9, r8
 8007c7e:	f8db 7000 	ldr.w	r7, [fp]
 8007c82:	e729      	b.n	8007ad8 <f_lseek+0x194>
 8007c84:	2301      	movs	r3, #1
 8007c86:	f89a 0001 	ldrb.w	r0, [sl, #1]
 8007c8a:	9100      	str	r1, [sp, #0]
 8007c8c:	f7fc fde4 	bl	8004858 <disk_write>
 8007c90:	2800      	cmp	r0, #0
 8007c92:	f47f af69 	bne.w	8007b68 <f_lseek+0x224>
 8007c96:	7d23      	ldrb	r3, [r4, #20]
 8007c98:	9900      	ldr	r1, [sp, #0]
 8007c9a:	f003 037f 	and.w	r3, r3, #127	; 0x7f
 8007c9e:	7523      	strb	r3, [r4, #20]
 8007ca0:	e6ae      	b.n	8007a00 <f_lseek+0xbc>
 8007ca2:	2611      	movs	r6, #17
 8007ca4:	e65d      	b.n	8007962 <f_lseek+0x1e>
 8007ca6:	f3c8 080b 	ubfx	r8, r8, #0, #12
 8007caa:	e780      	b.n	8007bae <f_lseek+0x26a>
 8007cac:	9b02      	ldr	r3, [sp, #8]
 8007cae:	699a      	ldr	r2, [r3, #24]
 8007cb0:	4542      	cmp	r2, r8
 8007cb2:	d8e3      	bhi.n	8007c7c <f_lseek+0x338>
 8007cb4:	465c      	mov	r4, fp
 8007cb6:	4652      	mov	r2, sl
 8007cb8:	9e03      	ldr	r6, [sp, #12]
 8007cba:	f8dd b004 	ldr.w	fp, [sp, #4]
 8007cbe:	6ae0      	ldr	r0, [r4, #44]	; 0x2c
 8007cc0:	e78b      	b.n	8007bda <f_lseek+0x296>
 8007cc2:	4607      	mov	r7, r0
 8007cc4:	69a3      	ldr	r3, [r4, #24]
 8007cc6:	e7b7      	b.n	8007c38 <f_lseek+0x2f4>
 8007cc8:	4617      	mov	r7, r2
 8007cca:	e7b5      	b.n	8007c38 <f_lseek+0x2f4>
 8007ccc:	465c      	mov	r4, fp
 8007cce:	4652      	mov	r2, sl
 8007cd0:	9e03      	ldr	r6, [sp, #12]
 8007cd2:	4683      	mov	fp, r0
 8007cd4:	e7f3      	b.n	8007cbe <f_lseek+0x37a>
 8007cd6:	bf00      	nop

08007cd8 <f_opendir>:
 8007cd8:	b5f0      	push	{r4, r5, r6, r7, lr}
 8007cda:	b085      	sub	sp, #20
 8007cdc:	9101      	str	r1, [sp, #4]
 8007cde:	2800      	cmp	r0, #0
 8007ce0:	d037      	beq.n	8007d52 <f_opendir+0x7a>
 8007ce2:	4604      	mov	r4, r0
 8007ce4:	2200      	movs	r2, #0
 8007ce6:	a903      	add	r1, sp, #12
 8007ce8:	a801      	add	r0, sp, #4
 8007cea:	f7fd fbef 	bl	80054cc <find_volume>
 8007cee:	b118      	cbz	r0, 8007cf8 <f_opendir+0x20>
 8007cf0:	2300      	movs	r3, #0
 8007cf2:	6023      	str	r3, [r4, #0]
 8007cf4:	b005      	add	sp, #20
 8007cf6:	bdf0      	pop	{r4, r5, r6, r7, pc}
 8007cf8:	9b03      	ldr	r3, [sp, #12]
 8007cfa:	4620      	mov	r0, r4
 8007cfc:	9901      	ldr	r1, [sp, #4]
 8007cfe:	6023      	str	r3, [r4, #0]
 8007d00:	f7fe f8ec 	bl	8005edc <follow_path>
 8007d04:	bb08      	cbnz	r0, 8007d4a <f_opendir+0x72>
 8007d06:	f994 302f 	ldrsb.w	r3, [r4, #47]	; 0x2f
 8007d0a:	2b00      	cmp	r3, #0
 8007d0c:	db24      	blt.n	8007d58 <f_opendir+0x80>
 8007d0e:	79a3      	ldrb	r3, [r4, #6]
 8007d10:	06db      	lsls	r3, r3, #27
 8007d12:	d51c      	bpl.n	8007d4e <f_opendir+0x76>
 8007d14:	9a03      	ldr	r2, [sp, #12]
 8007d16:	6a21      	ldr	r1, [r4, #32]
 8007d18:	7810      	ldrb	r0, [r2, #0]
 8007d1a:	7ecd      	ldrb	r5, [r1, #27]
 8007d1c:	7e8b      	ldrb	r3, [r1, #26]
 8007d1e:	2803      	cmp	r0, #3
 8007d20:	ea43 2305 	orr.w	r3, r3, r5, lsl #8
 8007d24:	d105      	bne.n	8007d32 <f_opendir+0x5a>
 8007d26:	7d48      	ldrb	r0, [r1, #21]
 8007d28:	7d09      	ldrb	r1, [r1, #20]
 8007d2a:	ea41 2100 	orr.w	r1, r1, r0, lsl #8
 8007d2e:	ea43 4301 	orr.w	r3, r3, r1, lsl #16
 8007d32:	60a3      	str	r3, [r4, #8]
 8007d34:	88d3      	ldrh	r3, [r2, #6]
 8007d36:	2100      	movs	r1, #0
 8007d38:	4620      	mov	r0, r4
 8007d3a:	80a3      	strh	r3, [r4, #4]
 8007d3c:	f7fd fdb8 	bl	80058b0 <dir_sdi>
 8007d40:	b918      	cbnz	r0, 8007d4a <f_opendir+0x72>
 8007d42:	68a3      	ldr	r3, [r4, #8]
 8007d44:	b953      	cbnz	r3, 8007d5c <f_opendir+0x84>
 8007d46:	6120      	str	r0, [r4, #16]
 8007d48:	e7d4      	b.n	8007cf4 <f_opendir+0x1c>
 8007d4a:	2804      	cmp	r0, #4
 8007d4c:	d1d0      	bne.n	8007cf0 <f_opendir+0x18>
 8007d4e:	2005      	movs	r0, #5
 8007d50:	e7ce      	b.n	8007cf0 <f_opendir+0x18>
 8007d52:	2009      	movs	r0, #9
 8007d54:	b005      	add	sp, #20
 8007d56:	bdf0      	pop	{r4, r5, r6, r7, pc}
 8007d58:	9a03      	ldr	r2, [sp, #12]
 8007d5a:	e7eb      	b.n	8007d34 <f_opendir+0x5c>
 8007d5c:	4a1d      	ldr	r2, [pc, #116]	; (8007dd4 <f_opendir+0xfc>)
 8007d5e:	6825      	ldr	r5, [r4, #0]
 8007d60:	6811      	ldr	r1, [r2, #0]
 8007d62:	428d      	cmp	r5, r1
 8007d64:	d01e      	beq.n	8007da4 <f_opendir+0xcc>
 8007d66:	f8d2 c010 	ldr.w	ip, [r2, #16]
 8007d6a:	45ac      	cmp	ip, r5
 8007d6c:	d007      	beq.n	8007d7e <f_opendir+0xa6>
 8007d6e:	b319      	cbz	r1, 8007db8 <f_opendir+0xe0>
 8007d70:	f1bc 0f00 	cmp.w	ip, #0
 8007d74:	d01f      	beq.n	8007db6 <f_opendir+0xde>
 8007d76:	2300      	movs	r3, #0
 8007d78:	2012      	movs	r0, #18
 8007d7a:	6123      	str	r3, [r4, #16]
 8007d7c:	e7b8      	b.n	8007cf0 <f_opendir+0x18>
 8007d7e:	6957      	ldr	r7, [r2, #20]
 8007d80:	42bb      	cmp	r3, r7
 8007d82:	d1f4      	bne.n	8007d6e <f_opendir+0x96>
 8007d84:	6996      	ldr	r6, [r2, #24]
 8007d86:	6967      	ldr	r7, [r4, #20]
 8007d88:	42be      	cmp	r6, r7
 8007d8a:	d1f0      	bne.n	8007d6e <f_opendir+0x96>
 8007d8c:	2101      	movs	r1, #1
 8007d8e:	eb02 1301 	add.w	r3, r2, r1, lsl #4
 8007d92:	010f      	lsls	r7, r1, #4
 8007d94:	899d      	ldrh	r5, [r3, #12]
 8007d96:	3501      	adds	r5, #1
 8007d98:	b2ad      	uxth	r5, r5
 8007d9a:	443a      	add	r2, r7
 8007d9c:	3101      	adds	r1, #1
 8007d9e:	8195      	strh	r5, [r2, #12]
 8007da0:	6121      	str	r1, [r4, #16]
 8007da2:	e7a7      	b.n	8007cf4 <f_opendir+0x1c>
 8007da4:	6856      	ldr	r6, [r2, #4]
 8007da6:	42b3      	cmp	r3, r6
 8007da8:	d1dd      	bne.n	8007d66 <f_opendir+0x8e>
 8007daa:	6897      	ldr	r7, [r2, #8]
 8007dac:	6966      	ldr	r6, [r4, #20]
 8007dae:	42b7      	cmp	r7, r6
 8007db0:	d1d9      	bne.n	8007d66 <f_opendir+0x8e>
 8007db2:	4601      	mov	r1, r0
 8007db4:	e7eb      	b.n	8007d8e <f_opendir+0xb6>
 8007db6:	2101      	movs	r1, #1
 8007db8:	eb02 1c01 	add.w	ip, r2, r1, lsl #4
 8007dbc:	6966      	ldr	r6, [r4, #20]
 8007dbe:	010f      	lsls	r7, r1, #4
 8007dc0:	f04f 0e00 	mov.w	lr, #0
 8007dc4:	51d5      	str	r5, [r2, r7]
 8007dc6:	2501      	movs	r5, #1
 8007dc8:	f8ac e00c 	strh.w	lr, [ip, #12]
 8007dcc:	e9cc 3601 	strd	r3, r6, [ip, #4]
 8007dd0:	e7e3      	b.n	8007d9a <f_opendir+0xc2>
 8007dd2:	bf00      	nop
 8007dd4:	200000b4 	.word	0x200000b4

08007dd8 <f_closedir>:
 8007dd8:	b320      	cbz	r0, 8007e24 <f_closedir+0x4c>
 8007dda:	b538      	push	{r3, r4, r5, lr}
 8007ddc:	6803      	ldr	r3, [r0, #0]
 8007dde:	4604      	mov	r4, r0
 8007de0:	b12b      	cbz	r3, 8007dee <f_closedir+0x16>
 8007de2:	781a      	ldrb	r2, [r3, #0]
 8007de4:	b11a      	cbz	r2, 8007dee <f_closedir+0x16>
 8007de6:	8881      	ldrh	r1, [r0, #4]
 8007de8:	88da      	ldrh	r2, [r3, #6]
 8007dea:	4291      	cmp	r1, r2
 8007dec:	d001      	beq.n	8007df2 <f_closedir+0x1a>
 8007dee:	2009      	movs	r0, #9
 8007df0:	bd38      	pop	{r3, r4, r5, pc}
 8007df2:	7858      	ldrb	r0, [r3, #1]
 8007df4:	f7fc fd04 	bl	8004800 <disk_status>
 8007df8:	f010 0001 	ands.w	r0, r0, #1
 8007dfc:	d1f7      	bne.n	8007dee <f_closedir+0x16>
 8007dfe:	6923      	ldr	r3, [r4, #16]
 8007e00:	b16b      	cbz	r3, 8007e1e <f_closedir+0x46>
 8007e02:	3b01      	subs	r3, #1
 8007e04:	2b01      	cmp	r3, #1
 8007e06:	d80f      	bhi.n	8007e28 <f_closedir+0x50>
 8007e08:	490c      	ldr	r1, [pc, #48]	; (8007e3c <f_closedir+0x64>)
 8007e0a:	011d      	lsls	r5, r3, #4
 8007e0c:	eb01 1303 	add.w	r3, r1, r3, lsl #4
 8007e10:	899a      	ldrh	r2, [r3, #12]
 8007e12:	f5b2 7f80 	cmp.w	r2, #256	; 0x100
 8007e16:	d00f      	beq.n	8007e38 <f_closedir+0x60>
 8007e18:	b942      	cbnz	r2, 8007e2c <f_closedir+0x54>
 8007e1a:	2300      	movs	r3, #0
 8007e1c:	514b      	str	r3, [r1, r5]
 8007e1e:	2300      	movs	r3, #0
 8007e20:	6023      	str	r3, [r4, #0]
 8007e22:	bd38      	pop	{r3, r4, r5, pc}
 8007e24:	2009      	movs	r0, #9
 8007e26:	4770      	bx	lr
 8007e28:	2002      	movs	r0, #2
 8007e2a:	bd38      	pop	{r3, r4, r5, pc}
 8007e2c:	3a01      	subs	r2, #1
 8007e2e:	b292      	uxth	r2, r2
 8007e30:	819a      	strh	r2, [r3, #12]
 8007e32:	2a00      	cmp	r2, #0
 8007e34:	d1f3      	bne.n	8007e1e <f_closedir+0x46>
 8007e36:	e7f0      	b.n	8007e1a <f_closedir+0x42>
 8007e38:	8198      	strh	r0, [r3, #12]
 8007e3a:	e7ee      	b.n	8007e1a <f_closedir+0x42>
 8007e3c:	200000b4 	.word	0x200000b4

08007e40 <f_readdir>:
 8007e40:	b318      	cbz	r0, 8007e8a <f_readdir+0x4a>
 8007e42:	b538      	push	{r3, r4, r5, lr}
 8007e44:	6803      	ldr	r3, [r0, #0]
 8007e46:	4604      	mov	r4, r0
 8007e48:	b133      	cbz	r3, 8007e58 <f_readdir+0x18>
 8007e4a:	781a      	ldrb	r2, [r3, #0]
 8007e4c:	b122      	cbz	r2, 8007e58 <f_readdir+0x18>
 8007e4e:	460d      	mov	r5, r1
 8007e50:	88da      	ldrh	r2, [r3, #6]
 8007e52:	8881      	ldrh	r1, [r0, #4]
 8007e54:	4291      	cmp	r1, r2
 8007e56:	d001      	beq.n	8007e5c <f_readdir+0x1c>
 8007e58:	2009      	movs	r0, #9
 8007e5a:	bd38      	pop	{r3, r4, r5, pc}
 8007e5c:	7858      	ldrb	r0, [r3, #1]
 8007e5e:	f7fc fccf 	bl	8004800 <disk_status>
 8007e62:	07c3      	lsls	r3, r0, #31
 8007e64:	d4f8      	bmi.n	8007e58 <f_readdir+0x18>
 8007e66:	b195      	cbz	r5, 8007e8e <f_readdir+0x4e>
 8007e68:	4620      	mov	r0, r4
 8007e6a:	f7fc ff1f 	bl	8004cac <dir_read.constprop.0>
 8007e6e:	f010 0ffb 	tst.w	r0, #251	; 0xfb
 8007e72:	d1f2      	bne.n	8007e5a <f_readdir+0x1a>
 8007e74:	4629      	mov	r1, r5
 8007e76:	4620      	mov	r0, r4
 8007e78:	f7fc fd0a 	bl	8004890 <get_fileinfo>
 8007e7c:	4620      	mov	r0, r4
 8007e7e:	f7fc fed1 	bl	8004c24 <dir_next.constprop.0>
 8007e82:	2804      	cmp	r0, #4
 8007e84:	bf08      	it	eq
 8007e86:	2000      	moveq	r0, #0
 8007e88:	bd38      	pop	{r3, r4, r5, pc}
 8007e8a:	2009      	movs	r0, #9
 8007e8c:	4770      	bx	lr
 8007e8e:	4629      	mov	r1, r5
 8007e90:	4620      	mov	r0, r4
 8007e92:	e8bd 4038 	ldmia.w	sp!, {r3, r4, r5, lr}
 8007e96:	f7fd bd0b 	b.w	80058b0 <dir_sdi>
 8007e9a:	bf00      	nop

08007e9c <f_unlink>:
 8007e9c:	b530      	push	{r4, r5, lr}
 8007e9e:	b09f      	sub	sp, #124	; 0x7c
 8007ea0:	2202      	movs	r2, #2
 8007ea2:	9001      	str	r0, [sp, #4]
 8007ea4:	a903      	add	r1, sp, #12
 8007ea6:	a801      	add	r0, sp, #4
 8007ea8:	f7fd fb10 	bl	80054cc <find_volume>
 8007eac:	9b03      	ldr	r3, [sp, #12]
 8007eae:	9304      	str	r3, [sp, #16]
 8007eb0:	b108      	cbz	r0, 8007eb6 <f_unlink+0x1a>
 8007eb2:	b01f      	add	sp, #124	; 0x7c
 8007eb4:	bd30      	pop	{r4, r5, pc}
 8007eb6:	9901      	ldr	r1, [sp, #4]
 8007eb8:	a804      	add	r0, sp, #16
 8007eba:	f7fe f80f 	bl	8005edc <follow_path>
 8007ebe:	2800      	cmp	r0, #0
 8007ec0:	d1f7      	bne.n	8007eb2 <f_unlink+0x16>
 8007ec2:	4b2c      	ldr	r3, [pc, #176]	; (8007f74 <f_unlink+0xd8>)
 8007ec4:	9904      	ldr	r1, [sp, #16]
 8007ec6:	681a      	ldr	r2, [r3, #0]
 8007ec8:	9806      	ldr	r0, [sp, #24]
 8007eca:	9c09      	ldr	r4, [sp, #36]	; 0x24
 8007ecc:	b10a      	cbz	r2, 8007ed2 <f_unlink+0x36>
 8007ece:	428a      	cmp	r2, r1
 8007ed0:	d030      	beq.n	8007f34 <f_unlink+0x98>
 8007ed2:	691a      	ldr	r2, [r3, #16]
 8007ed4:	b10a      	cbz	r2, 8007eda <f_unlink+0x3e>
 8007ed6:	428a      	cmp	r2, r1
 8007ed8:	d034      	beq.n	8007f44 <f_unlink+0xa8>
 8007eda:	f99d 303f 	ldrsb.w	r3, [sp, #63]	; 0x3f
 8007ede:	2b00      	cmp	r3, #0
 8007ee0:	db26      	blt.n	8007f30 <f_unlink+0x94>
 8007ee2:	f89d 3016 	ldrb.w	r3, [sp, #22]
 8007ee6:	07da      	lsls	r2, r3, #31
 8007ee8:	d420      	bmi.n	8007f2c <f_unlink+0x90>
 8007eea:	9803      	ldr	r0, [sp, #12]
 8007eec:	9a0c      	ldr	r2, [sp, #48]	; 0x30
 8007eee:	7801      	ldrb	r1, [r0, #0]
 8007ef0:	7ed5      	ldrb	r5, [r2, #27]
 8007ef2:	7e94      	ldrb	r4, [r2, #26]
 8007ef4:	2903      	cmp	r1, #3
 8007ef6:	ea44 2405 	orr.w	r4, r4, r5, lsl #8
 8007efa:	d105      	bne.n	8007f08 <f_unlink+0x6c>
 8007efc:	7d51      	ldrb	r1, [r2, #21]
 8007efe:	7d12      	ldrb	r2, [r2, #20]
 8007f00:	ea42 2201 	orr.w	r2, r2, r1, lsl #8
 8007f04:	ea44 4402 	orr.w	r4, r4, r2, lsl #16
 8007f08:	06db      	lsls	r3, r3, #27
 8007f0a:	d422      	bmi.n	8007f52 <f_unlink+0xb6>
 8007f0c:	a804      	add	r0, sp, #16
 8007f0e:	f7fd fd95 	bl	8005a3c <dir_remove>
 8007f12:	b928      	cbnz	r0, 8007f20 <f_unlink+0x84>
 8007f14:	b124      	cbz	r4, 8007f20 <f_unlink+0x84>
 8007f16:	4621      	mov	r1, r4
 8007f18:	a804      	add	r0, sp, #16
 8007f1a:	2200      	movs	r2, #0
 8007f1c:	f7fe f97a 	bl	8006214 <remove_chain>
 8007f20:	2800      	cmp	r0, #0
 8007f22:	d1c6      	bne.n	8007eb2 <f_unlink+0x16>
 8007f24:	9803      	ldr	r0, [sp, #12]
 8007f26:	f7fd f931 	bl	800518c <sync_fs>
 8007f2a:	e7c2      	b.n	8007eb2 <f_unlink+0x16>
 8007f2c:	2007      	movs	r0, #7
 8007f2e:	e7c0      	b.n	8007eb2 <f_unlink+0x16>
 8007f30:	2006      	movs	r0, #6
 8007f32:	e7be      	b.n	8007eb2 <f_unlink+0x16>
 8007f34:	685a      	ldr	r2, [r3, #4]
 8007f36:	4290      	cmp	r0, r2
 8007f38:	d1cb      	bne.n	8007ed2 <f_unlink+0x36>
 8007f3a:	689a      	ldr	r2, [r3, #8]
 8007f3c:	4294      	cmp	r4, r2
 8007f3e:	d1c8      	bne.n	8007ed2 <f_unlink+0x36>
 8007f40:	2010      	movs	r0, #16
 8007f42:	e7b6      	b.n	8007eb2 <f_unlink+0x16>
 8007f44:	695a      	ldr	r2, [r3, #20]
 8007f46:	4282      	cmp	r2, r0
 8007f48:	d1c7      	bne.n	8007eda <f_unlink+0x3e>
 8007f4a:	699b      	ldr	r3, [r3, #24]
 8007f4c:	42a3      	cmp	r3, r4
 8007f4e:	d1c4      	bne.n	8007eda <f_unlink+0x3e>
 8007f50:	e7f6      	b.n	8007f40 <f_unlink+0xa4>
 8007f52:	9011      	str	r0, [sp, #68]	; 0x44
 8007f54:	2100      	movs	r1, #0
 8007f56:	a811      	add	r0, sp, #68	; 0x44
 8007f58:	9413      	str	r4, [sp, #76]	; 0x4c
 8007f5a:	f7fd fca9 	bl	80058b0 <dir_sdi>
 8007f5e:	2800      	cmp	r0, #0
 8007f60:	d1a7      	bne.n	8007eb2 <f_unlink+0x16>
 8007f62:	a811      	add	r0, sp, #68	; 0x44
 8007f64:	f7fc fea2 	bl	8004cac <dir_read.constprop.0>
 8007f68:	2800      	cmp	r0, #0
 8007f6a:	d0df      	beq.n	8007f2c <f_unlink+0x90>
 8007f6c:	2804      	cmp	r0, #4
 8007f6e:	d1a0      	bne.n	8007eb2 <f_unlink+0x16>
 8007f70:	e7cc      	b.n	8007f0c <f_unlink+0x70>
 8007f72:	bf00      	nop
 8007f74:	200000b4 	.word	0x200000b4

08007f78 <FATFS_LinkDriver>:
 8007f78:	4b10      	ldr	r3, [pc, #64]	; (8007fbc <FATFS_LinkDriver+0x44>)
 8007f7a:	b5f0      	push	{r4, r5, r6, r7, lr}
 8007f7c:	7a5c      	ldrb	r4, [r3, #9]
 8007f7e:	b9dc      	cbnz	r4, 8007fb8 <FATFS_LinkDriver+0x40>
 8007f80:	f893 e009 	ldrb.w	lr, [r3, #9]
 8007f84:	4602      	mov	r2, r0
 8007f86:	7a5e      	ldrb	r6, [r3, #9]
 8007f88:	f004 00ff 	and.w	r0, r4, #255	; 0xff
 8007f8c:	7a5d      	ldrb	r5, [r3, #9]
 8007f8e:	f04f 0c3a 	mov.w	ip, #58	; 0x3a
 8007f92:	7a5c      	ldrb	r4, [r3, #9]
 8007f94:	eb03 0686 	add.w	r6, r3, r6, lsl #2
 8007f98:	272f      	movs	r7, #47	; 0x2f
 8007f9a:	441d      	add	r5, r3
 8007f9c:	6072      	str	r2, [r6, #4]
 8007f9e:	1c62      	adds	r2, r4, #1
 8007fa0:	3430      	adds	r4, #48	; 0x30
 8007fa2:	7228      	strb	r0, [r5, #8]
 8007fa4:	b2d2      	uxtb	r2, r2
 8007fa6:	f803 000e 	strb.w	r0, [r3, lr]
 8007faa:	725a      	strb	r2, [r3, #9]
 8007fac:	700c      	strb	r4, [r1, #0]
 8007fae:	70c8      	strb	r0, [r1, #3]
 8007fb0:	f881 c001 	strb.w	ip, [r1, #1]
 8007fb4:	708f      	strb	r7, [r1, #2]
 8007fb6:	bdf0      	pop	{r4, r5, r6, r7, pc}
 8007fb8:	2001      	movs	r0, #1
 8007fba:	bdf0      	pop	{r4, r5, r6, r7, pc}
 8007fbc:	200002d8 	.word	0x200002d8

08007fc0 <CDDA_Stop.part.0>:
 8007fc0:	4b21      	ldr	r3, [pc, #132]	; (8008048 <CDDA_Stop.part.0+0x88>)
 8007fc2:	6819      	ldr	r1, [r3, #0]
 8007fc4:	461a      	mov	r2, r3
 8007fc6:	f021 0108 	bic.w	r1, r1, #8
 8007fca:	b570      	push	{r4, r5, r6, lr}
 8007fcc:	6019      	str	r1, [r3, #0]
 8007fce:	6819      	ldr	r1, [r3, #0]
 8007fd0:	f021 0108 	bic.w	r1, r1, #8
 8007fd4:	6019      	str	r1, [r3, #0]
 8007fd6:	6819      	ldr	r1, [r3, #0]
 8007fd8:	f021 0101 	bic.w	r1, r1, #1
 8007fdc:	6019      	str	r1, [r3, #0]
 8007fde:	6814      	ldr	r4, [r2, #0]
 8007fe0:	f014 0401 	ands.w	r4, r4, #1
 8007fe4:	d1fb      	bne.n	8007fde <CDDA_Stop.part.0+0x1e>
 8007fe6:	4b19      	ldr	r3, [pc, #100]	; (800804c <CDDA_Stop.part.0+0x8c>)
 8007fe8:	f04f 6174 	mov.w	r1, #255852544	; 0xf400000
 8007fec:	4a18      	ldr	r2, [pc, #96]	; (8008050 <CDDA_Stop.part.0+0x90>)
 8007fee:	4e19      	ldr	r6, [pc, #100]	; (8008054 <CDDA_Stop.part.0+0x94>)
 8007ff0:	6091      	str	r1, [r2, #8]
 8007ff2:	69da      	ldr	r2, [r3, #28]
 8007ff4:	4818      	ldr	r0, [pc, #96]	; (8008058 <CDDA_Stop.part.0+0x98>)
 8007ff6:	f422 6240 	bic.w	r2, r2, #3072	; 0xc00
 8007ffa:	61da      	str	r2, [r3, #28]
 8007ffc:	685a      	ldr	r2, [r3, #4]
 8007ffe:	f022 0202 	bic.w	r2, r2, #2
 8008002:	605a      	str	r2, [r3, #4]
 8008004:	f7fc fa0a 	bl	800441c <HAL_I2S_DeInit>
 8008008:	2380      	movs	r3, #128	; 0x80
 800800a:	6832      	ldr	r2, [r6, #0]
 800800c:	fa93 f1a3 	rbit	r1, r3
 8008010:	fab1 f181 	clz	r1, r1
 8008014:	fa93 f3a3 	rbit	r3, r3
 8008018:	2003      	movs	r0, #3
 800801a:	2501      	movs	r5, #1
 800801c:	fab3 f383 	clz	r3, r3
 8008020:	0049      	lsls	r1, r1, #1
 8008022:	40ab      	lsls	r3, r5
 8008024:	fa00 f101 	lsl.w	r1, r0, r1
 8008028:	480c      	ldr	r0, [pc, #48]	; (800805c <CDDA_Stop.part.0+0x9c>)
 800802a:	409d      	lsls	r5, r3
 800802c:	ea22 0301 	bic.w	r3, r2, r1
 8008030:	432b      	orrs	r3, r5
 8008032:	6033      	str	r3, [r6, #0]
 8008034:	f7ff fbfa 	bl	800782c <f_close>
 8008038:	4909      	ldr	r1, [pc, #36]	; (8008060 <CDDA_Stop.part.0+0xa0>)
 800803a:	4b0a      	ldr	r3, [pc, #40]	; (8008064 <CDDA_Stop.part.0+0xa4>)
 800803c:	f04f 32ff 	mov.w	r2, #4294967295
 8008040:	600c      	str	r4, [r1, #0]
 8008042:	601a      	str	r2, [r3, #0]
 8008044:	bd70      	pop	{r4, r5, r6, pc}
 8008046:	bf00      	nop
 8008048:	40026458 	.word	0x40026458
 800804c:	40013000 	.word	0x40013000
 8008050:	40026400 	.word	0x40026400
 8008054:	40020000 	.word	0x40020000
 8008058:	200089e0 	.word	0x200089e0
 800805c:	200087ac 	.word	0x200087ac
 8008060:	20000348 	.word	0x20000348
 8008064:	2000000c 	.word	0x2000000c

08008068 <CDDA_Stop>:
 8008068:	4b03      	ldr	r3, [pc, #12]	; (8008078 <CDDA_Stop+0x10>)
 800806a:	681b      	ldr	r3, [r3, #0]
 800806c:	f033 0302 	bics.w	r3, r3, #2
 8008070:	d101      	bne.n	8008076 <CDDA_Stop+0xe>
 8008072:	f7ff bfa5 	b.w	8007fc0 <CDDA_Stop.part.0>
 8008076:	4770      	bx	lr
 8008078:	20000348 	.word	0x20000348

0800807c <CDDA_Refill>:
 800807c:	e92d 43f0 	stmdb	sp!, {r4, r5, r6, r7, r8, r9, lr}
 8008080:	4e3a      	ldr	r6, [pc, #232]	; (800816c <CDDA_Refill+0xf0>)
 8008082:	b085      	sub	sp, #20
 8008084:	4605      	mov	r5, r0
 8008086:	460c      	mov	r4, r1
 8008088:	6833      	ldr	r3, [r6, #0]
 800808a:	b91b      	cbnz	r3, 8008094 <CDDA_Refill+0x18>
 800808c:	4f38      	ldr	r7, [pc, #224]	; (8008170 <CDDA_Refill+0xf4>)
 800808e:	683b      	ldr	r3, [r7, #0]
 8008090:	2b02      	cmp	r3, #2
 8008092:	d009      	beq.n	80080a8 <CDDA_Refill+0x2c>
 8008094:	0862      	lsrs	r2, r4, #1
 8008096:	d037      	beq.n	8008108 <CDDA_Refill+0x8c>
 8008098:	0052      	lsls	r2, r2, #1
 800809a:	4628      	mov	r0, r5
 800809c:	2100      	movs	r1, #0
 800809e:	b005      	add	sp, #20
 80080a0:	e8bd 43f0 	ldmia.w	sp!, {r4, r5, r6, r7, r8, r9, lr}
 80080a4:	f003 bddc 	b.w	800bc60 <memset>
 80080a8:	f8df 90dc 	ldr.w	r9, [pc, #220]	; 8008188 <CDDA_Refill+0x10c>
 80080ac:	4831      	ldr	r0, [pc, #196]	; (8008174 <CDDA_Refill+0xf8>)
 80080ae:	f8d9 1000 	ldr.w	r1, [r9]
 80080b2:	f7ff fc47 	bl	8007944 <f_lseek>
 80080b6:	bb50      	cbnz	r0, 800810e <CDDA_Refill+0x92>
 80080b8:	4b2f      	ldr	r3, [pc, #188]	; (8008178 <CDDA_Refill+0xfc>)
 80080ba:	681b      	ldr	r3, [r3, #0]
 80080bc:	bb73      	cbnz	r3, 800811c <CDDA_Refill+0xa0>
 80080be:	ab03      	add	r3, sp, #12
 80080c0:	4622      	mov	r2, r4
 80080c2:	4629      	mov	r1, r5
 80080c4:	482b      	ldr	r0, [pc, #172]	; (8008174 <CDDA_Refill+0xf8>)
 80080c6:	f7ff f91b 	bl	8007300 <f_read>
 80080ca:	9b03      	ldr	r3, [sp, #12]
 80080cc:	f8d9 2000 	ldr.w	r2, [r9]
 80080d0:	429c      	cmp	r4, r3
 80080d2:	eb05 0543 	add.w	r5, r5, r3, lsl #1
 80080d6:	441a      	add	r2, r3
 80080d8:	eba4 0803 	sub.w	r8, r4, r3
 80080dc:	f8c9 2000 	str.w	r2, [r9]
 80080e0:	d03e      	beq.n	8008160 <CDDA_Refill+0xe4>
 80080e2:	4b26      	ldr	r3, [pc, #152]	; (800817c <CDDA_Refill+0x100>)
 80080e4:	681b      	ldr	r3, [r3, #0]
 80080e6:	b38b      	cbz	r3, 800814c <CDDA_Refill+0xd0>
 80080e8:	4b25      	ldr	r3, [pc, #148]	; (8008180 <CDDA_Refill+0x104>)
 80080ea:	681b      	ldr	r3, [r3, #0]
 80080ec:	2b00      	cmp	r3, #0
 80080ee:	d139      	bne.n	8008164 <CDDA_Refill+0xe8>
 80080f0:	4b24      	ldr	r3, [pc, #144]	; (8008184 <CDDA_Refill+0x108>)
 80080f2:	681b      	ldr	r3, [r3, #0]
 80080f4:	332c      	adds	r3, #44	; 0x2c
 80080f6:	4644      	mov	r4, r8
 80080f8:	f8c9 3000 	str.w	r3, [r9]
 80080fc:	2800      	cmp	r0, #0
 80080fe:	d1c9      	bne.n	8008094 <CDDA_Refill+0x18>
 8008100:	6833      	ldr	r3, [r6, #0]
 8008102:	ea58 0303 	orrs.w	r3, r8, r3
 8008106:	d1c5      	bne.n	8008094 <CDDA_Refill+0x18>
 8008108:	b005      	add	sp, #20
 800810a:	e8bd 83f0 	ldmia.w	sp!, {r4, r5, r6, r7, r8, r9, pc}
 800810e:	683b      	ldr	r3, [r7, #0]
 8008110:	f033 0302 	bics.w	r3, r3, #2
 8008114:	d1be      	bne.n	8008094 <CDDA_Refill+0x18>
 8008116:	f7ff ff53 	bl	8007fc0 <CDDA_Stop.part.0>
 800811a:	e7bb      	b.n	8008094 <CDDA_Refill+0x18>
 800811c:	f8d9 2000 	ldr.w	r2, [r9]
 8008120:	1911      	adds	r1, r2, r4
 8008122:	428b      	cmp	r3, r1
 8008124:	d8cb      	bhi.n	80080be <CDDA_Refill+0x42>
 8008126:	eba3 0802 	sub.w	r8, r3, r2
 800812a:	4629      	mov	r1, r5
 800812c:	ab03      	add	r3, sp, #12
 800812e:	4811      	ldr	r0, [pc, #68]	; (8008174 <CDDA_Refill+0xf8>)
 8008130:	4642      	mov	r2, r8
 8008132:	f7ff f8e5 	bl	8007300 <f_read>
 8008136:	9a03      	ldr	r2, [sp, #12]
 8008138:	f8d9 3000 	ldr.w	r3, [r9]
 800813c:	eb05 0542 	add.w	r5, r5, r2, lsl #1
 8008140:	eba8 0802 	sub.w	r8, r8, r2
 8008144:	4413      	add	r3, r2
 8008146:	f8c9 3000 	str.w	r3, [r9]
 800814a:	e7ca      	b.n	80080e2 <CDDA_Refill+0x66>
 800814c:	683b      	ldr	r3, [r7, #0]
 800814e:	f033 0302 	bics.w	r3, r3, #2
 8008152:	d105      	bne.n	8008160 <CDDA_Refill+0xe4>
 8008154:	9001      	str	r0, [sp, #4]
 8008156:	4644      	mov	r4, r8
 8008158:	f7ff ff32 	bl	8007fc0 <CDDA_Stop.part.0>
 800815c:	9801      	ldr	r0, [sp, #4]
 800815e:	e7cd      	b.n	80080fc <CDDA_Refill+0x80>
 8008160:	4644      	mov	r4, r8
 8008162:	e7cb      	b.n	80080fc <CDDA_Refill+0x80>
 8008164:	4b07      	ldr	r3, [pc, #28]	; (8008184 <CDDA_Refill+0x108>)
 8008166:	681b      	ldr	r3, [r3, #0]
 8008168:	e7c5      	b.n	80080f6 <CDDA_Refill+0x7a>
 800816a:	bf00      	nop
 800816c:	20004c28 	.word	0x20004c28
 8008170:	20000348 	.word	0x20000348
 8008174:	200087ac 	.word	0x200087ac
 8008178:	20000338 	.word	0x20000338
 800817c:	20000340 	.word	0x20000340
 8008180:	20004c2c 	.word	0x20004c2c
 8008184:	20000334 	.word	0x20000334
 8008188:	20000330 	.word	0x20000330

0800818c <CDDA_Play>:
 800818c:	b5f8      	push	{r3, r4, r5, r6, r7, lr}
 800818e:	4e51      	ldr	r6, [pc, #324]	; (80082d4 <CDDA_Play+0x148>)
 8008190:	4604      	mov	r4, r0
 8008192:	460d      	mov	r5, r1
 8008194:	6833      	ldr	r3, [r6, #0]
 8008196:	f033 0302 	bics.w	r3, r3, #2
 800819a:	d101      	bne.n	80081a0 <CDDA_Play+0x14>
 800819c:	f7ff ff10 	bl	8007fc0 <CDDA_Stop.part.0>
 80081a0:	1ea3      	subs	r3, r4, #2
 80081a2:	2b61      	cmp	r3, #97	; 0x61
 80081a4:	d900      	bls.n	80081a8 <CDDA_Play+0x1c>
 80081a6:	bdf8      	pop	{r3, r4, r5, r6, r7, pc}
 80081a8:	4620      	mov	r0, r4
 80081aa:	f000 ff73 	bl	8009094 <OpenAudioTrack>
 80081ae:	2800      	cmp	r0, #0
 80081b0:	f040 8086 	bne.w	80082c0 <CDDA_Play+0x134>
 80081b4:	4948      	ldr	r1, [pc, #288]	; (80082d8 <CDDA_Play+0x14c>)
 80081b6:	2402      	movs	r4, #2
 80081b8:	4b48      	ldr	r3, [pc, #288]	; (80082dc <CDDA_Play+0x150>)
 80081ba:	6008      	str	r0, [r1, #0]
 80081bc:	681a      	ldr	r2, [r3, #0]
 80081be:	4948      	ldr	r1, [pc, #288]	; (80082e0 <CDDA_Play+0x154>)
 80081c0:	6034      	str	r4, [r6, #0]
 80081c2:	600d      	str	r5, [r1, #0]
 80081c4:	b912      	cbnz	r2, 80081cc <CDDA_Play+0x40>
 80081c6:	4a47      	ldr	r2, [pc, #284]	; (80082e4 <CDDA_Play+0x158>)
 80081c8:	68d2      	ldr	r2, [r2, #12]
 80081ca:	601a      	str	r2, [r3, #0]
 80081cc:	4b46      	ldr	r3, [pc, #280]	; (80082e8 <CDDA_Play+0x15c>)
 80081ce:	681b      	ldr	r3, [r3, #0]
 80081d0:	2b00      	cmp	r3, #0
 80081d2:	d078      	beq.n	80082c6 <CDDA_Play+0x13a>
 80081d4:	4b45      	ldr	r3, [pc, #276]	; (80082ec <CDDA_Play+0x160>)
 80081d6:	681b      	ldr	r3, [r3, #0]
 80081d8:	4d45      	ldr	r5, [pc, #276]	; (80082f0 <CDDA_Play+0x164>)
 80081da:	f44f 4180 	mov.w	r1, #16384	; 0x4000
 80081de:	4a45      	ldr	r2, [pc, #276]	; (80082f4 <CDDA_Play+0x168>)
 80081e0:	4e45      	ldr	r6, [pc, #276]	; (80082f8 <CDDA_Play+0x16c>)
 80081e2:	4628      	mov	r0, r5
 80081e4:	6013      	str	r3, [r2, #0]
 80081e6:	f7ff ff49 	bl	800807c <CDDA_Refill>
 80081ea:	2380      	movs	r3, #128	; 0x80
 80081ec:	6832      	ldr	r2, [r6, #0]
 80081ee:	fa93 f1a3 	rbit	r1, r3
 80081f2:	fab1 f181 	clz	r1, r1
 80081f6:	fa93 f3a3 	rbit	r3, r3
 80081fa:	2003      	movs	r0, #3
 80081fc:	fab3 f383 	clz	r3, r3
 8008200:	0049      	lsls	r1, r1, #1
 8008202:	f04f 0c02 	mov.w	ip, #2
 8008206:	005b      	lsls	r3, r3, #1
 8008208:	4f3c      	ldr	r7, [pc, #240]	; (80082fc <CDDA_Play+0x170>)
 800820a:	fa00 f101 	lsl.w	r1, r0, r1
 800820e:	2001      	movs	r0, #1
 8008210:	fa0c fc03 	lsl.w	ip, ip, r3
 8008214:	4c3a      	ldr	r4, [pc, #232]	; (8008300 <CDDA_Play+0x174>)
 8008216:	ea22 0301 	bic.w	r3, r2, r1
 800821a:	ea43 030c 	orr.w	r3, r3, ip
 800821e:	6033      	str	r3, [r6, #0]
 8008220:	f04f 6674 	mov.w	r6, #255852544	; 0xf400000
 8008224:	6a7b      	ldr	r3, [r7, #36]	; 0x24
 8008226:	f443 5380 	orr.w	r3, r3, #4096	; 0x1000
 800822a:	627b      	str	r3, [r7, #36]	; 0x24
 800822c:	f7fc fad6 	bl	80047dc <LL_mDelay>
 8008230:	6a7b      	ldr	r3, [r7, #36]	; 0x24
 8008232:	f423 5380 	bic.w	r3, r3, #4096	; 0x1000
 8008236:	627b      	str	r3, [r7, #36]	; 0x24
 8008238:	f001 fc38 	bl	8009aac <MX_I2S1_Init>
 800823c:	6823      	ldr	r3, [r4, #0]
 800823e:	4620      	mov	r0, r4
 8008240:	f023 0301 	bic.w	r3, r3, #1
 8008244:	6023      	str	r3, [r4, #0]
 8008246:	f003 fbe7 	bl	800ba18 <DMAResetRegisters>
 800824a:	6821      	ldr	r1, [r4, #0]
 800824c:	482d      	ldr	r0, [pc, #180]	; (8008304 <CDDA_Play+0x178>)
 800824e:	f021 51f0 	bic.w	r1, r1, #503316480	; 0x1e000000
 8008252:	4a2d      	ldr	r2, [pc, #180]	; (8008308 <CDDA_Play+0x17c>)
 8008254:	4b2d      	ldr	r3, [pc, #180]	; (800830c <CDDA_Play+0x180>)
 8008256:	6021      	str	r1, [r4, #0]
 8008258:	6086      	str	r6, [r0, #8]
 800825a:	6820      	ldr	r0, [r4, #0]
 800825c:	492c      	ldr	r1, [pc, #176]	; (8008310 <CDDA_Play+0x184>)
 800825e:	4002      	ands	r2, r0
 8008260:	4313      	orrs	r3, r2
 8008262:	6023      	str	r3, [r4, #0]
 8008264:	6823      	ldr	r3, [r4, #0]
 8008266:	f003 03c0 	and.w	r3, r3, #192	; 0xc0
 800826a:	2b40      	cmp	r3, #64	; 0x40
 800826c:	d02f      	beq.n	80082ce <CDDA_Play+0x142>
 800826e:	60a5      	str	r5, [r4, #8]
 8008270:	60e1      	str	r1, [r4, #12]
 8008272:	4b23      	ldr	r3, [pc, #140]	; (8008300 <CDDA_Play+0x174>)
 8008274:	f04f 6574 	mov.w	r5, #255852544	; 0xf400000
 8008278:	4a26      	ldr	r2, [pc, #152]	; (8008314 <CDDA_Play+0x188>)
 800827a:	6819      	ldr	r1, [r3, #0]
 800827c:	4c21      	ldr	r4, [pc, #132]	; (8008304 <CDDA_Play+0x178>)
 800827e:	f021 51f0 	bic.w	r1, r1, #503316480	; 0x1e000000
 8008282:	4825      	ldr	r0, [pc, #148]	; (8008318 <CDDA_Play+0x18c>)
 8008284:	f041 61c0 	orr.w	r1, r1, #100663296	; 0x6000000
 8008288:	6019      	str	r1, [r3, #0]
 800828a:	6859      	ldr	r1, [r3, #4]
 800828c:	400a      	ands	r2, r1
 800828e:	f442 5200 	orr.w	r2, r2, #8192	; 0x2000
 8008292:	605a      	str	r2, [r3, #4]
 8008294:	60a5      	str	r5, [r4, #8]
 8008296:	681a      	ldr	r2, [r3, #0]
 8008298:	f042 0208 	orr.w	r2, r2, #8
 800829c:	601a      	str	r2, [r3, #0]
 800829e:	681a      	ldr	r2, [r3, #0]
 80082a0:	f042 0210 	orr.w	r2, r2, #16
 80082a4:	601a      	str	r2, [r3, #0]
 80082a6:	681a      	ldr	r2, [r3, #0]
 80082a8:	f042 0201 	orr.w	r2, r2, #1
 80082ac:	601a      	str	r2, [r3, #0]
 80082ae:	69c3      	ldr	r3, [r0, #28]
 80082b0:	f443 6340 	orr.w	r3, r3, #3072	; 0xc00
 80082b4:	61c3      	str	r3, [r0, #28]
 80082b6:	6843      	ldr	r3, [r0, #4]
 80082b8:	f043 0302 	orr.w	r3, r3, #2
 80082bc:	6043      	str	r3, [r0, #4]
 80082be:	bdf8      	pop	{r3, r4, r5, r6, r7, pc}
 80082c0:	2300      	movs	r3, #0
 80082c2:	6033      	str	r3, [r6, #0]
 80082c4:	bdf8      	pop	{r3, r4, r5, r6, r7, pc}
 80082c6:	4b09      	ldr	r3, [pc, #36]	; (80082ec <CDDA_Play+0x160>)
 80082c8:	681b      	ldr	r3, [r3, #0]
 80082ca:	332c      	adds	r3, #44	; 0x2c
 80082cc:	e784      	b.n	80081d8 <CDDA_Play+0x4c>
 80082ce:	60e5      	str	r5, [r4, #12]
 80082d0:	60a1      	str	r1, [r4, #8]
 80082d2:	e7ce      	b.n	8008272 <CDDA_Play+0xe6>
 80082d4:	20000348 	.word	0x20000348
 80082d8:	20004c28 	.word	0x20004c28
 80082dc:	20000338 	.word	0x20000338
 80082e0:	20000340 	.word	0x20000340
 80082e4:	200087ac 	.word	0x200087ac
 80082e8:	20004c2c 	.word	0x20004c2c
 80082ec:	20000334 	.word	0x20000334
 80082f0:	200005b4 	.word	0x200005b4
 80082f4:	20000330 	.word	0x20000330
 80082f8:	40020000 	.word	0x40020000
 80082fc:	40023800 	.word	0x40023800
 8008300:	40026458 	.word	0x40026458
 8008304:	40026400 	.word	0x40026400
 8008308:	fffc801f 	.word	0xfffc801f
 800830c:	00022d40 	.word	0x00022d40
 8008310:	4001300c 	.word	0x4001300c
 8008314:	ffff0000 	.word	0xffff0000
 8008318:	40013000 	.word	0x40013000

0800831c <load_CD_sector>:
 800831c:	2208      	movs	r2, #8
 800831e:	4b1c      	ldr	r3, [pc, #112]	; (8008390 <load_CD_sector+0x74>)
 8008320:	b530      	push	{r4, r5, lr}
 8008322:	700a      	strb	r2, [r1, #0]
 8008324:	b083      	sub	sp, #12
 8008326:	681b      	ldr	r3, [r3, #0]
 8008328:	460c      	mov	r4, r1
 800832a:	4605      	mov	r5, r0
 800832c:	2b01      	cmp	r3, #1
 800832e:	d002      	beq.n	8008336 <load_CD_sector+0x1a>
 8008330:	f000 fe70 	bl	8009014 <OpenDataTrack>
 8008334:	b9b0      	cbnz	r0, 8008364 <load_CD_sector+0x48>
 8008336:	4b17      	ldr	r3, [pc, #92]	; (8008394 <load_CD_sector+0x78>)
 8008338:	7818      	ldrb	r0, [r3, #0]
 800833a:	f002 f8c9 	bl	800a4d0 <setLED>
 800833e:	4b16      	ldr	r3, [pc, #88]	; (8008398 <load_CD_sector+0x7c>)
 8008340:	4816      	ldr	r0, [pc, #88]	; (800839c <load_CD_sector+0x80>)
 8008342:	681b      	ldr	r3, [r3, #0]
 8008344:	f5b3 6f00 	cmp.w	r3, #2048	; 0x800
 8008348:	bf18      	it	ne
 800834a:	3510      	addne	r5, #16
 800834c:	4629      	mov	r1, r5
 800834e:	f7ff faf9 	bl	8007944 <f_lseek>
 8008352:	b158      	cbz	r0, 800836c <load_CD_sector+0x50>
 8008354:	2302      	movs	r3, #2
 8008356:	7063      	strb	r3, [r4, #1]
 8008358:	4b11      	ldr	r3, [pc, #68]	; (80083a0 <load_CD_sector+0x84>)
 800835a:	7818      	ldrb	r0, [r3, #0]
 800835c:	f002 f8b8 	bl	800a4d0 <setLED>
 8008360:	b003      	add	sp, #12
 8008362:	bd30      	pop	{r4, r5, pc}
 8008364:	2303      	movs	r3, #3
 8008366:	7063      	strb	r3, [r4, #1]
 8008368:	b003      	add	sp, #12
 800836a:	bd30      	pop	{r4, r5, pc}
 800836c:	ab01      	add	r3, sp, #4
 800836e:	f44f 6200 	mov.w	r2, #2048	; 0x800
 8008372:	f104 0108 	add.w	r1, r4, #8
 8008376:	4809      	ldr	r0, [pc, #36]	; (800839c <load_CD_sector+0x80>)
 8008378:	f7fe ffc2 	bl	8007300 <f_read>
 800837c:	b920      	cbnz	r0, 8008388 <load_CD_sector+0x6c>
 800837e:	7823      	ldrb	r3, [r4, #0]
 8008380:	f063 030f 	orn	r3, r3, #15
 8008384:	7023      	strb	r3, [r4, #0]
 8008386:	e7e7      	b.n	8008358 <load_CD_sector+0x3c>
 8008388:	2301      	movs	r3, #1
 800838a:	7063      	strb	r3, [r4, #1]
 800838c:	e7e4      	b.n	8008358 <load_CD_sector+0x3c>
 800838e:	bf00      	nop
 8008390:	20000348 	.word	0x20000348
 8008394:	20000009 	.word	0x20000009
 8008398:	200089dc 	.word	0x200089dc
 800839c:	200087ac 	.word	0x200087ac
 80083a0:	20000008 	.word	0x20000008

080083a4 <ExecCmd>:
 80083a4:	e92d 47f0 	stmdb	sp!, {r4, r5, r6, r7, r8, r9, sl, lr}
 80083a8:	2500      	movs	r5, #0
 80083aa:	4c99      	ldr	r4, [pc, #612]	; (8008610 <ExecCmd+0x26c>)
 80083ac:	4f99      	ldr	r7, [pc, #612]	; (8008614 <ExecCmd+0x270>)
 80083ae:	b0d6      	sub	sp, #344	; 0x158
 80083b0:	6025      	str	r5, [r4, #0]
 80083b2:	7923      	ldrb	r3, [r4, #4]
 80083b4:	4a98      	ldr	r2, [pc, #608]	; (8008618 <ExecCmd+0x274>)
 80083b6:	2b08      	cmp	r3, #8
 80083b8:	b2de      	uxtb	r6, r3
 80083ba:	603d      	str	r5, [r7, #0]
 80083bc:	6015      	str	r5, [r2, #0]
 80083be:	f000 8141 	beq.w	8008644 <ExecCmd+0x2a0>
 80083c2:	4b96      	ldr	r3, [pc, #600]	; (800861c <ExecCmd+0x278>)
 80083c4:	f04f 31ff 	mov.w	r1, #4294967295
 80083c8:	6019      	str	r1, [r3, #0]
 80083ca:	b986      	cbnz	r6, 80083ee <ExecCmd+0x4a>
 80083cc:	7960      	ldrb	r0, [r4, #5]
 80083ce:	22f0      	movs	r2, #240	; 0xf0
 80083d0:	4b93      	ldr	r3, [pc, #588]	; (8008620 <ExecCmd+0x27c>)
 80083d2:	4994      	ldr	r1, [pc, #592]	; (8008624 <ExecCmd+0x280>)
 80083d4:	f8df 8260 	ldr.w	r8, [pc, #608]	; 8008638 <ExecCmd+0x294>
 80083d8:	7058      	strb	r0, [r3, #1]
 80083da:	600b      	str	r3, [r1, #0]
 80083dc:	701a      	strb	r2, [r3, #0]
 80083de:	f8d8 3000 	ldr.w	r3, [r8]
 80083e2:	bb83      	cbnz	r3, 8008446 <ExecCmd+0xa2>
 80083e4:	2300      	movs	r3, #0
 80083e6:	7123      	strb	r3, [r4, #4]
 80083e8:	b056      	add	sp, #344	; 0x158
 80083ea:	e8bd 87f0 	ldmia.w	sp!, {r4, r5, r6, r7, r8, r9, sl, pc}
 80083ee:	2e01      	cmp	r6, #1
 80083f0:	d063      	beq.n	80084ba <ExecCmd+0x116>
 80083f2:	2e03      	cmp	r6, #3
 80083f4:	d053      	beq.n	800849e <ExecCmd+0xfa>
 80083f6:	2e04      	cmp	r6, #4
 80083f8:	d042      	beq.n	8008480 <ExecCmd+0xdc>
 80083fa:	2e05      	cmp	r6, #5
 80083fc:	f000 80e5 	beq.w	80085ca <ExecCmd+0x226>
 8008400:	2e06      	cmp	r6, #6
 8008402:	f000 80c6 	beq.w	8008592 <ExecCmd+0x1ee>
 8008406:	2e07      	cmp	r6, #7
 8008408:	f000 80a0 	beq.w	800854c <ExecCmd+0x1a8>
 800840c:	2e09      	cmp	r6, #9
 800840e:	f000 81b1 	beq.w	8008774 <ExecCmd+0x3d0>
 8008412:	2e0a      	cmp	r6, #10
 8008414:	f000 81e6 	beq.w	80087e4 <ExecCmd+0x440>
 8008418:	2e0b      	cmp	r6, #11
 800841a:	f000 8199 	beq.w	8008750 <ExecCmd+0x3ac>
 800841e:	2e0c      	cmp	r6, #12
 8008420:	f000 81ee 	beq.w	8008800 <ExecCmd+0x45c>
 8008424:	2e0d      	cmp	r6, #13
 8008426:	f000 82ae 	beq.w	8008986 <ExecCmd+0x5e2>
 800842a:	2e02      	cmp	r6, #2
 800842c:	f000 8254 	beq.w	80088d8 <ExecCmd+0x534>
 8008430:	4b7b      	ldr	r3, [pc, #492]	; (8008620 <ExecCmd+0x27c>)
 8008432:	f006 060f 	and.w	r6, r6, #15
 8008436:	497b      	ldr	r1, [pc, #492]	; (8008624 <ExecCmd+0x280>)
 8008438:	2200      	movs	r2, #0
 800843a:	f8df 81fc 	ldr.w	r8, [pc, #508]	; 8008638 <ExecCmd+0x294>
 800843e:	701e      	strb	r6, [r3, #0]
 8008440:	600b      	str	r3, [r1, #0]
 8008442:	705a      	strb	r2, [r3, #1]
 8008444:	e7cb      	b.n	80083de <ExecCmd+0x3a>
 8008446:	4d77      	ldr	r5, [pc, #476]	; (8008624 <ExecCmd+0x280>)
 8008448:	2200      	movs	r2, #0
 800844a:	682b      	ldr	r3, [r5, #0]
 800844c:	f8c8 2000 	str.w	r2, [r8]
 8008450:	8818      	ldrh	r0, [r3, #0]
 8008452:	f000 fbd5 	bl	8008c00 <WriteCPLDData>
 8008456:	682b      	ldr	r3, [r5, #0]
 8008458:	8858      	ldrh	r0, [r3, #2]
 800845a:	f000 fbd1 	bl	8008c00 <WriteCPLDData>
 800845e:	682b      	ldr	r3, [r5, #0]
 8008460:	8898      	ldrh	r0, [r3, #4]
 8008462:	f000 fbcd 	bl	8008c00 <WriteCPLDData>
 8008466:	682b      	ldr	r3, [r5, #0]
 8008468:	88d8      	ldrh	r0, [r3, #6]
 800846a:	f000 fbc9 	bl	8008c00 <WriteCPLDData>
 800846e:	2304      	movs	r3, #4
 8008470:	603b      	str	r3, [r7, #0]
 8008472:	f000 fc07 	bl	8008c84 <SetMCUBusOutput>
 8008476:	2300      	movs	r3, #0
 8008478:	7123      	strb	r3, [r4, #4]
 800847a:	b056      	add	sp, #344	; 0x158
 800847c:	e8bd 87f0 	ldmia.w	sp!, {r4, r5, r6, r7, r8, r9, sl, pc}
 8008480:	7963      	ldrb	r3, [r4, #5]
 8008482:	b1ab      	cbz	r3, 80084b0 <ExecCmd+0x10c>
 8008484:	79a0      	ldrb	r0, [r4, #6]
 8008486:	79e2      	ldrb	r2, [r4, #7]
 8008488:	7a23      	ldrb	r3, [r4, #8]
 800848a:	7a61      	ldrb	r1, [r4, #9]
 800848c:	021b      	lsls	r3, r3, #8
 800848e:	f8df 81a8 	ldr.w	r8, [pc, #424]	; 8008638 <ExecCmd+0x294>
 8008492:	eb03 4302 	add.w	r3, r3, r2, lsl #16
 8008496:	4419      	add	r1, r3
 8008498:	f000 fc28 	bl	8008cec <SetRunStock>
 800849c:	e79f      	b.n	80083de <ExecCmd+0x3a>
 800849e:	f003 f867 	bl	800b570 <DoUpdate>
 80084a2:	4b5f      	ldr	r3, [pc, #380]	; (8008620 <ExecCmd+0x27c>)
 80084a4:	4a5f      	ldr	r2, [pc, #380]	; (8008624 <ExecCmd+0x280>)
 80084a6:	701e      	strb	r6, [r3, #0]
 80084a8:	7058      	strb	r0, [r3, #1]
 80084aa:	6013      	str	r3, [r2, #0]
 80084ac:	2800      	cmp	r0, #0
 80084ae:	d148      	bne.n	8008542 <ExecCmd+0x19e>
 80084b0:	f8df 8184 	ldr.w	r8, [pc, #388]	; 8008638 <ExecCmd+0x294>
 80084b4:	f000 fbee 	bl	8008c94 <SetRunLoader>
 80084b8:	e791      	b.n	80083de <ExecCmd+0x3a>
 80084ba:	4b5b      	ldr	r3, [pc, #364]	; (8008628 <ExecCmd+0x284>)
 80084bc:	2209      	movs	r2, #9
 80084be:	f8df 9164 	ldr.w	r9, [pc, #356]	; 8008624 <ExecCmd+0x280>
 80084c2:	681b      	ldr	r3, [r3, #0]
 80084c4:	f8d9 6000 	ldr.w	r6, [r9]
 80084c8:	f3c3 4107 	ubfx	r1, r3, #16, #8
 80084cc:	0e18      	lsrs	r0, r3, #24
 80084ce:	7133      	strb	r3, [r6, #4]
 80084d0:	f3c3 2307 	ubfx	r3, r3, #8, #8
 80084d4:	70b1      	strb	r1, [r6, #2]
 80084d6:	4955      	ldr	r1, [pc, #340]	; (800862c <ExecCmd+0x288>)
 80084d8:	7070      	strb	r0, [r6, #1]
 80084da:	2007      	movs	r0, #7
 80084dc:	70f3      	strb	r3, [r6, #3]
 80084de:	680b      	ldr	r3, [r1, #0]
 80084e0:	f8df 8154 	ldr.w	r8, [pc, #340]	; 8008638 <ExecCmd+0x294>
 80084e4:	ea4f 6c13 	mov.w	ip, r3, lsr #24
 80084e8:	f3c3 4107 	ubfx	r1, r3, #16, #8
 80084ec:	7233      	strb	r3, [r6, #8]
 80084ee:	f3c3 2307 	ubfx	r3, r3, #8, #8
 80084f2:	f886 c005 	strb.w	ip, [r6, #5]
 80084f6:	71f3      	strb	r3, [r6, #7]
 80084f8:	4b4d      	ldr	r3, [pc, #308]	; (8008630 <ExecCmd+0x28c>)
 80084fa:	71b1      	strb	r1, [r6, #6]
 80084fc:	681b      	ldr	r3, [r3, #0]
 80084fe:	73b2      	strb	r2, [r6, #14]
 8008500:	0e19      	lsrs	r1, r3, #24
 8008502:	f3c3 4207 	ubfx	r2, r3, #16, #8
 8008506:	7333      	strb	r3, [r6, #12]
 8008508:	f3c3 2307 	ubfx	r3, r3, #8, #8
 800850c:	7375      	strb	r5, [r6, #13]
 800850e:	7271      	strb	r1, [r6, #9]
 8008510:	72b2      	strb	r2, [r6, #10]
 8008512:	72f3      	strb	r3, [r6, #11]
 8008514:	f001 fd36 	bl	8009f84 <JTAG_Code>
 8008518:	f8d9 3000 	ldr.w	r3, [r9]
 800851c:	74b0      	strb	r0, [r6, #18]
 800851e:	ea4f 6c10 	mov.w	ip, r0, lsr #24
 8008522:	f3c0 4507 	ubfx	r5, r0, #16, #8
 8008526:	f3c0 2007 	ubfx	r0, r0, #8, #8
 800852a:	4a3d      	ldr	r2, [pc, #244]	; (8008620 <ExecCmd+0x27c>)
 800852c:	21f1      	movs	r1, #241	; 0xf1
 800852e:	f886 c00f 	strb.w	ip, [r6, #15]
 8008532:	7435      	strb	r5, [r6, #16]
 8008534:	7470      	strb	r0, [r6, #17]
 8008536:	785b      	ldrb	r3, [r3, #1]
 8008538:	f8c9 2000 	str.w	r2, [r9]
 800853c:	7053      	strb	r3, [r2, #1]
 800853e:	7011      	strb	r1, [r2, #0]
 8008540:	e74d      	b.n	80083de <ExecCmd+0x3a>
 8008542:	2802      	cmp	r0, #2
 8008544:	d85c      	bhi.n	8008600 <ExecCmd+0x25c>
 8008546:	f8df 80f0 	ldr.w	r8, [pc, #240]	; 8008638 <ExecCmd+0x294>
 800854a:	e748      	b.n	80083de <ExecCmd+0x3a>
 800854c:	7961      	ldrb	r1, [r4, #5]
 800854e:	f8df 80ec 	ldr.w	r8, [pc, #236]	; 800863c <ExecCmd+0x298>
 8008552:	b2c9      	uxtb	r1, r1
 8008554:	f8df a0e8 	ldr.w	sl, [pc, #232]	; 8008640 <ExecCmd+0x29c>
 8008558:	29ff      	cmp	r1, #255	; 0xff
 800855a:	f8c8 1000 	str.w	r1, [r8]
 800855e:	f8ca 5000 	str.w	r5, [sl]
 8008562:	f000 80e1 	beq.w	8008728 <ExecCmd+0x384>
 8008566:	eb01 2101 	add.w	r1, r1, r1, lsl #8
 800856a:	4d32      	ldr	r5, [pc, #200]	; (8008634 <ExecCmd+0x290>)
 800856c:	a803      	add	r0, sp, #12
 800856e:	4429      	add	r1, r5
 8008570:	f7ff fbb2 	bl	8007cd8 <f_opendir>
 8008574:	4681      	mov	r9, r0
 8008576:	2800      	cmp	r0, #0
 8008578:	f000 8156 	beq.w	8008828 <ExecCmd+0x484>
 800857c:	4b29      	ldr	r3, [pc, #164]	; (8008624 <ExecCmd+0x280>)
 800857e:	f04f 0903 	mov.w	r9, #3
 8008582:	4d27      	ldr	r5, [pc, #156]	; (8008620 <ExecCmd+0x27c>)
 8008584:	601d      	str	r5, [r3, #0]
 8008586:	f8df 80b0 	ldr.w	r8, [pc, #176]	; 8008638 <ExecCmd+0x294>
 800858a:	702e      	strb	r6, [r5, #0]
 800858c:	f885 9001 	strb.w	r9, [r5, #1]
 8008590:	e725      	b.n	80083de <ExecCmd+0x3a>
 8008592:	7963      	ldrb	r3, [r4, #5]
 8008594:	b333      	cbz	r3, 80085e4 <ExecCmd+0x240>
 8008596:	4e23      	ldr	r6, [pc, #140]	; (8008624 <ExecCmd+0x280>)
 8008598:	4629      	mov	r1, r5
 800859a:	f44f 7280 	mov.w	r2, #256	; 0x100
 800859e:	f8df 8098 	ldr.w	r8, [pc, #152]	; 8008638 <ExecCmd+0x294>
 80085a2:	6835      	ldr	r5, [r6, #0]
 80085a4:	3508      	adds	r5, #8
 80085a6:	4628      	mov	r0, r5
 80085a8:	f003 fb5a 	bl	800bc60 <memset>
 80085ac:	79a3      	ldrb	r3, [r4, #6]
 80085ae:	4921      	ldr	r1, [pc, #132]	; (8008634 <ExecCmd+0x290>)
 80085b0:	f44f 7280 	mov.w	r2, #256	; 0x100
 80085b4:	eb03 2303 	add.w	r3, r3, r3, lsl #8
 80085b8:	4628      	mov	r0, r5
 80085ba:	4419      	add	r1, r3
 80085bc:	f003 fc7e 	bl	800bebc <strncpy>
 80085c0:	4b17      	ldr	r3, [pc, #92]	; (8008620 <ExecCmd+0x27c>)
 80085c2:	22f6      	movs	r2, #246	; 0xf6
 80085c4:	6033      	str	r3, [r6, #0]
 80085c6:	801a      	strh	r2, [r3, #0]
 80085c8:	e709      	b.n	80083de <ExecCmd+0x3a>
 80085ca:	f002 fa6d 	bl	800aaa8 <SD_Init>
 80085ce:	2800      	cmp	r0, #0
 80085d0:	f000 809d 	beq.w	800870e <ExecCmd+0x36a>
 80085d4:	4b12      	ldr	r3, [pc, #72]	; (8008620 <ExecCmd+0x27c>)
 80085d6:	4a13      	ldr	r2, [pc, #76]	; (8008624 <ExecCmd+0x280>)
 80085d8:	f8df 805c 	ldr.w	r8, [pc, #92]	; 8008638 <ExecCmd+0x294>
 80085dc:	6013      	str	r3, [r2, #0]
 80085de:	701e      	strb	r6, [r3, #0]
 80085e0:	7058      	strb	r0, [r3, #1]
 80085e2:	e6fc      	b.n	80083de <ExecCmd+0x3a>
 80085e4:	2001      	movs	r0, #1
 80085e6:	4d0e      	ldr	r5, [pc, #56]	; (8008620 <ExecCmd+0x27c>)
 80085e8:	f000 fe1e 	bl	8009228 <listfiles>
 80085ec:	2800      	cmp	r0, #0
 80085ee:	4b0d      	ldr	r3, [pc, #52]	; (8008624 <ExecCmd+0x280>)
 80085f0:	bfa8      	it	ge
 80085f2:	26f6      	movge	r6, #246	; 0xf6
 80085f4:	f8df 8040 	ldr.w	r8, [pc, #64]	; 8008638 <ExecCmd+0x294>
 80085f8:	601d      	str	r5, [r3, #0]
 80085fa:	7068      	strb	r0, [r5, #1]
 80085fc:	702e      	strb	r6, [r5, #0]
 80085fe:	e6ee      	b.n	80083de <ExecCmd+0x3a>
 8008600:	4629      	mov	r1, r5
 8008602:	4628      	mov	r0, r5
 8008604:	f8df 8030 	ldr.w	r8, [pc, #48]	; 8008638 <ExecCmd+0x294>
 8008608:	f000 fb70 	bl	8008cec <SetRunStock>
 800860c:	e6e7      	b.n	80083de <ExecCmd+0x3a>
 800860e:	bf00      	nop
 8008610:	200002e4 	.word	0x200002e4
 8008614:	2000035c 	.word	0x2000035c
 8008618:	20000368 	.word	0x20000368
 800861c:	2000000c 	.word	0x2000000c
 8008620:	20006d08 	.word	0x20006d08
 8008624:	20000010 	.word	0x20000010
 8008628:	1ff07a10 	.word	0x1ff07a10
 800862c:	1ff07a14 	.word	0x1ff07a14
 8008630:	1ff07a18 	.word	0x1ff07a18
 8008634:	20008a24 	.word	0x20008a24
 8008638:	20000350 	.word	0x20000350
 800863c:	20000358 	.word	0x20000358
 8008640:	20000348 	.word	0x20000348
 8008644:	f7ff fd10 	bl	8008068 <CDDA_Stop>
 8008648:	7960      	ldrb	r0, [r4, #5]
 800864a:	f003 fa91 	bl	800bb70 <BCDtoHex>
 800864e:	f241 1194 	movw	r1, #4500	; 0x1194
 8008652:	4602      	mov	r2, r0
 8008654:	f8df 8318 	ldr.w	r8, [pc, #792]	; 8008970 <ExecCmd+0x5cc>
 8008658:	4bb6      	ldr	r3, [pc, #728]	; (8008934 <ExecCmd+0x590>)
 800865a:	fb01 f202 	mul.w	r2, r1, r2
 800865e:	79a0      	ldrb	r0, [r4, #6]
 8008660:	9301      	str	r3, [sp, #4]
 8008662:	f8c8 2000 	str.w	r2, [r8]
 8008666:	f003 fa83 	bl	800bb70 <BCDtoHex>
 800866a:	4602      	mov	r2, r0
 800866c:	f8d8 1000 	ldr.w	r1, [r8]
 8008670:	79e0      	ldrb	r0, [r4, #7]
 8008672:	eb02 0282 	add.w	r2, r2, r2, lsl #2
 8008676:	f8df 92e8 	ldr.w	r9, [pc, #744]	; 8008960 <ExecCmd+0x5bc>
 800867a:	ebc2 1202 	rsb	r2, r2, r2, lsl #4
 800867e:	440a      	add	r2, r1
 8008680:	f8c8 2000 	str.w	r2, [r8]
 8008684:	f003 fa74 	bl	800bb70 <BCDtoHex>
 8008688:	f8d8 1000 	ldr.w	r1, [r8]
 800868c:	9b01      	ldr	r3, [sp, #4]
 800868e:	3996      	subs	r1, #150	; 0x96
 8008690:	f8d9 2000 	ldr.w	r2, [r9]
 8008694:	681d      	ldr	r5, [r3, #0]
 8008696:	4408      	add	r0, r1
 8008698:	4415      	add	r5, r2
 800869a:	fb02 f000 	mul.w	r0, r2, r0
 800869e:	42a8      	cmp	r0, r5
 80086a0:	f8c8 0000 	str.w	r0, [r8]
 80086a4:	f040 80d1 	bne.w	800884a <ExecCmd+0x4a6>
 80086a8:	4ea3      	ldr	r6, [pc, #652]	; (8008938 <ExecCmd+0x594>)
 80086aa:	4da4      	ldr	r5, [pc, #656]	; (800893c <ExecCmd+0x598>)
 80086ac:	6832      	ldr	r2, [r6, #0]
 80086ae:	f8df a2ac 	ldr.w	sl, [pc, #684]	; 800895c <ExecCmd+0x5b8>
 80086b2:	42aa      	cmp	r2, r5
 80086b4:	bf0c      	ite	eq
 80086b6:	4652      	moveq	r2, sl
 80086b8:	462a      	movne	r2, r5
 80086ba:	8810      	ldrh	r0, [r2, #0]
 80086bc:	6032      	str	r2, [r6, #0]
 80086be:	f000 fa9f 	bl	8008c00 <WriteCPLDData>
 80086c2:	6832      	ldr	r2, [r6, #0]
 80086c4:	8850      	ldrh	r0, [r2, #2]
 80086c6:	f000 fa9b 	bl	8008c00 <WriteCPLDData>
 80086ca:	6832      	ldr	r2, [r6, #0]
 80086cc:	8890      	ldrh	r0, [r2, #4]
 80086ce:	f000 fa97 	bl	8008c00 <WriteCPLDData>
 80086d2:	6832      	ldr	r2, [r6, #0]
 80086d4:	88d0      	ldrh	r0, [r2, #6]
 80086d6:	f000 fa93 	bl	8008c00 <WriteCPLDData>
 80086da:	2204      	movs	r2, #4
 80086dc:	603a      	str	r2, [r7, #0]
 80086de:	f000 fad1 	bl	8008c84 <SetMCUBusOutput>
 80086e2:	6831      	ldr	r1, [r6, #0]
 80086e4:	f8d9 0000 	ldr.w	r0, [r9]
 80086e8:	f8d8 2000 	ldr.w	r2, [r8]
 80086ec:	42a9      	cmp	r1, r5
 80086ee:	bf0c      	ite	eq
 80086f0:	4651      	moveq	r1, sl
 80086f2:	4629      	movne	r1, r5
 80086f4:	4410      	add	r0, r2
 80086f6:	f7ff fe11 	bl	800831c <load_CD_sector>
 80086fa:	9b01      	ldr	r3, [sp, #4]
 80086fc:	f8d8 1000 	ldr.w	r1, [r8]
 8008700:	2200      	movs	r2, #0
 8008702:	f8df 8270 	ldr.w	r8, [pc, #624]	; 8008974 <ExecCmd+0x5d0>
 8008706:	6019      	str	r1, [r3, #0]
 8008708:	f8c8 2000 	str.w	r2, [r8]
 800870c:	e667      	b.n	80083de <ExecCmd+0x3a>
 800870e:	2201      	movs	r2, #1
 8008710:	498b      	ldr	r1, [pc, #556]	; (8008940 <ExecCmd+0x59c>)
 8008712:	488c      	ldr	r0, [pc, #560]	; (8008944 <ExecCmd+0x5a0>)
 8008714:	f7fe fbae 	bl	8006e74 <f_mount>
 8008718:	2800      	cmp	r0, #0
 800871a:	f040 80bb 	bne.w	8008894 <ExecCmd+0x4f0>
 800871e:	498a      	ldr	r1, [pc, #552]	; (8008948 <ExecCmd+0x5a4>)
 8008720:	22f5      	movs	r2, #245	; 0xf5
 8008722:	4b86      	ldr	r3, [pc, #536]	; (800893c <ExecCmd+0x598>)
 8008724:	7808      	ldrb	r0, [r1, #0]
 8008726:	e654      	b.n	80083d2 <ExecCmd+0x2e>
 8008728:	4888      	ldr	r0, [pc, #544]	; (800894c <ExecCmd+0x5a8>)
 800872a:	9301      	str	r3, [sp, #4]
 800872c:	f7ff f87e 	bl	800782c <f_close>
 8008730:	2201      	movs	r2, #1
 8008732:	4987      	ldr	r1, [pc, #540]	; (8008950 <ExecCmd+0x5ac>)
 8008734:	4885      	ldr	r0, [pc, #532]	; (800894c <ExecCmd+0x5a8>)
 8008736:	f7fe fbe5 	bl	8006f04 <f_open>
 800873a:	9b01      	ldr	r3, [sp, #4]
 800873c:	4681      	mov	r9, r0
 800873e:	2800      	cmp	r0, #0
 8008740:	f000 80b1 	beq.w	80088a6 <ExecCmd+0x502>
 8008744:	4b7c      	ldr	r3, [pc, #496]	; (8008938 <ExecCmd+0x594>)
 8008746:	f04f 0901 	mov.w	r9, #1
 800874a:	4d7c      	ldr	r5, [pc, #496]	; (800893c <ExecCmd+0x598>)
 800874c:	601d      	str	r5, [r3, #0]
 800874e:	e71a      	b.n	8008586 <ExecCmd+0x1e2>
 8008750:	7963      	ldrb	r3, [r4, #5]
 8008752:	2b00      	cmp	r3, #0
 8008754:	f040 80b6 	bne.w	80088c4 <ExecCmd+0x520>
 8008758:	2002      	movs	r0, #2
 800875a:	f000 fd65 	bl	8009228 <listfiles>
 800875e:	2800      	cmp	r0, #0
 8008760:	4d76      	ldr	r5, [pc, #472]	; (800893c <ExecCmd+0x598>)
 8008762:	4b75      	ldr	r3, [pc, #468]	; (8008938 <ExecCmd+0x594>)
 8008764:	bfa8      	it	ge
 8008766:	26fb      	movge	r6, #251	; 0xfb
 8008768:	f8df 8208 	ldr.w	r8, [pc, #520]	; 8008974 <ExecCmd+0x5d0>
 800876c:	7068      	strb	r0, [r5, #1]
 800876e:	601d      	str	r5, [r3, #0]
 8008770:	702e      	strb	r6, [r5, #0]
 8008772:	e634      	b.n	80083de <ExecCmd+0x3a>
 8008774:	7966      	ldrb	r6, [r4, #5]
 8008776:	79a0      	ldrb	r0, [r4, #6]
 8008778:	b2f6      	uxtb	r6, r6
 800877a:	f8df 91bc 	ldr.w	r9, [pc, #444]	; 8008938 <ExecCmd+0x594>
 800877e:	f003 f9f7 	bl	800bb70 <BCDtoHex>
 8008782:	4b6e      	ldr	r3, [pc, #440]	; (800893c <ExecCmd+0x598>)
 8008784:	f066 020f 	orn	r2, r6, #15
 8008788:	f8df 81e8 	ldr.w	r8, [pc, #488]	; 8008974 <ExecCmd+0x5d0>
 800878c:	705d      	strb	r5, [r3, #1]
 800878e:	fa5f fa80 	uxtb.w	sl, r0
 8008792:	701a      	strb	r2, [r3, #0]
 8008794:	8818      	ldrh	r0, [r3, #0]
 8008796:	f8c9 3000 	str.w	r3, [r9]
 800879a:	f8c8 5000 	str.w	r5, [r8]
 800879e:	f000 fa2f 	bl	8008c00 <WriteCPLDData>
 80087a2:	f8d9 3000 	ldr.w	r3, [r9]
 80087a6:	8858      	ldrh	r0, [r3, #2]
 80087a8:	f000 fa2a 	bl	8008c00 <WriteCPLDData>
 80087ac:	f8d9 3000 	ldr.w	r3, [r9]
 80087b0:	8898      	ldrh	r0, [r3, #4]
 80087b2:	f000 fa25 	bl	8008c00 <WriteCPLDData>
 80087b6:	f8d9 3000 	ldr.w	r3, [r9]
 80087ba:	88d8      	ldrh	r0, [r3, #6]
 80087bc:	f000 fa20 	bl	8008c00 <WriteCPLDData>
 80087c0:	2304      	movs	r3, #4
 80087c2:	603b      	str	r3, [r7, #0]
 80087c4:	f000 fa5e 	bl	8008c84 <SetMCUBusOutput>
 80087c8:	f016 0603 	ands.w	r6, r6, #3
 80087cc:	f000 80d6 	beq.w	800897c <ExecCmd+0x5d8>
 80087d0:	2e01      	cmp	r6, #1
 80087d2:	f000 8116 	beq.w	8008a02 <ExecCmd+0x65e>
 80087d6:	2e02      	cmp	r6, #2
 80087d8:	4b5e      	ldr	r3, [pc, #376]	; (8008954 <ExecCmd+0x5b0>)
 80087da:	bf0c      	ite	eq
 80087dc:	2201      	moveq	r2, #1
 80087de:	2200      	movne	r2, #0
 80087e0:	601a      	str	r2, [r3, #0]
 80087e2:	e5fc      	b.n	80083de <ExecCmd+0x3a>
 80087e4:	f002 fe4e 	bl	800b484 <DumpSystemROM>
 80087e8:	2800      	cmp	r0, #0
 80087ea:	f040 80ef 	bne.w	80089cc <ExecCmd+0x628>
 80087ee:	4b53      	ldr	r3, [pc, #332]	; (800893c <ExecCmd+0x598>)
 80087f0:	f44f 7285 	mov.w	r2, #266	; 0x10a
 80087f4:	4950      	ldr	r1, [pc, #320]	; (8008938 <ExecCmd+0x594>)
 80087f6:	f8df 817c 	ldr.w	r8, [pc, #380]	; 8008974 <ExecCmd+0x5d0>
 80087fa:	600b      	str	r3, [r1, #0]
 80087fc:	801a      	strh	r2, [r3, #0]
 80087fe:	e5ee      	b.n	80083de <ExecCmd+0x3a>
 8008800:	f8df 9174 	ldr.w	r9, [pc, #372]	; 8008978 <ExecCmd+0x5d4>
 8008804:	f8d9 3000 	ldr.w	r3, [r9]
 8008808:	2b00      	cmp	r3, #0
 800880a:	d07a      	beq.n	8008902 <ExecCmd+0x55e>
 800880c:	2200      	movs	r2, #0
 800880e:	4b4a      	ldr	r3, [pc, #296]	; (8008938 <ExecCmd+0x594>)
 8008810:	4d4a      	ldr	r5, [pc, #296]	; (800893c <ExecCmd+0x598>)
 8008812:	f04f 0805 	mov.w	r8, #5
 8008816:	f8c9 2000 	str.w	r2, [r9]
 800881a:	601d      	str	r5, [r3, #0]
 800881c:	f885 8001 	strb.w	r8, [r5, #1]
 8008820:	702e      	strb	r6, [r5, #0]
 8008822:	f8df 8150 	ldr.w	r8, [pc, #336]	; 8008974 <ExecCmd+0x5d0>
 8008826:	e5da      	b.n	80083de <ExecCmd+0x3a>
 8008828:	4a4b      	ldr	r2, [pc, #300]	; (8008958 <ExecCmd+0x5b4>)
 800882a:	a910      	add	r1, sp, #64	; 0x40
 800882c:	a803      	add	r0, sp, #12
 800882e:	f000 fcb3 	bl	8009198 <search_ext>
 8008832:	2800      	cmp	r0, #0
 8008834:	f040 80d0 	bne.w	80089d8 <ExecCmd+0x634>
 8008838:	a803      	add	r0, sp, #12
 800883a:	4d40      	ldr	r5, [pc, #256]	; (800893c <ExecCmd+0x598>)
 800883c:	f7ff facc 	bl	8007dd8 <f_closedir>
 8008840:	4b3d      	ldr	r3, [pc, #244]	; (8008938 <ExecCmd+0x594>)
 8008842:	f04f 0902 	mov.w	r9, #2
 8008846:	601d      	str	r5, [r3, #0]
 8008848:	e69d      	b.n	8008586 <ExecCmd+0x1e2>
 800884a:	493c      	ldr	r1, [pc, #240]	; (800893c <ExecCmd+0x598>)
 800884c:	4d3a      	ldr	r5, [pc, #232]	; (8008938 <ExecCmd+0x594>)
 800884e:	9301      	str	r3, [sp, #4]
 8008850:	700e      	strb	r6, [r1, #0]
 8008852:	6029      	str	r1, [r5, #0]
 8008854:	f7ff fd62 	bl	800831c <load_CD_sector>
 8008858:	682a      	ldr	r2, [r5, #0]
 800885a:	8810      	ldrh	r0, [r2, #0]
 800885c:	f000 f9d0 	bl	8008c00 <WriteCPLDData>
 8008860:	682a      	ldr	r2, [r5, #0]
 8008862:	8850      	ldrh	r0, [r2, #2]
 8008864:	f000 f9cc 	bl	8008c00 <WriteCPLDData>
 8008868:	682a      	ldr	r2, [r5, #0]
 800886a:	8890      	ldrh	r0, [r2, #4]
 800886c:	f000 f9c8 	bl	8008c00 <WriteCPLDData>
 8008870:	682a      	ldr	r2, [r5, #0]
 8008872:	88d0      	ldrh	r0, [r2, #6]
 8008874:	f000 f9c4 	bl	8008c00 <WriteCPLDData>
 8008878:	2204      	movs	r2, #4
 800887a:	603a      	str	r2, [r7, #0]
 800887c:	f000 fa02 	bl	8008c84 <SetMCUBusOutput>
 8008880:	f8d9 2000 	ldr.w	r2, [r9]
 8008884:	f8d8 0000 	ldr.w	r0, [r8]
 8008888:	4934      	ldr	r1, [pc, #208]	; (800895c <ExecCmd+0x5b8>)
 800888a:	4410      	add	r0, r2
 800888c:	f7ff fd46 	bl	800831c <load_CD_sector>
 8008890:	9b01      	ldr	r3, [sp, #4]
 8008892:	e733      	b.n	80086fc <ExecCmd+0x358>
 8008894:	4b29      	ldr	r3, [pc, #164]	; (800893c <ExecCmd+0x598>)
 8008896:	3020      	adds	r0, #32
 8008898:	4a27      	ldr	r2, [pc, #156]	; (8008938 <ExecCmd+0x594>)
 800889a:	f8df 80d8 	ldr.w	r8, [pc, #216]	; 8008974 <ExecCmd+0x5d0>
 800889e:	7058      	strb	r0, [r3, #1]
 80088a0:	701e      	strb	r6, [r3, #0]
 80088a2:	6013      	str	r3, [r2, #0]
 80088a4:	e59b      	b.n	80083de <ExecCmd+0x3a>
 80088a6:	f04f 31ff 	mov.w	r1, #4294967295
 80088aa:	2001      	movs	r0, #1
 80088ac:	4a2c      	ldr	r2, [pc, #176]	; (8008960 <ExecCmd+0x5bc>)
 80088ae:	26f7      	movs	r6, #247	; 0xf7
 80088b0:	6019      	str	r1, [r3, #0]
 80088b2:	f44f 6100 	mov.w	r1, #2048	; 0x800
 80088b6:	4b20      	ldr	r3, [pc, #128]	; (8008938 <ExecCmd+0x594>)
 80088b8:	4d20      	ldr	r5, [pc, #128]	; (800893c <ExecCmd+0x598>)
 80088ba:	f8ca 0000 	str.w	r0, [sl]
 80088be:	6011      	str	r1, [r2, #0]
 80088c0:	601d      	str	r5, [r3, #0]
 80088c2:	e660      	b.n	8008586 <ExecCmd+0x1e2>
 80088c4:	79a2      	ldrb	r2, [r4, #6]
 80088c6:	2003      	movs	r0, #3
 80088c8:	79e3      	ldrb	r3, [r4, #7]
 80088ca:	eb03 2302 	add.w	r3, r3, r2, lsl #8
 80088ce:	4a25      	ldr	r2, [pc, #148]	; (8008964 <ExecCmd+0x5c0>)
 80088d0:	8013      	strh	r3, [r2, #0]
 80088d2:	f000 fca9 	bl	8009228 <listfiles>
 80088d6:	e742      	b.n	800875e <ExecCmd+0x3ba>
 80088d8:	7962      	ldrb	r2, [r4, #5]
 80088da:	b2d3      	uxtb	r3, r2
 80088dc:	0612      	lsls	r2, r2, #24
 80088de:	f100 809d 	bmi.w	8008a1c <ExecCmd+0x678>
 80088e2:	4a21      	ldr	r2, [pc, #132]	; (8008968 <ExecCmd+0x5c4>)
 80088e4:	2000      	movs	r0, #0
 80088e6:	4921      	ldr	r1, [pc, #132]	; (800896c <ExecCmd+0x5c8>)
 80088e8:	7813      	ldrb	r3, [r2, #0]
 80088ea:	7809      	ldrb	r1, [r1, #0]
 80088ec:	019b      	lsls	r3, r3, #6
 80088ee:	7010      	strb	r0, [r2, #0]
 80088f0:	4a12      	ldr	r2, [pc, #72]	; (800893c <ExecCmd+0x598>)
 80088f2:	20f2      	movs	r0, #242	; 0xf2
 80088f4:	ea43 13c1 	orr.w	r3, r3, r1, lsl #7
 80088f8:	490f      	ldr	r1, [pc, #60]	; (8008938 <ExecCmd+0x594>)
 80088fa:	7010      	strb	r0, [r2, #0]
 80088fc:	7053      	strb	r3, [r2, #1]
 80088fe:	600a      	str	r2, [r1, #0]
 8008900:	e621      	b.n	8008546 <ExecCmd+0x1a2>
 8008902:	7961      	ldrb	r1, [r4, #5]
 8008904:	f001 08ff 	and.w	r8, r1, #255	; 0xff
 8008908:	2900      	cmp	r1, #0
 800890a:	d07f      	beq.n	8008a0c <ExecCmd+0x668>
 800890c:	f1b8 0f01 	cmp.w	r8, #1
 8008910:	f000 80af 	beq.w	8008a72 <ExecCmd+0x6ce>
 8008914:	f1b8 0f02 	cmp.w	r8, #2
 8008918:	f000 8098 	beq.w	8008a4c <ExecCmd+0x6a8>
 800891c:	f1b8 0f03 	cmp.w	r8, #3
 8008920:	f000 80ca 	beq.w	8008ab8 <ExecCmd+0x714>
 8008924:	4b04      	ldr	r3, [pc, #16]	; (8008938 <ExecCmd+0x594>)
 8008926:	f04f 0800 	mov.w	r8, #0
 800892a:	4d04      	ldr	r5, [pc, #16]	; (800893c <ExecCmd+0x598>)
 800892c:	26fc      	movs	r6, #252	; 0xfc
 800892e:	601d      	str	r5, [r3, #0]
 8008930:	e774      	b.n	800881c <ExecCmd+0x478>
 8008932:	bf00      	nop
 8008934:	2000000c 	.word	0x2000000c
 8008938:	20000010 	.word	0x20000010
 800893c:	20006d08 	.word	0x20006d08
 8008940:	0800cf88 	.word	0x0800cf88
 8008944:	20005030 	.word	0x20005030
 8008948:	2000033c 	.word	0x2000033c
 800894c:	200087ac 	.word	0x200087ac
 8008950:	0800cf8c 	.word	0x0800cf8c
 8008954:	20004c28 	.word	0x20004c28
 8008958:	0800cf94 	.word	0x0800cf94
 800895c:	20005264 	.word	0x20005264
 8008960:	200089dc 	.word	0x200089dc
 8008964:	20004c24 	.word	0x20004c24
 8008968:	20000360 	.word	0x20000360
 800896c:	20000361 	.word	0x20000361
 8008970:	20008a20 	.word	0x20008a20
 8008974:	20000350 	.word	0x20000350
 8008978:	20000364 	.word	0x20000364
 800897c:	4650      	mov	r0, sl
 800897e:	2101      	movs	r1, #1
 8008980:	f7ff fc04 	bl	800818c <CDDA_Play>
 8008984:	e52b      	b.n	80083de <ExecCmd+0x3a>
 8008986:	486d      	ldr	r0, [pc, #436]	; (8008b3c <ExecCmd+0x798>)
 8008988:	f7fe ff50 	bl	800782c <f_close>
 800898c:	79a1      	ldrb	r1, [r4, #6]
 800898e:	79e5      	ldrb	r5, [r4, #7]
 8008990:	2201      	movs	r2, #1
 8008992:	7960      	ldrb	r0, [r4, #5]
 8008994:	fa5f f981 	uxtb.w	r9, r1
 8008998:	7963      	ldrb	r3, [r4, #5]
 800899a:	b2ed      	uxtb	r5, r5
 800899c:	4968      	ldr	r1, [pc, #416]	; (8008b40 <ExecCmd+0x79c>)
 800899e:	28c7      	cmp	r0, #199	; 0xc7
 80089a0:	eb03 2303 	add.w	r3, r3, r3, lsl #8
 80089a4:	4865      	ldr	r0, [pc, #404]	; (8008b3c <ExecCmd+0x798>)
 80089a6:	bf94      	ite	ls
 80089a8:	f04f 0800 	movls.w	r8, #0
 80089ac:	f04f 0805 	movhi.w	r8, #5
 80089b0:	4419      	add	r1, r3
 80089b2:	f7fe faa7 	bl	8006f04 <f_open>
 80089b6:	2800      	cmp	r0, #0
 80089b8:	d03b      	beq.n	8008a32 <ExecCmd+0x68e>
 80089ba:	4b62      	ldr	r3, [pc, #392]	; (8008b44 <ExecCmd+0x7a0>)
 80089bc:	2001      	movs	r0, #1
 80089be:	4d62      	ldr	r5, [pc, #392]	; (8008b48 <ExecCmd+0x7a4>)
 80089c0:	601d      	str	r5, [r3, #0]
 80089c2:	f8df 81ac 	ldr.w	r8, [pc, #428]	; 8008b70 <ExecCmd+0x7cc>
 80089c6:	702e      	strb	r6, [r5, #0]
 80089c8:	7068      	strb	r0, [r5, #1]
 80089ca:	e508      	b.n	80083de <ExecCmd+0x3a>
 80089cc:	2000      	movs	r0, #0
 80089ce:	f8df 81a0 	ldr.w	r8, [pc, #416]	; 8008b70 <ExecCmd+0x7cc>
 80089d2:	f003 f82b 	bl	800ba2c <SetMode>
 80089d6:	e502      	b.n	80083de <ExecCmd+0x3a>
 80089d8:	f8d8 2000 	ldr.w	r2, [r8]
 80089dc:	f10d 0356 	add.w	r3, sp, #86	; 0x56
 80089e0:	495a      	ldr	r1, [pc, #360]	; (8008b4c <ExecCmd+0x7a8>)
 80089e2:	26f7      	movs	r6, #247	; 0xf7
 80089e4:	eb02 2202 	add.w	r2, r2, r2, lsl #8
 80089e8:	4859      	ldr	r0, [pc, #356]	; (8008b50 <ExecCmd+0x7ac>)
 80089ea:	442a      	add	r2, r5
 80089ec:	4d56      	ldr	r5, [pc, #344]	; (8008b48 <ExecCmd+0x7a4>)
 80089ee:	f003 f9f9 	bl	800bde4 <siprintf>
 80089f2:	f000 fb0f 	bl	8009014 <OpenDataTrack>
 80089f6:	a803      	add	r0, sp, #12
 80089f8:	f7ff f9ee 	bl	8007dd8 <f_closedir>
 80089fc:	4b51      	ldr	r3, [pc, #324]	; (8008b44 <ExecCmd+0x7a0>)
 80089fe:	601d      	str	r5, [r3, #0]
 8008a00:	e5c1      	b.n	8008586 <ExecCmd+0x1e2>
 8008a02:	4650      	mov	r0, sl
 8008a04:	2100      	movs	r1, #0
 8008a06:	f7ff fbc1 	bl	800818c <CDDA_Play>
 8008a0a:	e4e8      	b.n	80083de <ExecCmd+0x3a>
 8008a0c:	484b      	ldr	r0, [pc, #300]	; (8008b3c <ExecCmd+0x798>)
 8008a0e:	26fc      	movs	r6, #252	; 0xfc
 8008a10:	f7fe ff0c 	bl	800782c <f_close>
 8008a14:	4d4c      	ldr	r5, [pc, #304]	; (8008b48 <ExecCmd+0x7a4>)
 8008a16:	4b4b      	ldr	r3, [pc, #300]	; (8008b44 <ExecCmd+0x7a0>)
 8008a18:	601d      	str	r5, [r3, #0]
 8008a1a:	e6ff      	b.n	800881c <ExecCmd+0x478>
 8008a1c:	f3c3 00c2 	ubfx	r0, r3, #3, #3
 8008a20:	494c      	ldr	r1, [pc, #304]	; (8008b54 <ExecCmd+0x7b0>)
 8008a22:	f003 0307 	and.w	r3, r3, #7
 8008a26:	4a4c      	ldr	r2, [pc, #304]	; (8008b58 <ExecCmd+0x7b4>)
 8008a28:	7008      	strb	r0, [r1, #0]
 8008a2a:	7013      	strb	r3, [r2, #0]
 8008a2c:	f001 fd50 	bl	800a4d0 <setLED>
 8008a30:	e757      	b.n	80088e2 <ExecCmd+0x53e>
 8008a32:	eb05 2109 	add.w	r1, r5, r9, lsl #8
 8008a36:	4841      	ldr	r0, [pc, #260]	; (8008b3c <ExecCmd+0x798>)
 8008a38:	02c9      	lsls	r1, r1, #11
 8008a3a:	f7fe ff83 	bl	8007944 <f_lseek>
 8008a3e:	2800      	cmp	r0, #0
 8008a40:	d04a      	beq.n	8008ad8 <ExecCmd+0x734>
 8008a42:	4b40      	ldr	r3, [pc, #256]	; (8008b44 <ExecCmd+0x7a0>)
 8008a44:	2004      	movs	r0, #4
 8008a46:	4d40      	ldr	r5, [pc, #256]	; (8008b48 <ExecCmd+0x7a4>)
 8008a48:	601d      	str	r5, [r3, #0]
 8008a4a:	e7ba      	b.n	80089c2 <ExecCmd+0x61e>
 8008a4c:	79a5      	ldrb	r5, [r4, #6]
 8008a4e:	79e1      	ldrb	r1, [r4, #7]
 8008a50:	4842      	ldr	r0, [pc, #264]	; (8008b5c <ExecCmd+0x7b8>)
 8008a52:	eb01 2105 	add.w	r1, r1, r5, lsl #8
 8008a56:	6001      	str	r1, [r0, #0]
 8008a58:	b1b1      	cbz	r1, 8008a88 <ExecCmd+0x6e4>
 8008a5a:	4d41      	ldr	r5, [pc, #260]	; (8008b60 <ExecCmd+0x7bc>)
 8008a5c:	2101      	movs	r1, #1
 8008a5e:	4841      	ldr	r0, [pc, #260]	; (8008b64 <ExecCmd+0x7c0>)
 8008a60:	4698      	mov	r8, r3
 8008a62:	602b      	str	r3, [r5, #0]
 8008a64:	26fc      	movs	r6, #252	; 0xfc
 8008a66:	4d38      	ldr	r5, [pc, #224]	; (8008b48 <ExecCmd+0x7a4>)
 8008a68:	6003      	str	r3, [r0, #0]
 8008a6a:	4b36      	ldr	r3, [pc, #216]	; (8008b44 <ExecCmd+0x7a0>)
 8008a6c:	6011      	str	r1, [r2, #0]
 8008a6e:	601d      	str	r5, [r3, #0]
 8008a70:	e6d4      	b.n	800881c <ExecCmd+0x478>
 8008a72:	f7ff faf9 	bl	8008068 <CDDA_Stop>
 8008a76:	4831      	ldr	r0, [pc, #196]	; (8008b3c <ExecCmd+0x798>)
 8008a78:	f7fe fed8 	bl	800782c <f_close>
 8008a7c:	7a23      	ldrb	r3, [r4, #8]
 8008a7e:	b94b      	cbnz	r3, 8008a94 <ExecCmd+0x6f0>
 8008a80:	4b30      	ldr	r3, [pc, #192]	; (8008b44 <ExecCmd+0x7a0>)
 8008a82:	4d31      	ldr	r5, [pc, #196]	; (8008b48 <ExecCmd+0x7a4>)
 8008a84:	601d      	str	r5, [r3, #0]
 8008a86:	e6c9      	b.n	800881c <ExecCmd+0x478>
 8008a88:	4b2e      	ldr	r3, [pc, #184]	; (8008b44 <ExecCmd+0x7a0>)
 8008a8a:	f04f 0804 	mov.w	r8, #4
 8008a8e:	4d2e      	ldr	r5, [pc, #184]	; (8008b48 <ExecCmd+0x7a4>)
 8008a90:	601d      	str	r5, [r3, #0]
 8008a92:	e6c3      	b.n	800881c <ExecCmd+0x478>
 8008a94:	79e3      	ldrb	r3, [r4, #7]
 8008a96:	4934      	ldr	r1, [pc, #208]	; (8008b68 <ExecCmd+0x7c4>)
 8008a98:	2b01      	cmp	r3, #1
 8008a9a:	4828      	ldr	r0, [pc, #160]	; (8008b3c <ExecCmd+0x798>)
 8008a9c:	bf0c      	ite	eq
 8008a9e:	2206      	moveq	r2, #6
 8008aa0:	220a      	movne	r2, #10
 8008aa2:	f7fe fa2f 	bl	8006f04 <f_open>
 8008aa6:	4680      	mov	r8, r0
 8008aa8:	bb28      	cbnz	r0, 8008af6 <ExecCmd+0x752>
 8008aaa:	4b26      	ldr	r3, [pc, #152]	; (8008b44 <ExecCmd+0x7a0>)
 8008aac:	26fc      	movs	r6, #252	; 0xfc
 8008aae:	4d26      	ldr	r5, [pc, #152]	; (8008b48 <ExecCmd+0x7a4>)
 8008ab0:	f8c9 0000 	str.w	r0, [r9]
 8008ab4:	601d      	str	r5, [r3, #0]
 8008ab6:	e6b1      	b.n	800881c <ExecCmd+0x478>
 8008ab8:	79a3      	ldrb	r3, [r4, #6]
 8008aba:	4821      	ldr	r0, [pc, #132]	; (8008b40 <ExecCmd+0x79c>)
 8008abc:	eb03 2303 	add.w	r3, r3, r3, lsl #8
 8008ac0:	4418      	add	r0, r3
 8008ac2:	f7ff f9eb 	bl	8007e9c <f_unlink>
 8008ac6:	2800      	cmp	r0, #0
 8008ac8:	f43f af2c 	beq.w	8008924 <ExecCmd+0x580>
 8008acc:	4b1d      	ldr	r3, [pc, #116]	; (8008b44 <ExecCmd+0x7a0>)
 8008ace:	f04f 0806 	mov.w	r8, #6
 8008ad2:	4d1d      	ldr	r5, [pc, #116]	; (8008b48 <ExecCmd+0x7a4>)
 8008ad4:	601d      	str	r5, [r3, #0]
 8008ad6:	e6a1      	b.n	800881c <ExecCmd+0x478>
 8008ad8:	f44f 6200 	mov.w	r2, #2048	; 0x800
 8008adc:	4923      	ldr	r1, [pc, #140]	; (8008b6c <ExecCmd+0x7c8>)
 8008ade:	ab10      	add	r3, sp, #64	; 0x40
 8008ae0:	4816      	ldr	r0, [pc, #88]	; (8008b3c <ExecCmd+0x798>)
 8008ae2:	f7fe fc0d 	bl	8007300 <f_read>
 8008ae6:	bb00      	cbnz	r0, 8008b2a <ExecCmd+0x786>
 8008ae8:	9b10      	ldr	r3, [sp, #64]	; 0x40
 8008aea:	b9b3      	cbnz	r3, 8008b1a <ExecCmd+0x776>
 8008aec:	4b15      	ldr	r3, [pc, #84]	; (8008b44 <ExecCmd+0x7a0>)
 8008aee:	2002      	movs	r0, #2
 8008af0:	4d15      	ldr	r5, [pc, #84]	; (8008b48 <ExecCmd+0x7a4>)
 8008af2:	601d      	str	r5, [r3, #0]
 8008af4:	e765      	b.n	80089c2 <ExecCmd+0x61e>
 8008af6:	79e3      	ldrb	r3, [r4, #7]
 8008af8:	2808      	cmp	r0, #8
 8008afa:	b2db      	uxtb	r3, r3
 8008afc:	d101      	bne.n	8008b02 <ExecCmd+0x75e>
 8008afe:	2b01      	cmp	r3, #1
 8008b00:	d005      	beq.n	8008b0e <ExecCmd+0x76a>
 8008b02:	4b10      	ldr	r3, [pc, #64]	; (8008b44 <ExecCmd+0x7a0>)
 8008b04:	f04f 0802 	mov.w	r8, #2
 8008b08:	4d0f      	ldr	r5, [pc, #60]	; (8008b48 <ExecCmd+0x7a4>)
 8008b0a:	601d      	str	r5, [r3, #0]
 8008b0c:	e686      	b.n	800881c <ExecCmd+0x478>
 8008b0e:	4b0d      	ldr	r3, [pc, #52]	; (8008b44 <ExecCmd+0x7a0>)
 8008b10:	f04f 0803 	mov.w	r8, #3
 8008b14:	4d0c      	ldr	r5, [pc, #48]	; (8008b48 <ExecCmd+0x7a4>)
 8008b16:	601d      	str	r5, [r3, #0]
 8008b18:	e680      	b.n	800881c <ExecCmd+0x478>
 8008b1a:	4b0a      	ldr	r3, [pc, #40]	; (8008b44 <ExecCmd+0x7a0>)
 8008b1c:	4d0a      	ldr	r5, [pc, #40]	; (8008b48 <ExecCmd+0x7a4>)
 8008b1e:	601d      	str	r5, [r3, #0]
 8008b20:	f1b8 0f00 	cmp.w	r8, #0
 8008b24:	d106      	bne.n	8008b34 <ExecCmd+0x790>
 8008b26:	26fd      	movs	r6, #253	; 0xfd
 8008b28:	e74b      	b.n	80089c2 <ExecCmd+0x61e>
 8008b2a:	4b06      	ldr	r3, [pc, #24]	; (8008b44 <ExecCmd+0x7a0>)
 8008b2c:	2003      	movs	r0, #3
 8008b2e:	4d06      	ldr	r5, [pc, #24]	; (8008b48 <ExecCmd+0x7a4>)
 8008b30:	601d      	str	r5, [r3, #0]
 8008b32:	e746      	b.n	80089c2 <ExecCmd+0x61e>
 8008b34:	fa5f f088 	uxtb.w	r0, r8
 8008b38:	e743      	b.n	80089c2 <ExecCmd+0x61e>
 8008b3a:	bf00      	nop
 8008b3c:	200087ac 	.word	0x200087ac
 8008b40:	20008a24 	.word	0x20008a24
 8008b44:	20000010 	.word	0x20000010
 8008b48:	20006d08 	.word	0x20006d08
 8008b4c:	0800cf98 	.word	0x0800cf98
 8008b50:	200045b8 	.word	0x200045b8
 8008b54:	20000008 	.word	0x20000008
 8008b58:	20000009 	.word	0x20000009
 8008b5c:	20000370 	.word	0x20000370
 8008b60:	2000036c 	.word	0x2000036c
 8008b64:	200152ec 	.word	0x200152ec
 8008b68:	200002ec 	.word	0x200002ec
 8008b6c:	20006d10 	.word	0x20006d10
 8008b70:	20000350 	.word	0x20000350

08008b74 <TickMCUCLK>:
 8008b74:	b510      	push	{r4, lr}
 8008b76:	f44f 7300 	mov.w	r3, #512	; 0x200
 8008b7a:	4c06      	ldr	r4, [pc, #24]	; (8008b94 <TickMCUCLK+0x20>)
 8008b7c:	2001      	movs	r0, #1
 8008b7e:	61a3      	str	r3, [r4, #24]
 8008b80:	f002 ffec 	bl	800bb5c <delay_us>
 8008b84:	f04f 7300 	mov.w	r3, #33554432	; 0x2000000
 8008b88:	2001      	movs	r0, #1
 8008b8a:	61a3      	str	r3, [r4, #24]
 8008b8c:	e8bd 4010 	ldmia.w	sp!, {r4, lr}
 8008b90:	f002 bfe4 	b.w	800bb5c <delay_us>
 8008b94:	40020800 	.word	0x40020800

08008b98 <SetMCUData>:
 8008b98:	4b01      	ldr	r3, [pc, #4]	; (8008ba0 <SetMCUData+0x8>)
 8008b9a:	6158      	str	r0, [r3, #20]
 8008b9c:	4770      	bx	lr
 8008b9e:	bf00      	nop
 8008ba0:	40020400 	.word	0x40020400

08008ba4 <ReadCPLDData>:
 8008ba4:	4a14      	ldr	r2, [pc, #80]	; (8008bf8 <ReadCPLDData+0x54>)
 8008ba6:	2000      	movs	r0, #0
 8008ba8:	4b14      	ldr	r3, [pc, #80]	; (8008bfc <ReadCPLDData+0x58>)
 8008baa:	f44f 7180 	mov.w	r1, #256	; 0x100
 8008bae:	6010      	str	r0, [r2, #0]
 8008bb0:	6199      	str	r1, [r3, #24]
 8008bb2:	bf00      	nop
 8008bb4:	bf00      	nop
 8008bb6:	bf00      	nop
 8008bb8:	bf00      	nop
 8008bba:	bf00      	nop
 8008bbc:	bf00      	nop
 8008bbe:	bf00      	nop
 8008bc0:	bf00      	nop
 8008bc2:	bf00      	nop
 8008bc4:	bf00      	nop
 8008bc6:	bf00      	nop
 8008bc8:	bf00      	nop
 8008bca:	bf00      	nop
 8008bcc:	bf00      	nop
 8008bce:	6910      	ldr	r0, [r2, #16]
 8008bd0:	bf00      	nop
 8008bd2:	bf00      	nop
 8008bd4:	bf00      	nop
 8008bd6:	bf00      	nop
 8008bd8:	bf00      	nop
 8008bda:	bf00      	nop
 8008bdc:	bf00      	nop
 8008bde:	bf00      	nop
 8008be0:	bf00      	nop
 8008be2:	bf00      	nop
 8008be4:	bf00      	nop
 8008be6:	bf00      	nop
 8008be8:	bf00      	nop
 8008bea:	bf00      	nop
 8008bec:	f04f 7280 	mov.w	r2, #16777216	; 0x1000000
 8008bf0:	b280      	uxth	r0, r0
 8008bf2:	619a      	str	r2, [r3, #24]
 8008bf4:	4770      	bx	lr
 8008bf6:	bf00      	nop
 8008bf8:	40020400 	.word	0x40020400
 8008bfc:	40020800 	.word	0x40020800

08008c00 <WriteCPLDData>:
 8008c00:	b410      	push	{r4}
 8008c02:	4b1b      	ldr	r3, [pc, #108]	; (8008c70 <WriteCPLDData+0x70>)
 8008c04:	f04f 7480 	mov.w	r4, #16777216	; 0x1000000
 8008c08:	4a1a      	ldr	r2, [pc, #104]	; (8008c74 <WriteCPLDData+0x74>)
 8008c0a:	f04f 3155 	mov.w	r1, #1431655765	; 0x55555555
 8008c0e:	6194      	str	r4, [r2, #24]
 8008c10:	6019      	str	r1, [r3, #0]
 8008c12:	6158      	str	r0, [r3, #20]
 8008c14:	bf00      	nop
 8008c16:	bf00      	nop
 8008c18:	bf00      	nop
 8008c1a:	bf00      	nop
 8008c1c:	bf00      	nop
 8008c1e:	bf00      	nop
 8008c20:	bf00      	nop
 8008c22:	bf00      	nop
 8008c24:	bf00      	nop
 8008c26:	bf00      	nop
 8008c28:	bf00      	nop
 8008c2a:	bf00      	nop
 8008c2c:	bf00      	nop
 8008c2e:	bf00      	nop
 8008c30:	f44f 7100 	mov.w	r1, #512	; 0x200
 8008c34:	6191      	str	r1, [r2, #24]
 8008c36:	bf00      	nop
 8008c38:	bf00      	nop
 8008c3a:	bf00      	nop
 8008c3c:	bf00      	nop
 8008c3e:	bf00      	nop
 8008c40:	bf00      	nop
 8008c42:	bf00      	nop
 8008c44:	bf00      	nop
 8008c46:	bf00      	nop
 8008c48:	bf00      	nop
 8008c4a:	f04f 7100 	mov.w	r1, #33554432	; 0x2000000
 8008c4e:	6191      	str	r1, [r2, #24]
 8008c50:	bf00      	nop
 8008c52:	bf00      	nop
 8008c54:	bf00      	nop
 8008c56:	bf00      	nop
 8008c58:	bf00      	nop
 8008c5a:	bf00      	nop
 8008c5c:	bf00      	nop
 8008c5e:	bf00      	nop
 8008c60:	bf00      	nop
 8008c62:	bf00      	nop
 8008c64:	2200      	movs	r2, #0
 8008c66:	f85d 4b04 	ldr.w	r4, [sp], #4
 8008c6a:	601a      	str	r2, [r3, #0]
 8008c6c:	4770      	bx	lr
 8008c6e:	bf00      	nop
 8008c70:	40020400 	.word	0x40020400
 8008c74:	40020800 	.word	0x40020800

08008c78 <SetMCUBusInput>:
 8008c78:	4b01      	ldr	r3, [pc, #4]	; (8008c80 <SetMCUBusInput+0x8>)
 8008c7a:	2200      	movs	r2, #0
 8008c7c:	601a      	str	r2, [r3, #0]
 8008c7e:	4770      	bx	lr
 8008c80:	40020400 	.word	0x40020400

08008c84 <SetMCUBusOutput>:
 8008c84:	4b02      	ldr	r3, [pc, #8]	; (8008c90 <SetMCUBusOutput+0xc>)
 8008c86:	f04f 3255 	mov.w	r2, #1431655765	; 0x55555555
 8008c8a:	601a      	str	r2, [r3, #0]
 8008c8c:	4770      	bx	lr
 8008c8e:	bf00      	nop
 8008c90:	40020400 	.word	0x40020400

08008c94 <SetRunLoader>:
 8008c94:	b5f8      	push	{r3, r4, r5, r6, r7, lr}
 8008c96:	2001      	movs	r0, #1
 8008c98:	4c11      	ldr	r4, [pc, #68]	; (8008ce0 <SetRunLoader+0x4c>)
 8008c9a:	f002 fec7 	bl	800ba2c <SetMode>
 8008c9e:	2500      	movs	r5, #0
 8008ca0:	f000 fe12 	bl	80098c8 <I2SOutputEnable>
 8008ca4:	4e0f      	ldr	r6, [pc, #60]	; (8008ce4 <SetRunLoader+0x50>)
 8008ca6:	f04f 3155 	mov.w	r1, #1431655765	; 0x55555555
 8008caa:	f44f 7280 	mov.w	r2, #256	; 0x100
 8008cae:	4f0e      	ldr	r7, [pc, #56]	; (8008ce8 <SetRunLoader+0x54>)
 8008cb0:	f44f 7300 	mov.w	r3, #512	; 0x200
 8008cb4:	6021      	str	r1, [r4, #0]
 8008cb6:	2001      	movs	r0, #1
 8008cb8:	6165      	str	r5, [r4, #20]
 8008cba:	61b2      	str	r2, [r6, #24]
 8008cbc:	61bb      	str	r3, [r7, #24]
 8008cbe:	f002 ff4d 	bl	800bb5c <delay_us>
 8008cc2:	f04f 7300 	mov.w	r3, #33554432	; 0x2000000
 8008cc6:	2001      	movs	r0, #1
 8008cc8:	61bb      	str	r3, [r7, #24]
 8008cca:	f002 ff47 	bl	800bb5c <delay_us>
 8008cce:	f04f 7380 	mov.w	r3, #16777216	; 0x1000000
 8008cd2:	4628      	mov	r0, r5
 8008cd4:	61b3      	str	r3, [r6, #24]
 8008cd6:	6025      	str	r5, [r4, #0]
 8008cd8:	e8bd 40f8 	ldmia.w	sp!, {r3, r4, r5, r6, r7, lr}
 8008cdc:	f002 bea6 	b.w	800ba2c <SetMode>
 8008ce0:	40020400 	.word	0x40020400
 8008ce4:	40020000 	.word	0x40020000
 8008ce8:	40020800 	.word	0x40020800

08008cec <SetRunStock>:
 8008cec:	b570      	push	{r4, r5, r6, lr}
 8008cee:	460d      	mov	r5, r1
 8008cf0:	4604      	mov	r4, r0
 8008cf2:	2001      	movs	r0, #1
 8008cf4:	f002 fe9a 	bl	800ba2c <SetMode>
 8008cf8:	f000 fdfc 	bl	80098f4 <I2SOutputDisable>
 8008cfc:	4a15      	ldr	r2, [pc, #84]	; (8008d54 <SetRunStock+0x68>)
 8008cfe:	086b      	lsrs	r3, r5, #1
 8008d00:	f04f 3155 	mov.w	r1, #1431655765	; 0x55555555
 8008d04:	00a4      	lsls	r4, r4, #2
 8008d06:	0118      	lsls	r0, r3, #4
 8008d08:	6011      	str	r1, [r2, #0]
 8008d0a:	f004 030c 	and.w	r3, r4, #12
 8008d0e:	b280      	uxth	r0, r0
 8008d10:	b10d      	cbz	r5, 8008d16 <SetRunStock+0x2a>
 8008d12:	f043 0302 	orr.w	r3, r3, #2
 8008d16:	4318      	orrs	r0, r3
 8008d18:	4c0e      	ldr	r4, [pc, #56]	; (8008d54 <SetRunStock+0x68>)
 8008d1a:	4d0f      	ldr	r5, [pc, #60]	; (8008d58 <SetRunStock+0x6c>)
 8008d1c:	f44f 7280 	mov.w	r2, #256	; 0x100
 8008d20:	4e0e      	ldr	r6, [pc, #56]	; (8008d5c <SetRunStock+0x70>)
 8008d22:	f44f 7300 	mov.w	r3, #512	; 0x200
 8008d26:	f040 0001 	orr.w	r0, r0, #1
 8008d2a:	6160      	str	r0, [r4, #20]
 8008d2c:	2001      	movs	r0, #1
 8008d2e:	61aa      	str	r2, [r5, #24]
 8008d30:	61b3      	str	r3, [r6, #24]
 8008d32:	f002 ff13 	bl	800bb5c <delay_us>
 8008d36:	f04f 7300 	mov.w	r3, #33554432	; 0x2000000
 8008d3a:	2001      	movs	r0, #1
 8008d3c:	61b3      	str	r3, [r6, #24]
 8008d3e:	f002 ff0d 	bl	800bb5c <delay_us>
 8008d42:	f04f 7380 	mov.w	r3, #16777216	; 0x1000000
 8008d46:	2000      	movs	r0, #0
 8008d48:	61ab      	str	r3, [r5, #24]
 8008d4a:	6020      	str	r0, [r4, #0]
 8008d4c:	e8bd 4070 	ldmia.w	sp!, {r4, r5, r6, lr}
 8008d50:	f002 be6c 	b.w	800ba2c <SetMode>
 8008d54:	40020400 	.word	0x40020400
 8008d58:	40020000 	.word	0x40020000
 8008d5c:	40020800 	.word	0x40020800

08008d60 <ParseCueSheet>:
 8008d60:	e92d 4ff0 	stmdb	sp!, {r4, r5, r6, r7, r8, r9, sl, fp, lr}
 8008d64:	2300      	movs	r3, #0
 8008d66:	b091      	sub	sp, #68	; 0x44
 8008d68:	4604      	mov	r4, r0
 8008d6a:	4d9a      	ldr	r5, [pc, #616]	; (8008fd4 <ParseCueSheet+0x274>)
 8008d6c:	489a      	ldr	r0, [pc, #616]	; (8008fd8 <ParseCueSheet+0x278>)
 8008d6e:	4689      	mov	r9, r1
 8008d70:	4690      	mov	r8, r2
 8008d72:	9304      	str	r3, [sp, #16]
 8008d74:	602b      	str	r3, [r5, #0]
 8008d76:	f7fe fd59 	bl	800782c <f_close>
 8008d7a:	4621      	mov	r1, r4
 8008d7c:	2201      	movs	r2, #1
 8008d7e:	4896      	ldr	r0, [pc, #600]	; (8008fd8 <ParseCueSheet+0x278>)
 8008d80:	f7fe f8c0 	bl	8006f04 <f_open>
 8008d84:	b118      	cbz	r0, 8008d8e <ParseCueSheet+0x2e>
 8008d86:	2001      	movs	r0, #1
 8008d88:	b011      	add	sp, #68	; 0x44
 8008d8a:	e8bd 8ff0 	ldmia.w	sp!, {r4, r5, r6, r7, r8, r9, sl, fp, pc}
 8008d8e:	4607      	mov	r7, r0
 8008d90:	4682      	mov	sl, r0
 8008d92:	4683      	mov	fp, r0
 8008d94:	4659      	mov	r1, fp
 8008d96:	4890      	ldr	r0, [pc, #576]	; (8008fd8 <ParseCueSheet+0x278>)
 8008d98:	f7fe fdd4 	bl	8007944 <f_lseek>
 8008d9c:	2800      	cmp	r0, #0
 8008d9e:	f040 80c1 	bne.w	8008f24 <ParseCueSheet+0x1c4>
 8008da2:	ab07      	add	r3, sp, #28
 8008da4:	f44f 6280 	mov.w	r2, #1024	; 0x400
 8008da8:	498c      	ldr	r1, [pc, #560]	; (8008fdc <ParseCueSheet+0x27c>)
 8008daa:	488b      	ldr	r0, [pc, #556]	; (8008fd8 <ParseCueSheet+0x278>)
 8008dac:	f7fe faa8 	bl	8007300 <f_read>
 8008db0:	4604      	mov	r4, r0
 8008db2:	2800      	cmp	r0, #0
 8008db4:	f040 80b2 	bne.w	8008f1c <ParseCueSheet+0x1bc>
 8008db8:	9b07      	ldr	r3, [sp, #28]
 8008dba:	2b00      	cmp	r3, #0
 8008dbc:	f000 80ae 	beq.w	8008f1c <ParseCueSheet+0x1bc>
 8008dc0:	4d87      	ldr	r5, [pc, #540]	; (8008fe0 <ParseCueSheet+0x280>)
 8008dc2:	210a      	movs	r1, #10
 8008dc4:	4885      	ldr	r0, [pc, #532]	; (8008fdc <ParseCueSheet+0x27c>)
 8008dc6:	f003 f864 	bl	800be92 <strchr>
 8008dca:	4e84      	ldr	r6, [pc, #528]	; (8008fdc <ParseCueSheet+0x27c>)
 8008dcc:	2800      	cmp	r0, #0
 8008dce:	bf18      	it	ne
 8008dd0:	4605      	movne	r5, r0
 8008dd2:	702c      	strb	r4, [r5, #0]
 8008dd4:	4634      	mov	r4, r6
 8008dd6:	7833      	ldrb	r3, [r6, #0]
 8008dd8:	2b20      	cmp	r3, #32
 8008dda:	d103      	bne.n	8008de4 <ParseCueSheet+0x84>
 8008ddc:	f814 3f01 	ldrb.w	r3, [r4, #1]!
 8008de0:	2b20      	cmp	r3, #32
 8008de2:	d0fb      	beq.n	8008ddc <ParseCueSheet+0x7c>
 8008de4:	7823      	ldrb	r3, [r4, #0]
 8008de6:	2b46      	cmp	r3, #70	; 0x46
 8008de8:	d014      	beq.n	8008e14 <ParseCueSheet+0xb4>
 8008dea:	2205      	movs	r2, #5
 8008dec:	497d      	ldr	r1, [pc, #500]	; (8008fe4 <ParseCueSheet+0x284>)
 8008dee:	4620      	mov	r0, r4
 8008df0:	f002 ff1a 	bl	800bc28 <memcmp>
 8008df4:	b320      	cbz	r0, 8008e40 <ParseCueSheet+0xe0>
 8008df6:	2205      	movs	r2, #5
 8008df8:	497b      	ldr	r1, [pc, #492]	; (8008fe8 <ParseCueSheet+0x288>)
 8008dfa:	4620      	mov	r0, r4
 8008dfc:	f002 ff14 	bl	800bc28 <memcmp>
 8008e00:	b920      	cbnz	r0, 8008e0c <ParseCueSheet+0xac>
 8008e02:	ea5a 0307 	orrs.w	r3, sl, r7
 8008e06:	d13e      	bne.n	8008e86 <ParseCueSheet+0x126>
 8008e08:	461f      	mov	r7, r3
 8008e0a:	469a      	mov	sl, r3
 8008e0c:	1bad      	subs	r5, r5, r6
 8008e0e:	3501      	adds	r5, #1
 8008e10:	44ab      	add	fp, r5
 8008e12:	e7bf      	b.n	8008d94 <ParseCueSheet+0x34>
 8008e14:	7863      	ldrb	r3, [r4, #1]
 8008e16:	1c62      	adds	r2, r4, #1
 8008e18:	2b49      	cmp	r3, #73	; 0x49
 8008e1a:	d1e6      	bne.n	8008dea <ParseCueSheet+0x8a>
 8008e1c:	f812 3f01 	ldrb.w	r3, [r2, #1]!
 8008e20:	2b4c      	cmp	r3, #76	; 0x4c
 8008e22:	d1e2      	bne.n	8008dea <ParseCueSheet+0x8a>
 8008e24:	7853      	ldrb	r3, [r2, #1]
 8008e26:	2b45      	cmp	r3, #69	; 0x45
 8008e28:	d1df      	bne.n	8008dea <ParseCueSheet+0x8a>
 8008e2a:	f1ba 0f00 	cmp.w	sl, #0
 8008e2e:	f040 80a8 	bne.w	8008f82 <ParseCueSheet+0x222>
 8008e32:	4620      	mov	r0, r4
 8008e34:	ab0c      	add	r3, sp, #48	; 0x30
 8008e36:	4642      	mov	r2, r8
 8008e38:	496c      	ldr	r1, [pc, #432]	; (8008fec <ParseCueSheet+0x28c>)
 8008e3a:	f002 fff3 	bl	800be24 <siscanf>
 8008e3e:	e7e5      	b.n	8008e0c <ParseCueSheet+0xac>
 8008e40:	4620      	mov	r0, r4
 8008e42:	aa02      	add	r2, sp, #8
 8008e44:	496a      	ldr	r1, [pc, #424]	; (8008ff0 <ParseCueSheet+0x290>)
 8008e46:	ab08      	add	r3, sp, #32
 8008e48:	f002 ffec 	bl	800be24 <siscanf>
 8008e4c:	f1ba 0f00 	cmp.w	sl, #0
 8008e50:	d10d      	bne.n	8008e6e <ParseCueSheet+0x10e>
 8008e52:	9b02      	ldr	r3, [sp, #8]
 8008e54:	454b      	cmp	r3, r9
 8008e56:	d1d9      	bne.n	8008e0c <ParseCueSheet+0xac>
 8008e58:	f1b9 0f01 	cmp.w	r9, #1
 8008e5c:	9b08      	ldr	r3, [sp, #32]
 8008e5e:	d03d      	beq.n	8008edc <ParseCueSheet+0x17c>
 8008e60:	4a64      	ldr	r2, [pc, #400]	; (8008ff4 <ParseCueSheet+0x294>)
 8008e62:	4293      	cmp	r3, r2
 8008e64:	d062      	beq.n	8008f2c <ParseCueSheet+0x1cc>
 8008e66:	2004      	movs	r0, #4
 8008e68:	b011      	add	sp, #68	; 0x44
 8008e6a:	e8bd 8ff0 	ldmia.w	sp!, {r4, r5, r6, r7, r8, r9, sl, fp, pc}
 8008e6e:	2f00      	cmp	r7, #0
 8008e70:	f000 808a 	beq.w	8008f88 <ParseCueSheet+0x228>
 8008e74:	f109 0201 	add.w	r2, r9, #1
 8008e78:	9b02      	ldr	r3, [sp, #8]
 8008e7a:	429a      	cmp	r2, r3
 8008e7c:	d0ea      	beq.n	8008e54 <ParseCueSheet+0xf4>
 8008e7e:	2000      	movs	r0, #0
 8008e80:	b011      	add	sp, #68	; 0x44
 8008e82:	e8bd 8ff0 	ldmia.w	sp!, {r4, r5, r6, r7, r8, r9, sl, fp, pc}
 8008e86:	aa06      	add	r2, sp, #24
 8008e88:	a905      	add	r1, sp, #20
 8008e8a:	ab04      	add	r3, sp, #16
 8008e8c:	4620      	mov	r0, r4
 8008e8e:	9201      	str	r2, [sp, #4]
 8008e90:	aa03      	add	r2, sp, #12
 8008e92:	9100      	str	r1, [sp, #0]
 8008e94:	4958      	ldr	r1, [pc, #352]	; (8008ff8 <ParseCueSheet+0x298>)
 8008e96:	f002 ffc5 	bl	800be24 <siscanf>
 8008e9a:	9b03      	ldr	r3, [sp, #12]
 8008e9c:	2b01      	cmp	r3, #1
 8008e9e:	d1b5      	bne.n	8008e0c <ParseCueSheet+0xac>
 8008ea0:	9b05      	ldr	r3, [sp, #20]
 8008ea2:	f241 1094 	movw	r0, #4500	; 0x1194
 8008ea6:	9a04      	ldr	r2, [sp, #16]
 8008ea8:	eb03 0383 	add.w	r3, r3, r3, lsl #2
 8008eac:	4953      	ldr	r1, [pc, #332]	; (8008ffc <ParseCueSheet+0x29c>)
 8008eae:	ebc3 1303 	rsb	r3, r3, r3, lsl #4
 8008eb2:	6809      	ldr	r1, [r1, #0]
 8008eb4:	fb00 3302 	mla	r3, r0, r2, r3
 8008eb8:	9a06      	ldr	r2, [sp, #24]
 8008eba:	4413      	add	r3, r2
 8008ebc:	2900      	cmp	r1, #0
 8008ebe:	d148      	bne.n	8008f52 <ParseCueSheet+0x1f2>
 8008ec0:	f44f 6200 	mov.w	r2, #2048	; 0x800
 8008ec4:	fb02 f303 	mul.w	r3, r2, r3
 8008ec8:	2f00      	cmp	r7, #0
 8008eca:	d17e      	bne.n	8008fca <ParseCueSheet+0x26a>
 8008ecc:	4a4c      	ldr	r2, [pc, #304]	; (8009000 <ParseCueSheet+0x2a0>)
 8008ece:	f1b9 0f01 	cmp.w	r9, #1
 8008ed2:	6013      	str	r3, [r2, #0]
 8008ed4:	d9d3      	bls.n	8008e7e <ParseCueSheet+0x11e>
 8008ed6:	2701      	movs	r7, #1
 8008ed8:	46ba      	mov	sl, r7
 8008eda:	e797      	b.n	8008e0c <ParseCueSheet+0xac>
 8008edc:	4a49      	ldr	r2, [pc, #292]	; (8009004 <ParseCueSheet+0x2a4>)
 8008ede:	4293      	cmp	r3, r2
 8008ee0:	d05b      	beq.n	8008f9a <ParseCueSheet+0x23a>
 8008ee2:	9b08      	ldr	r3, [sp, #32]
 8008ee4:	4a47      	ldr	r2, [pc, #284]	; (8009004 <ParseCueSheet+0x2a4>)
 8008ee6:	4293      	cmp	r3, r2
 8008ee8:	d1bd      	bne.n	8008e66 <ParseCueSheet+0x106>
 8008eea:	f102 426e 	add.w	r2, r2, #3992977408	; 0xee000000
 8008eee:	9b09      	ldr	r3, [sp, #36]	; 0x24
 8008ef0:	f5a2 1291 	sub.w	r2, r2, #1187840	; 0x122000
 8008ef4:	3a1c      	subs	r2, #28
 8008ef6:	4293      	cmp	r3, r2
 8008ef8:	d1b5      	bne.n	8008e66 <ParseCueSheet+0x106>
 8008efa:	f8bd 2028 	ldrh.w	r2, [sp, #40]	; 0x28
 8008efe:	f243 2335 	movw	r3, #12853	; 0x3235
 8008f02:	429a      	cmp	r2, r3
 8008f04:	d1af      	bne.n	8008e66 <ParseCueSheet+0x106>
 8008f06:	f89d 302a 	ldrb.w	r3, [sp, #42]	; 0x2a
 8008f0a:	2b00      	cmp	r3, #0
 8008f0c:	d1ab      	bne.n	8008e66 <ParseCueSheet+0x106>
 8008f0e:	4b3e      	ldr	r3, [pc, #248]	; (8009008 <ParseCueSheet+0x2a8>)
 8008f10:	f44f 6213 	mov.w	r2, #2352	; 0x930
 8008f14:	f04f 0a01 	mov.w	sl, #1
 8008f18:	601a      	str	r2, [r3, #0]
 8008f1a:	e777      	b.n	8008e0c <ParseCueSheet+0xac>
 8008f1c:	2f00      	cmp	r7, #0
 8008f1e:	d1ae      	bne.n	8008e7e <ParseCueSheet+0x11e>
 8008f20:	2003      	movs	r0, #3
 8008f22:	e731      	b.n	8008d88 <ParseCueSheet+0x28>
 8008f24:	2f00      	cmp	r7, #0
 8008f26:	d1aa      	bne.n	8008e7e <ParseCueSheet+0x11e>
 8008f28:	2002      	movs	r0, #2
 8008f2a:	e72d      	b.n	8008d88 <ParseCueSheet+0x28>
 8008f2c:	f8bd 3024 	ldrh.w	r3, [sp, #36]	; 0x24
 8008f30:	2b4f      	cmp	r3, #79	; 0x4f
 8008f32:	d198      	bne.n	8008e66 <ParseCueSheet+0x106>
 8008f34:	f102 4278 	add.w	r2, r2, #4160749568	; 0xf8000000
 8008f38:	9b0c      	ldr	r3, [sp, #48]	; 0x30
 8008f3a:	f502 221f 	add.w	r2, r2, #651264	; 0x9f000
 8008f3e:	f202 4201 	addw	r2, r2, #1025	; 0x401
 8008f42:	4293      	cmp	r3, r2
 8008f44:	d008      	beq.n	8008f58 <ParseCueSheet+0x1f8>
 8008f46:	9b0c      	ldr	r3, [sp, #48]	; 0x30
 8008f48:	4a30      	ldr	r2, [pc, #192]	; (800900c <ParseCueSheet+0x2ac>)
 8008f4a:	4293      	cmp	r3, r2
 8008f4c:	d01e      	beq.n	8008f8c <ParseCueSheet+0x22c>
 8008f4e:	2005      	movs	r0, #5
 8008f50:	e71a      	b.n	8008d88 <ParseCueSheet+0x28>
 8008f52:	4a2d      	ldr	r2, [pc, #180]	; (8009008 <ParseCueSheet+0x2a8>)
 8008f54:	6812      	ldr	r2, [r2, #0]
 8008f56:	e7b5      	b.n	8008ec4 <ParseCueSheet+0x164>
 8008f58:	f8bd 2034 	ldrh.w	r2, [sp, #52]	; 0x34
 8008f5c:	f645 1352 	movw	r3, #22866	; 0x5952
 8008f60:	429a      	cmp	r2, r3
 8008f62:	d1f0      	bne.n	8008f46 <ParseCueSheet+0x1e6>
 8008f64:	f89d 3036 	ldrb.w	r3, [sp, #54]	; 0x36
 8008f68:	2b00      	cmp	r3, #0
 8008f6a:	d1ec      	bne.n	8008f46 <ParseCueSheet+0x1e6>
 8008f6c:	4b23      	ldr	r3, [pc, #140]	; (8008ffc <ParseCueSheet+0x29c>)
 8008f6e:	2201      	movs	r2, #1
 8008f70:	601a      	str	r2, [r3, #0]
 8008f72:	2300      	movs	r3, #0
 8008f74:	4922      	ldr	r1, [pc, #136]	; (8009000 <ParseCueSheet+0x2a0>)
 8008f76:	4a26      	ldr	r2, [pc, #152]	; (8009010 <ParseCueSheet+0x2b0>)
 8008f78:	f04f 0a01 	mov.w	sl, #1
 8008f7c:	600b      	str	r3, [r1, #0]
 8008f7e:	6013      	str	r3, [r2, #0]
 8008f80:	e744      	b.n	8008e0c <ParseCueSheet+0xac>
 8008f82:	2f00      	cmp	r7, #0
 8008f84:	f47f af7b 	bne.w	8008e7e <ParseCueSheet+0x11e>
 8008f88:	2006      	movs	r0, #6
 8008f8a:	e6fd      	b.n	8008d88 <ParseCueSheet+0x28>
 8008f8c:	f89d 3034 	ldrb.w	r3, [sp, #52]	; 0x34
 8008f90:	2b00      	cmp	r3, #0
 8008f92:	d1dc      	bne.n	8008f4e <ParseCueSheet+0x1ee>
 8008f94:	4a19      	ldr	r2, [pc, #100]	; (8008ffc <ParseCueSheet+0x29c>)
 8008f96:	6013      	str	r3, [r2, #0]
 8008f98:	e7eb      	b.n	8008f72 <ParseCueSheet+0x212>
 8008f9a:	f102 426b 	add.w	r2, r2, #3942645760	; 0xeb000000
 8008f9e:	9b09      	ldr	r3, [sp, #36]	; 0x24
 8008fa0:	f5a2 1291 	sub.w	r2, r2, #1187840	; 0x122000
 8008fa4:	3a1c      	subs	r2, #28
 8008fa6:	4293      	cmp	r3, r2
 8008fa8:	d19b      	bne.n	8008ee2 <ParseCueSheet+0x182>
 8008faa:	f8bd 2028 	ldrh.w	r2, [sp, #40]	; 0x28
 8008fae:	f643 0334 	movw	r3, #14388	; 0x3834
 8008fb2:	429a      	cmp	r2, r3
 8008fb4:	d195      	bne.n	8008ee2 <ParseCueSheet+0x182>
 8008fb6:	f89d 302a 	ldrb.w	r3, [sp, #42]	; 0x2a
 8008fba:	2b00      	cmp	r3, #0
 8008fbc:	d191      	bne.n	8008ee2 <ParseCueSheet+0x182>
 8008fbe:	4b12      	ldr	r3, [pc, #72]	; (8009008 <ParseCueSheet+0x2a8>)
 8008fc0:	f44f 6200 	mov.w	r2, #2048	; 0x800
 8008fc4:	46ca      	mov	sl, r9
 8008fc6:	601a      	str	r2, [r3, #0]
 8008fc8:	e720      	b.n	8008e0c <ParseCueSheet+0xac>
 8008fca:	4a11      	ldr	r2, [pc, #68]	; (8009010 <ParseCueSheet+0x2b0>)
 8008fcc:	2000      	movs	r0, #0
 8008fce:	6013      	str	r3, [r2, #0]
 8008fd0:	e6da      	b.n	8008d88 <ParseCueSheet+0x28>
 8008fd2:	bf00      	nop
 8008fd4:	20000348 	.word	0x20000348
 8008fd8:	200087ac 	.word	0x200087ac
 8008fdc:	20005264 	.word	0x20005264
 8008fe0:	20006d07 	.word	0x20006d07
 8008fe4:	0800cfbc 	.word	0x0800cfbc
 8008fe8:	0800d000 	.word	0x0800d000
 8008fec:	0800cfa8 	.word	0x0800cfa8
 8008ff0:	0800cfc4 	.word	0x0800cfc4
 8008ff4:	49445541 	.word	0x49445541
 8008ff8:	0800d008 	.word	0x0800d008
 8008ffc:	20004c2c 	.word	0x20004c2c
 8009000:	20000334 	.word	0x20000334
 8009004:	45444f4d 	.word	0x45444f4d
 8009008:	200089dc 	.word	0x200089dc
 800900c:	45564157 	.word	0x45564157
 8009010:	20000338 	.word	0x20000338

08009014 <OpenDataTrack>:
 8009014:	b530      	push	{r4, r5, lr}
 8009016:	b0c3      	sub	sp, #268	; 0x10c
 8009018:	2101      	movs	r1, #1
 800901a:	4816      	ldr	r0, [pc, #88]	; (8009074 <OpenDataTrack+0x60>)
 800901c:	aa01      	add	r2, sp, #4
 800901e:	f7ff fe9f 	bl	8008d60 <ParseCueSheet>
 8009022:	b130      	cbz	r0, 8009032 <OpenDataTrack+0x1e>
 8009024:	2401      	movs	r4, #1
 8009026:	2200      	movs	r2, #0
 8009028:	4b13      	ldr	r3, [pc, #76]	; (8009078 <OpenDataTrack+0x64>)
 800902a:	4620      	mov	r0, r4
 800902c:	601a      	str	r2, [r3, #0]
 800902e:	b043      	add	sp, #268	; 0x10c
 8009030:	bd30      	pop	{r4, r5, pc}
 8009032:	4a12      	ldr	r2, [pc, #72]	; (800907c <OpenDataTrack+0x68>)
 8009034:	ab01      	add	r3, sp, #4
 8009036:	4d12      	ldr	r5, [pc, #72]	; (8009080 <OpenDataTrack+0x6c>)
 8009038:	4604      	mov	r4, r0
 800903a:	6812      	ldr	r2, [r2, #0]
 800903c:	4911      	ldr	r1, [pc, #68]	; (8009084 <OpenDataTrack+0x70>)
 800903e:	eb02 2202 	add.w	r2, r2, r2, lsl #8
 8009042:	4811      	ldr	r0, [pc, #68]	; (8009088 <OpenDataTrack+0x74>)
 8009044:	442a      	add	r2, r5
 8009046:	f002 fecd 	bl	800bde4 <siprintf>
 800904a:	4810      	ldr	r0, [pc, #64]	; (800908c <OpenDataTrack+0x78>)
 800904c:	f7fe fbee 	bl	800782c <f_close>
 8009050:	2201      	movs	r2, #1
 8009052:	490d      	ldr	r1, [pc, #52]	; (8009088 <OpenDataTrack+0x74>)
 8009054:	480d      	ldr	r0, [pc, #52]	; (800908c <OpenDataTrack+0x78>)
 8009056:	f7fd ff55 	bl	8006f04 <f_open>
 800905a:	2800      	cmp	r0, #0
 800905c:	d1e2      	bne.n	8009024 <OpenDataTrack+0x10>
 800905e:	4b0c      	ldr	r3, [pc, #48]	; (8009090 <OpenDataTrack+0x7c>)
 8009060:	f04f 31ff 	mov.w	r1, #4294967295
 8009064:	2201      	movs	r2, #1
 8009066:	4620      	mov	r0, r4
 8009068:	6019      	str	r1, [r3, #0]
 800906a:	4b03      	ldr	r3, [pc, #12]	; (8009078 <OpenDataTrack+0x64>)
 800906c:	601a      	str	r2, [r3, #0]
 800906e:	b043      	add	sp, #268	; 0x10c
 8009070:	bd30      	pop	{r4, r5, pc}
 8009072:	bf00      	nop
 8009074:	200045b8 	.word	0x200045b8
 8009078:	20000348 	.word	0x20000348
 800907c:	20000358 	.word	0x20000358
 8009080:	20008a24 	.word	0x20008a24
 8009084:	0800cf98 	.word	0x0800cf98
 8009088:	20004c30 	.word	0x20004c30
 800908c:	200087ac 	.word	0x200087ac
 8009090:	2000000c 	.word	0x2000000c

08009094 <OpenAudioTrack>:
 8009094:	b570      	push	{r4, r5, r6, lr}
 8009096:	4605      	mov	r5, r0
 8009098:	b0c2      	sub	sp, #264	; 0x108
 800909a:	4815      	ldr	r0, [pc, #84]	; (80090f0 <OpenAudioTrack+0x5c>)
 800909c:	aa01      	add	r2, sp, #4
 800909e:	4629      	mov	r1, r5
 80090a0:	f7ff fe5e 	bl	8008d60 <ParseCueSheet>
 80090a4:	b130      	cbz	r0, 80090b4 <OpenAudioTrack+0x20>
 80090a6:	2401      	movs	r4, #1
 80090a8:	2200      	movs	r2, #0
 80090aa:	4b12      	ldr	r3, [pc, #72]	; (80090f4 <OpenAudioTrack+0x60>)
 80090ac:	4620      	mov	r0, r4
 80090ae:	601a      	str	r2, [r3, #0]
 80090b0:	b042      	add	sp, #264	; 0x108
 80090b2:	bd70      	pop	{r4, r5, r6, pc}
 80090b4:	4a10      	ldr	r2, [pc, #64]	; (80090f8 <OpenAudioTrack+0x64>)
 80090b6:	ab01      	add	r3, sp, #4
 80090b8:	4e10      	ldr	r6, [pc, #64]	; (80090fc <OpenAudioTrack+0x68>)
 80090ba:	4604      	mov	r4, r0
 80090bc:	6812      	ldr	r2, [r2, #0]
 80090be:	4910      	ldr	r1, [pc, #64]	; (8009100 <OpenAudioTrack+0x6c>)
 80090c0:	eb02 2202 	add.w	r2, r2, r2, lsl #8
 80090c4:	480f      	ldr	r0, [pc, #60]	; (8009104 <OpenAudioTrack+0x70>)
 80090c6:	4432      	add	r2, r6
 80090c8:	f002 fe8c 	bl	800bde4 <siprintf>
 80090cc:	480e      	ldr	r0, [pc, #56]	; (8009108 <OpenAudioTrack+0x74>)
 80090ce:	f7fe fbad 	bl	800782c <f_close>
 80090d2:	2201      	movs	r2, #1
 80090d4:	490b      	ldr	r1, [pc, #44]	; (8009104 <OpenAudioTrack+0x70>)
 80090d6:	480c      	ldr	r0, [pc, #48]	; (8009108 <OpenAudioTrack+0x74>)
 80090d8:	f7fd ff14 	bl	8006f04 <f_open>
 80090dc:	2800      	cmp	r0, #0
 80090de:	d1e2      	bne.n	80090a6 <OpenAudioTrack+0x12>
 80090e0:	4b0a      	ldr	r3, [pc, #40]	; (800910c <OpenAudioTrack+0x78>)
 80090e2:	2202      	movs	r2, #2
 80090e4:	4620      	mov	r0, r4
 80090e6:	601d      	str	r5, [r3, #0]
 80090e8:	4b02      	ldr	r3, [pc, #8]	; (80090f4 <OpenAudioTrack+0x60>)
 80090ea:	601a      	str	r2, [r3, #0]
 80090ec:	b042      	add	sp, #264	; 0x108
 80090ee:	bd70      	pop	{r4, r5, r6, pc}
 80090f0:	200045b8 	.word	0x200045b8
 80090f4:	20000348 	.word	0x20000348
 80090f8:	20000358 	.word	0x20000358
 80090fc:	20008a24 	.word	0x20008a24
 8009100:	0800cf98 	.word	0x0800cf98
 8009104:	20004c30 	.word	0x20004c30
 8009108:	200087ac 	.word	0x200087ac
 800910c:	200045b4 	.word	0x200045b4

08009110 <MX_FATFS_Init>:
 8009110:	b508      	push	{r3, lr}
 8009112:	4903      	ldr	r1, [pc, #12]	; (8009120 <MX_FATFS_Init+0x10>)
 8009114:	4803      	ldr	r0, [pc, #12]	; (8009124 <MX_FATFS_Init+0x14>)
 8009116:	f7fe ff2f 	bl	8007f78 <FATFS_LinkDriver>
 800911a:	4b03      	ldr	r3, [pc, #12]	; (8009128 <MX_FATFS_Init+0x18>)
 800911c:	7018      	strb	r0, [r3, #0]
 800911e:	bd08      	pop	{r3, pc}
 8009120:	200047b8 	.word	0x200047b8
 8009124:	2000001c 	.word	0x2000001c
 8009128:	200047bc 	.word	0x200047bc

0800912c <ASCIICompare>:
 800912c:	b5f8      	push	{r3, r4, r5, r6, r7, lr}
 800912e:	460c      	mov	r4, r1
 8009130:	4605      	mov	r5, r0
 8009132:	f7fb f875 	bl	8004220 <strlen>
 8009136:	4606      	mov	r6, r0
 8009138:	4620      	mov	r0, r4
 800913a:	f7fb f871 	bl	8004220 <strlen>
 800913e:	42b0      	cmp	r0, r6
 8009140:	bf28      	it	cs
 8009142:	4630      	movcs	r0, r6
 8009144:	b1f0      	cbz	r0, 8009184 <ASCIICompare+0x58>
 8009146:	3d01      	subs	r5, #1
 8009148:	1e61      	subs	r1, r4, #1
 800914a:	4f12      	ldr	r7, [pc, #72]	; (8009194 <ASCIICompare+0x68>)
 800914c:	eb05 0c00 	add.w	ip, r5, r0
 8009150:	e002      	b.n	8009158 <ASCIICompare+0x2c>
 8009152:	d31c      	bcc.n	800918e <ASCIICompare+0x62>
 8009154:	4565      	cmp	r5, ip
 8009156:	d015      	beq.n	8009184 <ASCIICompare+0x58>
 8009158:	f815 2f01 	ldrb.w	r2, [r5, #1]!
 800915c:	5cbb      	ldrb	r3, [r7, r2]
 800915e:	f003 0303 	and.w	r3, r3, #3
 8009162:	2b01      	cmp	r3, #1
 8009164:	d101      	bne.n	800916a <ASCIICompare+0x3e>
 8009166:	3220      	adds	r2, #32
 8009168:	b2d2      	uxtb	r2, r2
 800916a:	f811 3f01 	ldrb.w	r3, [r1, #1]!
 800916e:	5cfc      	ldrb	r4, [r7, r3]
 8009170:	f004 0403 	and.w	r4, r4, #3
 8009174:	2c01      	cmp	r4, #1
 8009176:	d101      	bne.n	800917c <ASCIICompare+0x50>
 8009178:	3320      	adds	r3, #32
 800917a:	b2db      	uxtb	r3, r3
 800917c:	429a      	cmp	r2, r3
 800917e:	d9e8      	bls.n	8009152 <ASCIICompare+0x26>
 8009180:	2001      	movs	r0, #1
 8009182:	bdf8      	pop	{r3, r4, r5, r6, r7, pc}
 8009184:	4286      	cmp	r6, r0
 8009186:	bf94      	ite	ls
 8009188:	2000      	movls	r0, #0
 800918a:	2001      	movhi	r0, #1
 800918c:	bdf8      	pop	{r3, r4, r5, r6, r7, pc}
 800918e:	2000      	movs	r0, #0
 8009190:	bdf8      	pop	{r3, r4, r5, r6, r7, pc}
 8009192:	bf00      	nop
 8009194:	0800d156 	.word	0x0800d156

08009198 <search_ext>:
 8009198:	e92d 41f0 	stmdb	sp!, {r4, r5, r6, r7, r8, lr}
 800919c:	4e21      	ldr	r6, [pc, #132]	; (8009224 <search_ext+0x8c>)
 800919e:	460c      	mov	r4, r1
 80091a0:	4605      	mov	r5, r0
 80091a2:	4617      	mov	r7, r2
 80091a4:	f101 0816 	add.w	r8, r1, #22
 80091a8:	e004      	b.n	80091b4 <search_ext+0x1c>
 80091aa:	7da0      	ldrb	r0, [r4, #22]
 80091ac:	b148      	cbz	r0, 80091c2 <search_ext+0x2a>
 80091ae:	7a23      	ldrb	r3, [r4, #8]
 80091b0:	06db      	lsls	r3, r3, #27
 80091b2:	d508      	bpl.n	80091c6 <search_ext+0x2e>
 80091b4:	4621      	mov	r1, r4
 80091b6:	4628      	mov	r0, r5
 80091b8:	f7fe fe42 	bl	8007e40 <f_readdir>
 80091bc:	2800      	cmp	r0, #0
 80091be:	d0f4      	beq.n	80091aa <search_ext+0x12>
 80091c0:	2000      	movs	r0, #0
 80091c2:	e8bd 81f0 	ldmia.w	sp!, {r4, r5, r6, r7, r8, pc}
 80091c6:	212e      	movs	r1, #46	; 0x2e
 80091c8:	4640      	mov	r0, r8
 80091ca:	f002 fe62 	bl	800be92 <strchr>
 80091ce:	4603      	mov	r3, r0
 80091d0:	2800      	cmp	r0, #0
 80091d2:	d0f6      	beq.n	80091c2 <search_ext+0x2a>
 80091d4:	7802      	ldrb	r2, [r0, #0]
 80091d6:	b14a      	cbz	r2, 80091ec <search_ext+0x54>
 80091d8:	5cb1      	ldrb	r1, [r6, r2]
 80091da:	f001 0103 	and.w	r1, r1, #3
 80091de:	2901      	cmp	r1, #1
 80091e0:	d014      	beq.n	800920c <search_ext+0x74>
 80091e2:	7002      	strb	r2, [r0, #0]
 80091e4:	f810 2f01 	ldrb.w	r2, [r0, #1]!
 80091e8:	2a00      	cmp	r2, #0
 80091ea:	d1f5      	bne.n	80091d8 <search_ext+0x40>
 80091ec:	7859      	ldrb	r1, [r3, #1]
 80091ee:	3301      	adds	r3, #1
 80091f0:	783a      	ldrb	r2, [r7, #0]
 80091f2:	4291      	cmp	r1, r2
 80091f4:	d1de      	bne.n	80091b4 <search_ext+0x1c>
 80091f6:	7859      	ldrb	r1, [r3, #1]
 80091f8:	3301      	adds	r3, #1
 80091fa:	787a      	ldrb	r2, [r7, #1]
 80091fc:	4291      	cmp	r1, r2
 80091fe:	d1d9      	bne.n	80091b4 <search_ext+0x1c>
 8009200:	785a      	ldrb	r2, [r3, #1]
 8009202:	78bb      	ldrb	r3, [r7, #2]
 8009204:	429a      	cmp	r2, r3
 8009206:	d1d5      	bne.n	80091b4 <search_ext+0x1c>
 8009208:	2001      	movs	r0, #1
 800920a:	e7da      	b.n	80091c2 <search_ext+0x2a>
 800920c:	3220      	adds	r2, #32
 800920e:	7002      	strb	r2, [r0, #0]
 8009210:	f810 2f01 	ldrb.w	r2, [r0, #1]!
 8009214:	2a00      	cmp	r2, #0
 8009216:	d1df      	bne.n	80091d8 <search_ext+0x40>
 8009218:	7859      	ldrb	r1, [r3, #1]
 800921a:	3301      	adds	r3, #1
 800921c:	783a      	ldrb	r2, [r7, #0]
 800921e:	4291      	cmp	r1, r2
 8009220:	d1c8      	bne.n	80091b4 <search_ext+0x1c>
 8009222:	e7e8      	b.n	80091f6 <search_ext+0x5e>
 8009224:	0800d156 	.word	0x0800d156

08009228 <listfiles>:
 8009228:	4bc4      	ldr	r3, [pc, #784]	; (800953c <listfiles+0x314>)
 800922a:	49c5      	ldr	r1, [pc, #788]	; (8009540 <listfiles+0x318>)
 800922c:	e92d 4ff0 	stmdb	sp!, {r4, r5, r6, r7, r8, r9, sl, fp, lr}
 8009230:	ed2d 8b02 	vpush	{d8}
 8009234:	781b      	ldrb	r3, [r3, #0]
 8009236:	f5ad 7d6d 	sub.w	sp, sp, #948	; 0x3b4
 800923a:	4cc2      	ldr	r4, [pc, #776]	; (8009544 <listfiles+0x31c>)
 800923c:	4283      	cmp	r3, r0
 800923e:	9001      	str	r0, [sp, #4]
 8009240:	600c      	str	r4, [r1, #0]
 8009242:	d102      	bne.n	800924a <listfiles+0x22>
 8009244:	2801      	cmp	r0, #1
 8009246:	f000 80d2 	beq.w	80093ee <listfiles+0x1c6>
 800924a:	f10d 0914 	add.w	r9, sp, #20
 800924e:	49be      	ldr	r1, [pc, #760]	; (8009548 <listfiles+0x320>)
 8009250:	4648      	mov	r0, r9
 8009252:	f7fe fd41 	bl	8007cd8 <f_opendir>
 8009256:	9002      	str	r0, [sp, #8]
 8009258:	2800      	cmp	r0, #0
 800925a:	f040 8162 	bne.w	8009522 <listfiles+0x2fa>
 800925e:	9b01      	ldr	r3, [sp, #4]
 8009260:	2b01      	cmp	r3, #1
 8009262:	d018      	beq.n	8009296 <listfiles+0x6e>
 8009264:	2b02      	cmp	r3, #2
 8009266:	f000 809f 	beq.w	80093a8 <listfiles+0x180>
 800926a:	2b03      	cmp	r3, #3
 800926c:	f000 80d0 	beq.w	8009410 <listfiles+0x1e8>
 8009270:	4fb6      	ldr	r7, [pc, #728]	; (800954c <listfiles+0x324>)
 8009272:	f04f 0a00 	mov.w	sl, #0
 8009276:	4648      	mov	r0, r9
 8009278:	f7fe fdae 	bl	8007dd8 <f_closedir>
 800927c:	46d0      	mov	r8, sl
 800927e:	4baf      	ldr	r3, [pc, #700]	; (800953c <listfiles+0x314>)
 8009280:	9a01      	ldr	r2, [sp, #4]
 8009282:	f8c7 a000 	str.w	sl, [r7]
 8009286:	701a      	strb	r2, [r3, #0]
 8009288:	4640      	mov	r0, r8
 800928a:	f50d 7d6d 	add.w	sp, sp, #948	; 0x3b4
 800928e:	ecbd 8b02 	vpop	{d8}
 8009292:	e8bd 8ff0 	ldmia.w	sp!, {r4, r5, r6, r7, r8, r9, sl, fp, pc}
 8009296:	4680      	mov	r8, r0
 8009298:	4ead      	ldr	r6, [pc, #692]	; (8009550 <listfiles+0x328>)
 800929a:	4dae      	ldr	r5, [pc, #696]	; (8009554 <listfiles+0x32c>)
 800929c:	e007      	b.n	80092ae <listfiles+0x86>
 800929e:	f89d 3196 	ldrb.w	r3, [sp, #406]	; 0x196
 80092a2:	b153      	cbz	r3, 80092ba <listfiles+0x92>
 80092a4:	f89d 3188 	ldrb.w	r3, [sp, #392]	; 0x188
 80092a8:	06d8      	lsls	r0, r3, #27
 80092aa:	f100 80cc 	bmi.w	8009446 <listfiles+0x21e>
 80092ae:	a960      	add	r1, sp, #384	; 0x180
 80092b0:	4648      	mov	r0, r9
 80092b2:	f7fe fdc5 	bl	8007e40 <f_readdir>
 80092b6:	2800      	cmp	r0, #0
 80092b8:	d0f1      	beq.n	800929e <listfiles+0x76>
 80092ba:	f1b8 0f00 	cmp.w	r8, #0
 80092be:	d0d7      	beq.n	8009270 <listfiles+0x48>
 80092c0:	f1b8 0f01 	cmp.w	r8, #1
 80092c4:	46c2      	mov	sl, r8
 80092c6:	d03d      	beq.n	8009344 <listfiles+0x11c>
 80092c8:	4ba2      	ldr	r3, [pc, #648]	; (8009554 <listfiles+0x32c>)
 80092ca:	461f      	mov	r7, r3
 80092cc:	f8cd 800c 	str.w	r8, [sp, #12]
 80092d0:	2600      	movs	r6, #0
 80092d2:	f8df b298 	ldr.w	fp, [pc, #664]	; 800956c <listfiles+0x344>
 80092d6:	ad1f      	add	r5, sp, #124	; 0x7c
 80092d8:	46b8      	mov	r8, r7
 80092da:	ee08 9a10 	vmov	s16, r9
 80092de:	4659      	mov	r1, fp
 80092e0:	4628      	mov	r0, r5
 80092e2:	f002 fdcd 	bl	800be80 <stpcpy>
 80092e6:	4607      	mov	r7, r0
 80092e8:	2e00      	cmp	r6, #0
 80092ea:	f000 808e 	beq.w	800940a <listfiles+0x1e2>
 80092ee:	f46f 7180 	mvn.w	r1, #256	; 0x100
 80092f2:	4634      	mov	r4, r6
 80092f4:	eb0b 0901 	add.w	r9, fp, r1
 80092f8:	e004      	b.n	8009304 <listfiles+0xdc>
 80092fa:	f002 fdd7 	bl	800beac <strcpy>
 80092fe:	3c01      	subs	r4, #1
 8009300:	f000 8083 	beq.w	800940a <listfiles+0x1e2>
 8009304:	4629      	mov	r1, r5
 8009306:	4648      	mov	r0, r9
 8009308:	f7ff ff10 	bl	800912c <ASCIICompare>
 800930c:	f46f 7280 	mvn.w	r2, #256	; 0x100
 8009310:	4603      	mov	r3, r0
 8009312:	4649      	mov	r1, r9
 8009314:	f209 1001 	addw	r0, r9, #257	; 0x101
 8009318:	4491      	add	r9, r2
 800931a:	2b00      	cmp	r3, #0
 800931c:	d1ed      	bne.n	80092fa <listfiles+0xd2>
 800931e:	1c60      	adds	r0, r4, #1
 8009320:	eb00 2000 	add.w	r0, r0, r0, lsl #8
 8009324:	1b7a      	subs	r2, r7, r5
 8009326:	4440      	add	r0, r8
 8009328:	4629      	mov	r1, r5
 800932a:	f20b 1b01 	addw	fp, fp, #257	; 0x101
 800932e:	3201      	adds	r2, #1
 8009330:	f002 fc88 	bl	800bc44 <memcpy>
 8009334:	1cb3      	adds	r3, r6, #2
 8009336:	3601      	adds	r6, #1
 8009338:	459a      	cmp	sl, r3
 800933a:	d8d0      	bhi.n	80092de <listfiles+0xb6>
 800933c:	f8dd 800c 	ldr.w	r8, [sp, #12]
 8009340:	ee18 9a10 	vmov	r9, s16
 8009344:	4b7e      	ldr	r3, [pc, #504]	; (8009540 <listfiles+0x318>)
 8009346:	4f81      	ldr	r7, [pc, #516]	; (800954c <listfiles+0x324>)
 8009348:	681c      	ldr	r4, [r3, #0]
 800934a:	3408      	adds	r4, #8
 800934c:	2600      	movs	r6, #0
 800934e:	3401      	adds	r4, #1
 8009350:	f8df b200 	ldr.w	fp, [pc, #512]	; 8009554 <listfiles+0x32c>
 8009354:	4635      	mov	r5, r6
 8009356:	f804 6c01 	strb.w	r6, [r4, #-1]
 800935a:	3601      	adds	r6, #1
 800935c:	4659      	mov	r1, fp
 800935e:	4620      	mov	r0, r4
 8009360:	6025      	str	r5, [r4, #0]
 8009362:	221e      	movs	r2, #30
 8009364:	6065      	str	r5, [r4, #4]
 8009366:	f20b 1b01 	addw	fp, fp, #257	; 0x101
 800936a:	60a5      	str	r5, [r4, #8]
 800936c:	3420      	adds	r4, #32
 800936e:	f844 5c14 	str.w	r5, [r4, #-20]
 8009372:	f844 5c10 	str.w	r5, [r4, #-16]
 8009376:	f844 5c0c 	str.w	r5, [r4, #-12]
 800937a:	f844 5c08 	str.w	r5, [r4, #-8]
 800937e:	f804 5c04 	strb.w	r5, [r4, #-4]
 8009382:	f804 5c03 	strb.w	r5, [r4, #-3]
 8009386:	f804 5c02 	strb.w	r5, [r4, #-2]
 800938a:	f002 fd97 	bl	800bebc <strncpy>
 800938e:	4556      	cmp	r6, sl
 8009390:	d3e1      	bcc.n	8009356 <listfiles+0x12e>
 8009392:	4648      	mov	r0, r9
 8009394:	f7fe fd20 	bl	8007dd8 <f_closedir>
 8009398:	9b02      	ldr	r3, [sp, #8]
 800939a:	2b00      	cmp	r3, #0
 800939c:	f43f af6f 	beq.w	800927e <listfiles+0x56>
 80093a0:	f04f 0afe 	mov.w	sl, #254	; 0xfe
 80093a4:	46d0      	mov	r8, sl
 80093a6:	e76a      	b.n	800927e <listfiles+0x56>
 80093a8:	4b6a      	ldr	r3, [pc, #424]	; (8009554 <listfiles+0x32c>)
 80093aa:	aca6      	add	r4, sp, #664	; 0x298
 80093ac:	f8dd 8008 	ldr.w	r8, [sp, #8]
 80093b0:	461f      	mov	r7, r3
 80093b2:	4d69      	ldr	r5, [pc, #420]	; (8009558 <listfiles+0x330>)
 80093b4:	461e      	mov	r6, r3
 80093b6:	e00c      	b.n	80093d2 <listfiles+0x1aa>
 80093b8:	f1b8 0fc8 	cmp.w	r8, #200	; 0xc8
 80093bc:	f108 0801 	add.w	r8, r8, #1
 80093c0:	f000 809a 	beq.w	80094f8 <listfiles+0x2d0>
 80093c4:	f002 fd7a 	bl	800bebc <strncpy>
 80093c8:	2300      	movs	r3, #0
 80093ca:	f206 1601 	addw	r6, r6, #257	; 0x101
 80093ce:	f806 3c01 	strb.w	r3, [r6, #-1]
 80093d2:	462a      	mov	r2, r5
 80093d4:	4621      	mov	r1, r4
 80093d6:	4648      	mov	r0, r9
 80093d8:	f7ff fede 	bl	8009198 <search_ext>
 80093dc:	4603      	mov	r3, r0
 80093de:	f44f 7280 	mov.w	r2, #256	; 0x100
 80093e2:	4630      	mov	r0, r6
 80093e4:	f20d 21ae 	addw	r1, sp, #686	; 0x2ae
 80093e8:	2b00      	cmp	r3, #0
 80093ea:	d1e5      	bne.n	80093b8 <listfiles+0x190>
 80093ec:	e765      	b.n	80092ba <listfiles+0x92>
 80093ee:	4f57      	ldr	r7, [pc, #348]	; (800954c <listfiles+0x324>)
 80093f0:	f8d7 a000 	ldr.w	sl, [r7]
 80093f4:	f1ba 0ffe 	cmp.w	sl, #254	; 0xfe
 80093f8:	f000 808a 	beq.w	8009510 <listfiles+0x2e8>
 80093fc:	46d0      	mov	r8, sl
 80093fe:	f1ba 0f00 	cmp.w	sl, #0
 8009402:	d17f      	bne.n	8009504 <listfiles+0x2dc>
 8009404:	f10d 0914 	add.w	r9, sp, #20
 8009408:	e733      	b.n	8009272 <listfiles+0x4a>
 800940a:	f240 1001 	movw	r0, #257	; 0x101
 800940e:	e789      	b.n	8009324 <listfiles+0xfc>
 8009410:	f8dd 8008 	ldr.w	r8, [sp, #8]
 8009414:	aca6      	add	r4, sp, #664	; 0x298
 8009416:	4e51      	ldr	r6, [pc, #324]	; (800955c <listfiles+0x334>)
 8009418:	4d51      	ldr	r5, [pc, #324]	; (8009560 <listfiles+0x338>)
 800941a:	f8df a148 	ldr.w	sl, [pc, #328]	; 8009564 <listfiles+0x33c>
 800941e:	e008      	b.n	8009432 <listfiles+0x20a>
 8009420:	f7fe fa04 	bl	800782c <f_close>
 8009424:	2201      	movs	r2, #1
 8009426:	f20d 21ae 	addw	r1, sp, #686	; 0x2ae
 800942a:	4628      	mov	r0, r5
 800942c:	f7fd fd6a 	bl	8006f04 <f_open>
 8009430:	b368      	cbz	r0, 800948e <listfiles+0x266>
 8009432:	4632      	mov	r2, r6
 8009434:	4621      	mov	r1, r4
 8009436:	4648      	mov	r0, r9
 8009438:	f7ff feae 	bl	8009198 <search_ext>
 800943c:	4603      	mov	r3, r0
 800943e:	4628      	mov	r0, r5
 8009440:	2b00      	cmp	r3, #0
 8009442:	d1ed      	bne.n	8009420 <listfiles+0x1f8>
 8009444:	e739      	b.n	80092ba <listfiles+0x92>
 8009446:	f50d 71cb 	add.w	r1, sp, #406	; 0x196
 800944a:	a812      	add	r0, sp, #72	; 0x48
 800944c:	f7fe fc44 	bl	8007cd8 <f_opendir>
 8009450:	4607      	mov	r7, r0
 8009452:	4632      	mov	r2, r6
 8009454:	a9a6      	add	r1, sp, #664	; 0x298
 8009456:	a812      	add	r0, sp, #72	; 0x48
 8009458:	2f00      	cmp	r7, #0
 800945a:	f47f af2e 	bne.w	80092ba <listfiles+0x92>
 800945e:	f7ff fe9b 	bl	8009198 <search_ext>
 8009462:	f44f 7280 	mov.w	r2, #256	; 0x100
 8009466:	eb08 2408 	add.w	r4, r8, r8, lsl #8
 800946a:	f50d 71cb 	add.w	r1, sp, #406	; 0x196
 800946e:	b150      	cbz	r0, 8009486 <listfiles+0x25e>
 8009470:	442c      	add	r4, r5
 8009472:	f1b8 0fc8 	cmp.w	r8, #200	; 0xc8
 8009476:	f108 0801 	add.w	r8, r8, #1
 800947a:	4620      	mov	r0, r4
 800947c:	d054      	beq.n	8009528 <listfiles+0x300>
 800947e:	f002 fd1d 	bl	800bebc <strncpy>
 8009482:	f884 7100 	strb.w	r7, [r4, #256]	; 0x100
 8009486:	a812      	add	r0, sp, #72	; 0x48
 8009488:	f7fe fca6 	bl	8007dd8 <f_closedir>
 800948c:	e70f      	b.n	80092ae <listfiles+0x86>
 800948e:	f44f 7280 	mov.w	r2, #256	; 0x100
 8009492:	4934      	ldr	r1, [pc, #208]	; (8009564 <listfiles+0x33c>)
 8009494:	4628      	mov	r0, r5
 8009496:	ab04      	add	r3, sp, #16
 8009498:	f7fd ff32 	bl	8007300 <f_read>
 800949c:	4607      	mov	r7, r0
 800949e:	bb00      	cbnz	r0, 80094e2 <listfiles+0x2ba>
 80094a0:	9a04      	ldr	r2, [sp, #16]
 80094a2:	f5b2 7f80 	cmp.w	r2, #256	; 0x100
 80094a6:	d11c      	bne.n	80094e2 <listfiles+0x2ba>
 80094a8:	f8ba 3000 	ldrh.w	r3, [sl]
 80094ac:	f248 71a0 	movw	r1, #34720	; 0x87a0
 80094b0:	ba5b      	rev16	r3, r3
 80094b2:	b29b      	uxth	r3, r3
 80094b4:	428b      	cmp	r3, r1
 80094b6:	d114      	bne.n	80094e2 <listfiles+0x2ba>
 80094b8:	f8ba 3002 	ldrh.w	r3, [sl, #2]
 80094bc:	492a      	ldr	r1, [pc, #168]	; (8009568 <listfiles+0x340>)
 80094be:	ba5b      	rev16	r3, r3
 80094c0:	8809      	ldrh	r1, [r1, #0]
 80094c2:	b29b      	uxth	r3, r3
 80094c4:	4299      	cmp	r1, r3
 80094c6:	d10c      	bne.n	80094e2 <listfiles+0x2ba>
 80094c8:	eb08 2308 	add.w	r3, r8, r8, lsl #8
 80094cc:	4821      	ldr	r0, [pc, #132]	; (8009554 <listfiles+0x32c>)
 80094ce:	f108 0801 	add.w	r8, r8, #1
 80094d2:	f20d 21ae 	addw	r1, sp, #686	; 0x2ae
 80094d6:	4403      	add	r3, r0
 80094d8:	4618      	mov	r0, r3
 80094da:	f002 fcef 	bl	800bebc <strncpy>
 80094de:	f880 7100 	strb.w	r7, [r0, #256]	; 0x100
 80094e2:	f1b8 0fc8 	cmp.w	r8, #200	; 0xc8
 80094e6:	d1a4      	bne.n	8009432 <listfiles+0x20a>
 80094e8:	4621      	mov	r1, r4
 80094ea:	4a1c      	ldr	r2, [pc, #112]	; (800955c <listfiles+0x334>)
 80094ec:	4648      	mov	r0, r9
 80094ee:	f7ff fe53 	bl	8009198 <search_ext>
 80094f2:	b1f8      	cbz	r0, 8009534 <listfiles+0x30c>
 80094f4:	4b17      	ldr	r3, [pc, #92]	; (8009554 <listfiles+0x32c>)
 80094f6:	461f      	mov	r7, r3
 80094f8:	f04f 0ac8 	mov.w	sl, #200	; 0xc8
 80094fc:	2301      	movs	r3, #1
 80094fe:	46d0      	mov	r8, sl
 8009500:	9302      	str	r3, [sp, #8]
 8009502:	e6e3      	b.n	80092cc <listfiles+0xa4>
 8009504:	2300      	movs	r3, #0
 8009506:	3408      	adds	r4, #8
 8009508:	f10d 0914 	add.w	r9, sp, #20
 800950c:	9302      	str	r3, [sp, #8]
 800950e:	e71d      	b.n	800934c <listfiles+0x124>
 8009510:	f04f 0ac8 	mov.w	sl, #200	; 0xc8
 8009514:	2301      	movs	r3, #1
 8009516:	3408      	adds	r4, #8
 8009518:	f10d 0914 	add.w	r9, sp, #20
 800951c:	46d0      	mov	r8, sl
 800951e:	9302      	str	r3, [sp, #8]
 8009520:	e714      	b.n	800934c <listfiles+0x124>
 8009522:	f04f 38ff 	mov.w	r8, #4294967295
 8009526:	e6af      	b.n	8009288 <listfiles+0x60>
 8009528:	4b0a      	ldr	r3, [pc, #40]	; (8009554 <listfiles+0x32c>)
 800952a:	a812      	add	r0, sp, #72	; 0x48
 800952c:	461f      	mov	r7, r3
 800952e:	f7fe fc53 	bl	8007dd8 <f_closedir>
 8009532:	e7e1      	b.n	80094f8 <listfiles+0x2d0>
 8009534:	4b07      	ldr	r3, [pc, #28]	; (8009554 <listfiles+0x32c>)
 8009536:	46c2      	mov	sl, r8
 8009538:	461f      	mov	r7, r3
 800953a:	e6c7      	b.n	80092cc <listfiles+0xa4>
 800953c:	2000032c 	.word	0x2000032c
 8009540:	20000010 	.word	0x20000010
 8009544:	20006d08 	.word	0x20006d08
 8009548:	0800d020 	.word	0x0800d020
 800954c:	20000328 	.word	0x20000328
 8009550:	0800cf94 	.word	0x0800cf94
 8009554:	20008a24 	.word	0x20008a24
 8009558:	0800d024 	.word	0x0800d024
 800955c:	0800d028 	.word	0x0800d028
 8009560:	200087ac 	.word	0x200087ac
 8009564:	20005264 	.word	0x20005264
 8009568:	20004c24 	.word	0x20004c24
 800956c:	20008b25 	.word	0x20008b25

08009570 <CmdFlash>:
 8009570:	e92d 47f0 	stmdb	sp!, {r4, r5, r6, r7, r8, r9, sl, lr}
 8009574:	4c36      	ldr	r4, [pc, #216]	; (8009650 <CmdFlash+0xe0>)
 8009576:	f04f 7680 	mov.w	r6, #16777216	; 0x1000000
 800957a:	4d36      	ldr	r5, [pc, #216]	; (8009654 <CmdFlash+0xe4>)
 800957c:	f44f 7a80 	mov.w	sl, #256	; 0x100
 8009580:	61a6      	str	r6, [r4, #24]
 8009582:	4681      	mov	r9, r0
 8009584:	f7ff fb7e 	bl	8008c84 <SetMCUBusOutput>
 8009588:	2000      	movs	r0, #0
 800958a:	f7ff fb05 	bl	8008b98 <SetMCUData>
 800958e:	f8c5 a018 	str.w	sl, [r5, #24]
 8009592:	f7ff faef 	bl	8008b74 <TickMCUCLK>
 8009596:	f245 5055 	movw	r0, #21845	; 0x5555
 800959a:	61ae      	str	r6, [r5, #24]
 800959c:	f04f 0880 	mov.w	r8, #128	; 0x80
 80095a0:	f7ff fafa 	bl	8008b98 <SetMCUData>
 80095a4:	f44f 0700 	mov.w	r7, #8388608	; 0x800000
 80095a8:	f7ff fae4 	bl	8008b74 <TickMCUCLK>
 80095ac:	2000      	movs	r0, #0
 80095ae:	f7ff faf3 	bl	8008b98 <SetMCUData>
 80095b2:	f7ff fadf 	bl	8008b74 <TickMCUCLK>
 80095b6:	20aa      	movs	r0, #170	; 0xaa
 80095b8:	f7ff faee 	bl	8008b98 <SetMCUData>
 80095bc:	2002      	movs	r0, #2
 80095be:	f8c4 8018 	str.w	r8, [r4, #24]
 80095c2:	f002 facb 	bl	800bb5c <delay_us>
 80095c6:	2002      	movs	r0, #2
 80095c8:	61a7      	str	r7, [r4, #24]
 80095ca:	f002 fac7 	bl	800bb5c <delay_us>
 80095ce:	2000      	movs	r0, #0
 80095d0:	f7ff fae2 	bl	8008b98 <SetMCUData>
 80095d4:	f8c5 a018 	str.w	sl, [r5, #24]
 80095d8:	f7ff facc 	bl	8008b74 <TickMCUCLK>
 80095dc:	f642 20aa 	movw	r0, #10922	; 0x2aaa
 80095e0:	61ae      	str	r6, [r5, #24]
 80095e2:	f7ff fad9 	bl	8008b98 <SetMCUData>
 80095e6:	f7ff fac5 	bl	8008b74 <TickMCUCLK>
 80095ea:	2000      	movs	r0, #0
 80095ec:	f7ff fad4 	bl	8008b98 <SetMCUData>
 80095f0:	f7ff fac0 	bl	8008b74 <TickMCUCLK>
 80095f4:	2055      	movs	r0, #85	; 0x55
 80095f6:	f7ff facf 	bl	8008b98 <SetMCUData>
 80095fa:	2002      	movs	r0, #2
 80095fc:	f8c4 8018 	str.w	r8, [r4, #24]
 8009600:	f002 faac 	bl	800bb5c <delay_us>
 8009604:	2002      	movs	r0, #2
 8009606:	61a7      	str	r7, [r4, #24]
 8009608:	f002 faa8 	bl	800bb5c <delay_us>
 800960c:	2000      	movs	r0, #0
 800960e:	f7ff fac3 	bl	8008b98 <SetMCUData>
 8009612:	f8c5 a018 	str.w	sl, [r5, #24]
 8009616:	f7ff faad 	bl	8008b74 <TickMCUCLK>
 800961a:	f245 5055 	movw	r0, #21845	; 0x5555
 800961e:	61ae      	str	r6, [r5, #24]
 8009620:	f7ff faba 	bl	8008b98 <SetMCUData>
 8009624:	f7ff faa6 	bl	8008b74 <TickMCUCLK>
 8009628:	2000      	movs	r0, #0
 800962a:	f7ff fab5 	bl	8008b98 <SetMCUData>
 800962e:	f7ff faa1 	bl	8008b74 <TickMCUCLK>
 8009632:	fa1f f089 	uxth.w	r0, r9
 8009636:	f7ff faaf 	bl	8008b98 <SetMCUData>
 800963a:	2002      	movs	r0, #2
 800963c:	f8c4 8018 	str.w	r8, [r4, #24]
 8009640:	f002 fa8c 	bl	800bb5c <delay_us>
 8009644:	61a7      	str	r7, [r4, #24]
 8009646:	2002      	movs	r0, #2
 8009648:	e8bd 47f0 	ldmia.w	sp!, {r4, r5, r6, r7, r8, r9, sl, lr}
 800964c:	f002 ba86 	b.w	800bb5c <delay_us>
 8009650:	40020800 	.word	0x40020800
 8009654:	40020000 	.word	0x40020000

08009658 <WriteFlash>:
 8009658:	b5f8      	push	{r3, r4, r5, r6, r7, lr}
 800965a:	4604      	mov	r4, r0
 800965c:	2000      	movs	r0, #0
 800965e:	460d      	mov	r5, r1
 8009660:	4f12      	ldr	r7, [pc, #72]	; (80096ac <WriteFlash+0x54>)
 8009662:	f7ff fa99 	bl	8008b98 <SetMCUData>
 8009666:	f44f 7380 	mov.w	r3, #256	; 0x100
 800966a:	4e11      	ldr	r6, [pc, #68]	; (80096b0 <WriteFlash+0x58>)
 800966c:	61bb      	str	r3, [r7, #24]
 800966e:	f7ff fa81 	bl	8008b74 <TickMCUCLK>
 8009672:	f04f 7380 	mov.w	r3, #16777216	; 0x1000000
 8009676:	b2a0      	uxth	r0, r4
 8009678:	61bb      	str	r3, [r7, #24]
 800967a:	f7ff fa8d 	bl	8008b98 <SetMCUData>
 800967e:	f7ff fa79 	bl	8008b74 <TickMCUCLK>
 8009682:	0c20      	lsrs	r0, r4, #16
 8009684:	f7ff fa88 	bl	8008b98 <SetMCUData>
 8009688:	f7ff fa74 	bl	8008b74 <TickMCUCLK>
 800968c:	4628      	mov	r0, r5
 800968e:	f7ff fa83 	bl	8008b98 <SetMCUData>
 8009692:	2380      	movs	r3, #128	; 0x80
 8009694:	2002      	movs	r0, #2
 8009696:	61b3      	str	r3, [r6, #24]
 8009698:	f002 fa60 	bl	800bb5c <delay_us>
 800969c:	f44f 0300 	mov.w	r3, #8388608	; 0x800000
 80096a0:	2002      	movs	r0, #2
 80096a2:	61b3      	str	r3, [r6, #24]
 80096a4:	e8bd 40f8 	ldmia.w	sp!, {r3, r4, r5, r6, r7, lr}
 80096a8:	f002 ba58 	b.w	800bb5c <delay_us>
 80096ac:	40020000 	.word	0x40020000
 80096b0:	40020800 	.word	0x40020800

080096b4 <ReadMem>:
 80096b4:	b570      	push	{r4, r5, r6, lr}
 80096b6:	460d      	mov	r5, r1
 80096b8:	4604      	mov	r4, r0
 80096ba:	f7ff fae3 	bl	8008c84 <SetMCUBusOutput>
 80096be:	2000      	movs	r0, #0
 80096c0:	f7ff fa6a 	bl	8008b98 <SetMCUData>
 80096c4:	4e15      	ldr	r6, [pc, #84]	; (800971c <ReadMem+0x68>)
 80096c6:	f44f 7380 	mov.w	r3, #256	; 0x100
 80096ca:	61b3      	str	r3, [r6, #24]
 80096cc:	f7ff fa52 	bl	8008b74 <TickMCUCLK>
 80096d0:	f04f 7380 	mov.w	r3, #16777216	; 0x1000000
 80096d4:	b2a0      	uxth	r0, r4
 80096d6:	61b3      	str	r3, [r6, #24]
 80096d8:	f7ff fa5e 	bl	8008b98 <SetMCUData>
 80096dc:	f7ff fa4a 	bl	8008b74 <TickMCUCLK>
 80096e0:	0c20      	lsrs	r0, r4, #16
 80096e2:	f7ff fa59 	bl	8008b98 <SetMCUData>
 80096e6:	f7ff fa45 	bl	8008b74 <TickMCUCLK>
 80096ea:	f7ff fac5 	bl	8008c78 <SetMCUBusInput>
 80096ee:	4b0c      	ldr	r3, [pc, #48]	; (8009720 <ReadMem+0x6c>)
 80096f0:	b985      	cbnz	r5, 8009714 <ReadMem+0x60>
 80096f2:	f04f 6200 	mov.w	r2, #134217728	; 0x8000000
 80096f6:	619a      	str	r2, [r3, #24]
 80096f8:	4c09      	ldr	r4, [pc, #36]	; (8009720 <ReadMem+0x6c>)
 80096fa:	f44f 7380 	mov.w	r3, #256	; 0x100
 80096fe:	2002      	movs	r0, #2
 8009700:	61a3      	str	r3, [r4, #24]
 8009702:	f002 fa2b 	bl	800bb5c <delay_us>
 8009706:	4a07      	ldr	r2, [pc, #28]	; (8009724 <ReadMem+0x70>)
 8009708:	f04f 7380 	mov.w	r3, #16777216	; 0x1000000
 800970c:	6910      	ldr	r0, [r2, #16]
 800970e:	61a3      	str	r3, [r4, #24]
 8009710:	b280      	uxth	r0, r0
 8009712:	bd70      	pop	{r4, r5, r6, pc}
 8009714:	f44f 6200 	mov.w	r2, #2048	; 0x800
 8009718:	619a      	str	r2, [r3, #24]
 800971a:	e7ed      	b.n	80096f8 <ReadMem+0x44>
 800971c:	40020000 	.word	0x40020000
 8009720:	40020800 	.word	0x40020800
 8009724:	40020400 	.word	0x40020400

08009728 <EraseFlash>:
 8009728:	e92d 43f8 	stmdb	sp!, {r3, r4, r5, r6, r7, r8, r9, lr}
 800972c:	2080      	movs	r0, #128	; 0x80
 800972e:	f04f 0814 	mov.w	r8, #20
 8009732:	f7ff ff1d 	bl	8009570 <CmdFlash>
 8009736:	2010      	movs	r0, #16
 8009738:	4c1b      	ldr	r4, [pc, #108]	; (80097a8 <EraseFlash+0x80>)
 800973a:	f7ff ff19 	bl	8009570 <CmdFlash>
 800973e:	f8df 9070 	ldr.w	r9, [pc, #112]	; 80097b0 <EraseFlash+0x88>
 8009742:	e004      	b.n	800974e <EraseFlash+0x26>
 8009744:	f1b8 0801 	subs.w	r8, r8, #1
 8009748:	d02b      	beq.n	80097a2 <EraseFlash+0x7a>
 800974a:	f7fb f847 	bl	80047dc <LL_mDelay>
 800974e:	4f17      	ldr	r7, [pc, #92]	; (80097ac <EraseFlash+0x84>)
 8009750:	f44f 7680 	mov.w	r6, #256	; 0x100
 8009754:	f7ff fa96 	bl	8008c84 <SetMCUBusOutput>
 8009758:	f04f 7580 	mov.w	r5, #16777216	; 0x1000000
 800975c:	2000      	movs	r0, #0
 800975e:	f7ff fa1b 	bl	8008b98 <SetMCUData>
 8009762:	61be      	str	r6, [r7, #24]
 8009764:	f7ff fa06 	bl	8008b74 <TickMCUCLK>
 8009768:	2000      	movs	r0, #0
 800976a:	61bd      	str	r5, [r7, #24]
 800976c:	f7ff fa14 	bl	8008b98 <SetMCUData>
 8009770:	f7ff fa00 	bl	8008b74 <TickMCUCLK>
 8009774:	2000      	movs	r0, #0
 8009776:	f7ff fa0f 	bl	8008b98 <SetMCUData>
 800977a:	f7ff f9fb 	bl	8008b74 <TickMCUCLK>
 800977e:	f7ff fa7b 	bl	8008c78 <SetMCUBusInput>
 8009782:	f04f 6300 	mov.w	r3, #134217728	; 0x8000000
 8009786:	2002      	movs	r0, #2
 8009788:	61a3      	str	r3, [r4, #24]
 800978a:	61a6      	str	r6, [r4, #24]
 800978c:	f002 f9e6 	bl	800bb5c <delay_us>
 8009790:	f8d9 3010 	ldr.w	r3, [r9, #16]
 8009794:	200a      	movs	r0, #10
 8009796:	61a5      	str	r5, [r4, #24]
 8009798:	061b      	lsls	r3, r3, #24
 800979a:	d5d3      	bpl.n	8009744 <EraseFlash+0x1c>
 800979c:	2000      	movs	r0, #0
 800979e:	e8bd 83f8 	ldmia.w	sp!, {r3, r4, r5, r6, r7, r8, r9, pc}
 80097a2:	2001      	movs	r0, #1
 80097a4:	e8bd 83f8 	ldmia.w	sp!, {r3, r4, r5, r6, r7, r8, r9, pc}
 80097a8:	40020800 	.word	0x40020800
 80097ac:	40020000 	.word	0x40020000
 80097b0:	40020400 	.word	0x40020400

080097b4 <SystemClock_Config>:
 80097b4:	4a39      	ldr	r2, [pc, #228]	; (800989c <SystemClock_Config+0xe8>)
 80097b6:	b538      	push	{r3, r4, r5, lr}
 80097b8:	6813      	ldr	r3, [r2, #0]
 80097ba:	f023 030f 	bic.w	r3, r3, #15
 80097be:	f043 0303 	orr.w	r3, r3, #3
 80097c2:	6013      	str	r3, [r2, #0]
 80097c4:	6813      	ldr	r3, [r2, #0]
 80097c6:	f003 030f 	and.w	r3, r3, #15
 80097ca:	2b03      	cmp	r3, #3
 80097cc:	d001      	beq.n	80097d2 <SystemClock_Config+0x1e>
 80097ce:	f001 f867 	bl	800a8a0 <Error_Handler>
 80097d2:	4933      	ldr	r1, [pc, #204]	; (80098a0 <SystemClock_Config+0xec>)
 80097d4:	4833      	ldr	r0, [pc, #204]	; (80098a4 <SystemClock_Config+0xf0>)
 80097d6:	680b      	ldr	r3, [r1, #0]
 80097d8:	4602      	mov	r2, r0
 80097da:	f423 4340 	bic.w	r3, r3, #49152	; 0xc000
 80097de:	f443 4380 	orr.w	r3, r3, #16384	; 0x4000
 80097e2:	600b      	str	r3, [r1, #0]
 80097e4:	680b      	ldr	r3, [r1, #0]
 80097e6:	f423 3380 	bic.w	r3, r3, #65536	; 0x10000
 80097ea:	600b      	str	r3, [r1, #0]
 80097ec:	6803      	ldr	r3, [r0, #0]
 80097ee:	f443 3380 	orr.w	r3, r3, #65536	; 0x10000
 80097f2:	6003      	str	r3, [r0, #0]
 80097f4:	6813      	ldr	r3, [r2, #0]
 80097f6:	0398      	lsls	r0, r3, #14
 80097f8:	d5fc      	bpl.n	80097f4 <SystemClock_Config+0x40>
 80097fa:	6811      	ldr	r1, [r2, #0]
 80097fc:	4b29      	ldr	r3, [pc, #164]	; (80098a4 <SystemClock_Config+0xf0>)
 80097fe:	f021 01f8 	bic.w	r1, r1, #248	; 0xf8
 8009802:	f041 0180 	orr.w	r1, r1, #128	; 0x80
 8009806:	6011      	str	r1, [r2, #0]
 8009808:	6811      	ldr	r1, [r2, #0]
 800980a:	f041 0101 	orr.w	r1, r1, #1
 800980e:	6011      	str	r1, [r2, #0]
 8009810:	681a      	ldr	r2, [r3, #0]
 8009812:	0791      	lsls	r1, r2, #30
 8009814:	d5fc      	bpl.n	8009810 <SystemClock_Config+0x5c>
 8009816:	685a      	ldr	r2, [r3, #4]
 8009818:	4c23      	ldr	r4, [pc, #140]	; (80098a8 <SystemClock_Config+0xf4>)
 800981a:	4824      	ldr	r0, [pc, #144]	; (80098ac <SystemClock_Config+0xf8>)
 800981c:	4014      	ands	r4, r2
 800981e:	4a24      	ldr	r2, [pc, #144]	; (80098b0 <SystemClock_Config+0xfc>)
 8009820:	4924      	ldr	r1, [pc, #144]	; (80098b4 <SystemClock_Config+0x100>)
 8009822:	4320      	orrs	r0, r4
 8009824:	4d24      	ldr	r5, [pc, #144]	; (80098b8 <SystemClock_Config+0x104>)
 8009826:	4c25      	ldr	r4, [pc, #148]	; (80098bc <SystemClock_Config+0x108>)
 8009828:	6058      	str	r0, [r3, #4]
 800982a:	6858      	ldr	r0, [r3, #4]
 800982c:	4002      	ands	r2, r0
 800982e:	4824      	ldr	r0, [pc, #144]	; (80098c0 <SystemClock_Config+0x10c>)
 8009830:	4311      	orrs	r1, r2
 8009832:	4a24      	ldr	r2, [pc, #144]	; (80098c4 <SystemClock_Config+0x110>)
 8009834:	6059      	str	r1, [r3, #4]
 8009836:	6859      	ldr	r1, [r3, #4]
 8009838:	400d      	ands	r5, r1
 800983a:	491a      	ldr	r1, [pc, #104]	; (80098a4 <SystemClock_Config+0xf0>)
 800983c:	432c      	orrs	r4, r5
 800983e:	605c      	str	r4, [r3, #4]
 8009840:	f8d3 4084 	ldr.w	r4, [r3, #132]	; 0x84
 8009844:	4020      	ands	r0, r4
 8009846:	4302      	orrs	r2, r0
 8009848:	f8c3 2084 	str.w	r2, [r3, #132]	; 0x84
 800984c:	681a      	ldr	r2, [r3, #0]
 800984e:	f042 7280 	orr.w	r2, r2, #16777216	; 0x1000000
 8009852:	601a      	str	r2, [r3, #0]
 8009854:	680b      	ldr	r3, [r1, #0]
 8009856:	019a      	lsls	r2, r3, #6
 8009858:	d5fc      	bpl.n	8009854 <SystemClock_Config+0xa0>
 800985a:	680b      	ldr	r3, [r1, #0]
 800985c:	4a11      	ldr	r2, [pc, #68]	; (80098a4 <SystemClock_Config+0xf0>)
 800985e:	f043 6380 	orr.w	r3, r3, #67108864	; 0x4000000
 8009862:	600b      	str	r3, [r1, #0]
 8009864:	6813      	ldr	r3, [r2, #0]
 8009866:	011b      	lsls	r3, r3, #4
 8009868:	d5fc      	bpl.n	8009864 <SystemClock_Config+0xb0>
 800986a:	6893      	ldr	r3, [r2, #8]
 800986c:	f023 03f0 	bic.w	r3, r3, #240	; 0xf0
 8009870:	6093      	str	r3, [r2, #8]
 8009872:	6893      	ldr	r3, [r2, #8]
 8009874:	f423 53e0 	bic.w	r3, r3, #7168	; 0x1c00
 8009878:	6093      	str	r3, [r2, #8]
 800987a:	6893      	ldr	r3, [r2, #8]
 800987c:	f423 4360 	bic.w	r3, r3, #57344	; 0xe000
 8009880:	6093      	str	r3, [r2, #8]
 8009882:	6893      	ldr	r3, [r2, #8]
 8009884:	f023 0303 	bic.w	r3, r3, #3
 8009888:	f043 0302 	orr.w	r3, r3, #2
 800988c:	6093      	str	r3, [r2, #8]
 800988e:	f001 fd0d 	bl	800b2ac <SystemCoreClockUpdate>
 8009892:	2000      	movs	r0, #0
 8009894:	e8bd 4038 	ldmia.w	sp!, {r3, r4, r5, lr}
 8009898:	f7fa bd1c 	b.w	80042d4 <HAL_InitTick>
 800989c:	40023c00 	.word	0x40023c00
 80098a0:	40007000 	.word	0x40007000
 80098a4:	40023800 	.word	0x40023800
 80098a8:	ffbc8000 	.word	0xffbc8000
 80098ac:	00401804 	.word	0x00401804
 80098b0:	f0bf8000 	.word	0xf0bf8000
 80098b4:	04401804 	.word	0x04401804
 80098b8:	ffbfffc0 	.word	0xffbfffc0
 80098bc:	00400004 	.word	0x00400004
 80098c0:	8fff803f 	.word	0x8fff803f
 80098c4:	20001800 	.word	0x20001800

080098c8 <I2SOutputEnable>:
 80098c8:	b5f0      	push	{r4, r5, r6, r7, lr}
 80098ca:	b087      	sub	sp, #28
 80098cc:	2200      	movs	r2, #0
 80098ce:	2305      	movs	r3, #5
 80098d0:	26b0      	movs	r6, #176	; 0xb0
 80098d2:	2702      	movs	r7, #2
 80098d4:	2403      	movs	r4, #3
 80098d6:	2500      	movs	r5, #0
 80098d8:	4669      	mov	r1, sp
 80098da:	4805      	ldr	r0, [pc, #20]	; (80098f0 <I2SOutputEnable+0x28>)
 80098dc:	e9cd 6700 	strd	r6, r7, [sp]
 80098e0:	e9cd 4502 	strd	r4, r5, [sp, #8]
 80098e4:	e9cd 2304 	strd	r2, r3, [sp, #16]
 80098e8:	f7fa fec4 	bl	8004674 <LL_GPIO_Init>
 80098ec:	b007      	add	sp, #28
 80098ee:	bdf0      	pop	{r4, r5, r6, r7, pc}
 80098f0:	40020000 	.word	0x40020000

080098f4 <I2SOutputDisable>:
 80098f4:	b530      	push	{r4, r5, lr}
 80098f6:	b087      	sub	sp, #28
 80098f8:	2300      	movs	r3, #0
 80098fa:	24b0      	movs	r4, #176	; 0xb0
 80098fc:	2500      	movs	r5, #0
 80098fe:	4669      	mov	r1, sp
 8009900:	4805      	ldr	r0, [pc, #20]	; (8009918 <I2SOutputDisable+0x24>)
 8009902:	e9cd 3302 	strd	r3, r3, [sp, #8]
 8009906:	e9cd 3304 	strd	r3, r3, [sp, #16]
 800990a:	e9cd 4500 	strd	r4, r5, [sp]
 800990e:	f7fa feb1 	bl	8004674 <LL_GPIO_Init>
 8009912:	b007      	add	sp, #28
 8009914:	bd30      	pop	{r4, r5, pc}
 8009916:	bf00      	nop
 8009918:	40020000 	.word	0x40020000

0800991c <MX_GPIO_Init>:
 800991c:	e92d 4ff0 	stmdb	sp!, {r4, r5, r6, r7, r8, r9, sl, fp, lr}
 8009920:	4a5d      	ldr	r2, [pc, #372]	; (8009a98 <MX_GPIO_Init+0x17c>)
 8009922:	b08f      	sub	sp, #60	; 0x3c
 8009924:	2400      	movs	r4, #0
 8009926:	f8df a180 	ldr.w	sl, [pc, #384]	; 8009aa8 <MX_GPIO_Init+0x18c>
 800992a:	2301      	movs	r3, #1
 800992c:	f04f 603c 	mov.w	r0, #197132288	; 0xbc00000
 8009930:	9403      	str	r4, [sp, #12]
 8009932:	f44f 6780 	mov.w	r7, #1024	; 0x400
 8009936:	9402      	str	r4, [sp, #8]
 8009938:	f24e 0608 	movw	r6, #57352	; 0xe008
 800993c:	9406      	str	r4, [sp, #24]
 800993e:	f04f 08b0 	mov.w	r8, #176	; 0xb0
 8009942:	9407      	str	r4, [sp, #28]
 8009944:	f04f 0900 	mov.w	r9, #0
 8009948:	a908      	add	r1, sp, #32
 800994a:	f44f 7b80 	mov.w	fp, #256	; 0x100
 800994e:	e9cd 4404 	strd	r4, r4, [sp, #16]
 8009952:	6b15      	ldr	r5, [r2, #48]	; 0x30
 8009954:	f045 058f 	orr.w	r5, r5, #143	; 0x8f
 8009958:	6315      	str	r5, [r2, #48]	; 0x30
 800995a:	6b15      	ldr	r5, [r2, #48]	; 0x30
 800995c:	f005 058f 	and.w	r5, r5, #143	; 0x8f
 8009960:	9501      	str	r5, [sp, #4]
 8009962:	9d01      	ldr	r5, [sp, #4]
 8009964:	6b15      	ldr	r5, [r2, #48]	; 0x30
 8009966:	f445 05c0 	orr.w	r5, r5, #6291456	; 0x600000
 800996a:	6315      	str	r5, [r2, #48]	; 0x30
 800996c:	6b12      	ldr	r2, [r2, #48]	; 0x30
 800996e:	4d4b      	ldr	r5, [pc, #300]	; (8009a9c <MX_GPIO_Init+0x180>)
 8009970:	f402 02c0 	and.w	r2, r2, #6291456	; 0x600000
 8009974:	9200      	str	r2, [sp, #0]
 8009976:	9a00      	ldr	r2, [sp, #0]
 8009978:	4a49      	ldr	r2, [pc, #292]	; (8009aa0 <MX_GPIO_Init+0x184>)
 800997a:	61a8      	str	r0, [r5, #24]
 800997c:	4650      	mov	r0, sl
 800997e:	f8ca 2018 	str.w	r2, [sl, #24]
 8009982:	f8ca 7018 	str.w	r7, [sl, #24]
 8009986:	2700      	movs	r7, #0
 8009988:	61ae      	str	r6, [r5, #24]
 800998a:	2602      	movs	r6, #2
 800998c:	61ab      	str	r3, [r5, #24]
 800998e:	940a      	str	r4, [sp, #40]	; 0x28
 8009990:	940d      	str	r4, [sp, #52]	; 0x34
 8009992:	e9cd 8908 	strd	r8, r9, [sp, #32]
 8009996:	f44f 7800 	mov.w	r8, #512	; 0x200
 800999a:	f04f 0901 	mov.w	r9, #1
 800999e:	e9cd 440b 	strd	r4, r4, [sp, #44]	; 0x2c
 80099a2:	f7fa fe67 	bl	8004674 <LL_GPIO_Init>
 80099a6:	a902      	add	r1, sp, #8
 80099a8:	4628      	mov	r0, r5
 80099aa:	9406      	str	r4, [sp, #24]
 80099ac:	e9cd 8902 	strd	r8, r9, [sp, #8]
 80099b0:	f44f 6800 	mov.w	r8, #2048	; 0x800
 80099b4:	f04f 0900 	mov.w	r9, #0
 80099b8:	e9cd 6704 	strd	r6, r7, [sp, #16]
 80099bc:	f7fa fe5a 	bl	8004674 <LL_GPIO_Init>
 80099c0:	a902      	add	r1, sp, #8
 80099c2:	4628      	mov	r0, r5
 80099c4:	e9cd 8902 	strd	r8, r9, [sp, #8]
 80099c8:	f7fa fe54 	bl	8004674 <LL_GPIO_Init>
 80099cc:	f64f 72ff 	movw	r2, #65535	; 0xffff
 80099d0:	a902      	add	r1, sp, #8
 80099d2:	4834      	ldr	r0, [pc, #208]	; (8009aa4 <MX_GPIO_Init+0x188>)
 80099d4:	9202      	str	r2, [sp, #8]
 80099d6:	f04f 0808 	mov.w	r8, #8
 80099da:	f7fa fe4b 	bl	8004674 <LL_GPIO_Init>
 80099de:	f04f 0901 	mov.w	r9, #1
 80099e2:	2202      	movs	r2, #2
 80099e4:	2301      	movs	r3, #1
 80099e6:	a902      	add	r1, sp, #8
 80099e8:	4628      	mov	r0, r5
 80099ea:	9406      	str	r4, [sp, #24]
 80099ec:	e9cd 2304 	strd	r2, r3, [sp, #16]
 80099f0:	e9cd 8902 	strd	r8, r9, [sp, #8]
 80099f4:	f7fa fe3e 	bl	8004674 <LL_GPIO_Init>
 80099f8:	f04f 0801 	mov.w	r8, #1
 80099fc:	f04f 0900 	mov.w	r9, #0
 8009a00:	2301      	movs	r3, #1
 8009a02:	a902      	add	r1, sp, #8
 8009a04:	4650      	mov	r0, sl
 8009a06:	9306      	str	r3, [sp, #24]
 8009a08:	e9cd 8902 	strd	r8, r9, [sp, #8]
 8009a0c:	f7fa fe32 	bl	8004674 <LL_GPIO_Init>
 8009a10:	2201      	movs	r2, #1
 8009a12:	2301      	movs	r3, #1
 8009a14:	a902      	add	r1, sp, #8
 8009a16:	4628      	mov	r0, r5
 8009a18:	e9cd 2302 	strd	r2, r3, [sp, #8]
 8009a1c:	e9cd 8904 	strd	r8, r9, [sp, #16]
 8009a20:	f7fa fe28 	bl	8004674 <LL_GPIO_Init>
 8009a24:	a902      	add	r1, sp, #8
 8009a26:	4650      	mov	r0, sl
 8009a28:	9406      	str	r4, [sp, #24]
 8009a2a:	f8cd b008 	str.w	fp, [sp, #8]
 8009a2e:	f7fa fe21 	bl	8004674 <LL_GPIO_Init>
 8009a32:	2340      	movs	r3, #64	; 0x40
 8009a34:	a902      	add	r1, sp, #8
 8009a36:	4628      	mov	r0, r5
 8009a38:	9302      	str	r3, [sp, #8]
 8009a3a:	f7fa fe1b 	bl	8004674 <LL_GPIO_Init>
 8009a3e:	2380      	movs	r3, #128	; 0x80
 8009a40:	a902      	add	r1, sp, #8
 8009a42:	4628      	mov	r0, r5
 8009a44:	9302      	str	r3, [sp, #8]
 8009a46:	f7fa fe15 	bl	8004674 <LL_GPIO_Init>
 8009a4a:	a902      	add	r1, sp, #8
 8009a4c:	4628      	mov	r0, r5
 8009a4e:	f8cd b008 	str.w	fp, [sp, #8]
 8009a52:	f7fa fe0f 	bl	8004674 <LL_GPIO_Init>
 8009a56:	f44f 4360 	mov.w	r3, #57344	; 0xe000
 8009a5a:	a902      	add	r1, sp, #8
 8009a5c:	4628      	mov	r0, r5
 8009a5e:	9404      	str	r4, [sp, #16]
 8009a60:	9302      	str	r3, [sp, #8]
 8009a62:	f7fa fe07 	bl	8004674 <LL_GPIO_Init>
 8009a66:	f44f 4224 	mov.w	r2, #41984	; 0xa400
 8009a6a:	2301      	movs	r3, #1
 8009a6c:	a902      	add	r1, sp, #8
 8009a6e:	4650      	mov	r0, sl
 8009a70:	9406      	str	r4, [sp, #24]
 8009a72:	e9cd 2302 	strd	r2, r3, [sp, #8]
 8009a76:	e9cd 6704 	strd	r6, r7, [sp, #16]
 8009a7a:	f7fa fdfb 	bl	8004674 <LL_GPIO_Init>
 8009a7e:	f44f 4280 	mov.w	r2, #16384	; 0x4000
 8009a82:	2300      	movs	r3, #0
 8009a84:	a902      	add	r1, sp, #8
 8009a86:	4650      	mov	r0, sl
 8009a88:	e9cd 2302 	strd	r2, r3, [sp, #8]
 8009a8c:	f7fa fdf2 	bl	8004674 <LL_GPIO_Init>
 8009a90:	b00f      	add	sp, #60	; 0x3c
 8009a92:	e8bd 8ff0 	ldmia.w	sp!, {r4, r5, r6, r7, r8, r9, sl, fp, pc}
 8009a96:	bf00      	nop
 8009a98:	40023800 	.word	0x40023800
 8009a9c:	40020800 	.word	0x40020800
 8009aa0:	a1800000 	.word	0xa1800000
 8009aa4:	40020400 	.word	0x40020400
 8009aa8:	40020000 	.word	0x40020000

08009aac <MX_I2S1_Init>:
 8009aac:	480e      	ldr	r0, [pc, #56]	; (8009ae8 <MX_I2S1_Init+0x3c>)
 8009aae:	2111      	movs	r1, #17
 8009ab0:	4b0e      	ldr	r3, [pc, #56]	; (8009aec <MX_I2S1_Init+0x40>)
 8009ab2:	f640 2221 	movw	r2, #2593	; 0xa21
 8009ab6:	b470      	push	{r4, r5, r6}
 8009ab8:	6c44      	ldr	r4, [r0, #68]	; 0x44
 8009aba:	b083      	sub	sp, #12
 8009abc:	4d0c      	ldr	r5, [pc, #48]	; (8009af0 <MX_I2S1_Init+0x44>)
 8009abe:	2602      	movs	r6, #2
 8009ac0:	f444 5480 	orr.w	r4, r4, #4096	; 0x1000
 8009ac4:	6444      	str	r4, [r0, #68]	; 0x44
 8009ac6:	6c40      	ldr	r0, [r0, #68]	; 0x44
 8009ac8:	f400 5080 	and.w	r0, r0, #4096	; 0x1000
 8009acc:	9001      	str	r0, [sp, #4]
 8009ace:	9801      	ldr	r0, [sp, #4]
 8009ad0:	69d8      	ldr	r0, [r3, #28]
 8009ad2:	4028      	ands	r0, r5
 8009ad4:	61d8      	str	r0, [r3, #28]
 8009ad6:	621e      	str	r6, [r3, #32]
 8009ad8:	6219      	str	r1, [r3, #32]
 8009ada:	69d9      	ldr	r1, [r3, #28]
 8009adc:	4029      	ands	r1, r5
 8009ade:	430a      	orrs	r2, r1
 8009ae0:	61da      	str	r2, [r3, #28]
 8009ae2:	b003      	add	sp, #12
 8009ae4:	bc70      	pop	{r4, r5, r6}
 8009ae6:	4770      	bx	lr
 8009ae8:	40023800 	.word	0x40023800
 8009aec:	40013000 	.word	0x40013000
 8009af0:	fffff040 	.word	0xfffff040

08009af4 <MX_SPI2_Init>:
 8009af4:	4b24      	ldr	r3, [pc, #144]	; (8009b88 <MX_SPI2_Init+0x94>)
 8009af6:	6c1a      	ldr	r2, [r3, #64]	; 0x40
 8009af8:	f442 4280 	orr.w	r2, r2, #16384	; 0x4000
 8009afc:	e92d 4370 	stmdb	sp!, {r4, r5, r6, r8, r9, lr}
 8009b00:	641a      	str	r2, [r3, #64]	; 0x40
 8009b02:	b088      	sub	sp, #32
 8009b04:	6c1b      	ldr	r3, [r3, #64]	; 0x40
 8009b06:	2201      	movs	r2, #1
 8009b08:	4e20      	ldr	r6, [pc, #128]	; (8009b8c <MX_SPI2_Init+0x98>)
 8009b0a:	2402      	movs	r4, #2
 8009b0c:	f403 4380 	and.w	r3, r3, #16384	; 0x4000
 8009b10:	2502      	movs	r5, #2
 8009b12:	f04f 0801 	mov.w	r8, #1
 8009b16:	f04f 0900 	mov.w	r9, #0
 8009b1a:	9301      	str	r3, [sp, #4]
 8009b1c:	a902      	add	r1, sp, #8
 8009b1e:	9b01      	ldr	r3, [sp, #4]
 8009b20:	2305      	movs	r3, #5
 8009b22:	4630      	mov	r0, r6
 8009b24:	e9cd 2306 	strd	r2, r3, [sp, #24]
 8009b28:	e9cd 4502 	strd	r4, r5, [sp, #8]
 8009b2c:	e9cd 8904 	strd	r8, r9, [sp, #16]
 8009b30:	f7fa fda0 	bl	8004674 <LL_GPIO_Init>
 8009b34:	f44f 7300 	mov.w	r3, #512	; 0x200
 8009b38:	a902      	add	r1, sp, #8
 8009b3a:	4815      	ldr	r0, [pc, #84]	; (8009b90 <MX_SPI2_Init+0x9c>)
 8009b3c:	9302      	str	r3, [sp, #8]
 8009b3e:	f7fa fd99 	bl	8004674 <LL_GPIO_Init>
 8009b42:	2304      	movs	r3, #4
 8009b44:	a902      	add	r1, sp, #8
 8009b46:	4630      	mov	r0, r6
 8009b48:	9302      	str	r3, [sp, #8]
 8009b4a:	f7fa fd93 	bl	8004674 <LL_GPIO_Init>
 8009b4e:	4b11      	ldr	r3, [pc, #68]	; (8009b94 <MX_SPI2_Init+0xa0>)
 8009b50:	4911      	ldr	r1, [pc, #68]	; (8009b98 <MX_SPI2_Init+0xa4>)
 8009b52:	6818      	ldr	r0, [r3, #0]
 8009b54:	4a11      	ldr	r2, [pc, #68]	; (8009b9c <MX_SPI2_Init+0xa8>)
 8009b56:	4001      	ands	r1, r0
 8009b58:	f441 714f 	orr.w	r1, r1, #828	; 0x33c
 8009b5c:	6019      	str	r1, [r3, #0]
 8009b5e:	6859      	ldr	r1, [r3, #4]
 8009b60:	400a      	ands	r2, r1
 8009b62:	f442 62e0 	orr.w	r2, r2, #1792	; 0x700
 8009b66:	605a      	str	r2, [r3, #4]
 8009b68:	69da      	ldr	r2, [r3, #28]
 8009b6a:	f422 6200 	bic.w	r2, r2, #2048	; 0x800
 8009b6e:	61da      	str	r2, [r3, #28]
 8009b70:	685a      	ldr	r2, [r3, #4]
 8009b72:	f442 5280 	orr.w	r2, r2, #4096	; 0x1000
 8009b76:	605a      	str	r2, [r3, #4]
 8009b78:	681a      	ldr	r2, [r3, #0]
 8009b7a:	f042 0240 	orr.w	r2, r2, #64	; 0x40
 8009b7e:	601a      	str	r2, [r3, #0]
 8009b80:	b008      	add	sp, #32
 8009b82:	e8bd 8370 	ldmia.w	sp!, {r4, r5, r6, r8, r9, pc}
 8009b86:	bf00      	nop
 8009b88:	40023800 	.word	0x40023800
 8009b8c:	40020800 	.word	0x40020800
 8009b90:	40020000 	.word	0x40020000
 8009b94:	40003800 	.word	0x40003800
 8009b98:	ffff0040 	.word	0xffff0040
 8009b9c:	fffff0fb 	.word	0xfffff0fb

08009ba0 <JTAG_SIR.constprop.0>:
 8009ba0:	e92d 41f0 	stmdb	sp!, {r4, r5, r6, r7, r8, lr}
 8009ba4:	f44f 6380 	mov.w	r3, #1024	; 0x400
 8009ba8:	4e45      	ldr	r6, [pc, #276]	; (8009cc0 <JTAG_SIR.constprop.0+0x120>)
 8009baa:	f44f 4400 	mov.w	r4, #32768	; 0x8000
 8009bae:	f04f 4700 	mov.w	r7, #2147483648	; 0x80000000
 8009bb2:	61b3      	str	r3, [r6, #24]
 8009bb4:	4605      	mov	r5, r0
 8009bb6:	2001      	movs	r0, #1
 8009bb8:	46a0      	mov	r8, r4
 8009bba:	f001 ffcf 	bl	800bb5c <delay_us>
 8009bbe:	61b4      	str	r4, [r6, #24]
 8009bc0:	2001      	movs	r0, #1
 8009bc2:	f001 ffcb 	bl	800bb5c <delay_us>
 8009bc6:	2001      	movs	r0, #1
 8009bc8:	61b7      	str	r7, [r6, #24]
 8009bca:	f001 ffc7 	bl	800bb5c <delay_us>
 8009bce:	2001      	movs	r0, #1
 8009bd0:	f001 ffc4 	bl	800bb5c <delay_us>
 8009bd4:	61b4      	str	r4, [r6, #24]
 8009bd6:	2001      	movs	r0, #1
 8009bd8:	f001 ffc0 	bl	800bb5c <delay_us>
 8009bdc:	2001      	movs	r0, #1
 8009bde:	61b7      	str	r7, [r6, #24]
 8009be0:	f001 ffbc 	bl	800bb5c <delay_us>
 8009be4:	f04f 6380 	mov.w	r3, #67108864	; 0x4000000
 8009be8:	2001      	movs	r0, #1
 8009bea:	61b3      	str	r3, [r6, #24]
 8009bec:	f001 ffb6 	bl	800bb5c <delay_us>
 8009bf0:	61b4      	str	r4, [r6, #24]
 8009bf2:	2001      	movs	r0, #1
 8009bf4:	f001 ffb2 	bl	800bb5c <delay_us>
 8009bf8:	2001      	movs	r0, #1
 8009bfa:	61b7      	str	r7, [r6, #24]
 8009bfc:	f001 ffae 	bl	800bb5c <delay_us>
 8009c00:	2001      	movs	r0, #1
 8009c02:	f001 ffab 	bl	800bb5c <delay_us>
 8009c06:	61b4      	str	r4, [r6, #24]
 8009c08:	2001      	movs	r0, #1
 8009c0a:	4634      	mov	r4, r6
 8009c0c:	f001 ffa6 	bl	800bb5c <delay_us>
 8009c10:	61b7      	str	r7, [r6, #24]
 8009c12:	2001      	movs	r0, #1
 8009c14:	2600      	movs	r6, #0
 8009c16:	f001 ffa1 	bl	800bb5c <delay_us>
 8009c1a:	f015 0f01 	tst.w	r5, #1
 8009c1e:	f04f 0001 	mov.w	r0, #1
 8009c22:	f04f 4700 	mov.w	r7, #2147483648	; 0x80000000
 8009c26:	bf14      	ite	ne
 8009c28:	f44f 5300 	movne.w	r3, #8192	; 0x2000
 8009c2c:	f04f 5300 	moveq.w	r3, #536870912	; 0x20000000
 8009c30:	4406      	add	r6, r0
 8009c32:	40c5      	lsrs	r5, r0
 8009c34:	61a3      	str	r3, [r4, #24]
 8009c36:	f001 ff91 	bl	800bb5c <delay_us>
 8009c3a:	2001      	movs	r0, #1
 8009c3c:	f8c4 8018 	str.w	r8, [r4, #24]
 8009c40:	f001 ff8c 	bl	800bb5c <delay_us>
 8009c44:	2001      	movs	r0, #1
 8009c46:	61a7      	str	r7, [r4, #24]
 8009c48:	f001 ff88 	bl	800bb5c <delay_us>
 8009c4c:	2e09      	cmp	r6, #9
 8009c4e:	d1e4      	bne.n	8009c1a <JTAG_SIR.constprop.0+0x7a>
 8009c50:	f44f 6380 	mov.w	r3, #1024	; 0x400
 8009c54:	61a3      	str	r3, [r4, #24]
 8009c56:	07eb      	lsls	r3, r5, #31
 8009c58:	d42e      	bmi.n	8009cb8 <JTAG_SIR.constprop.0+0x118>
 8009c5a:	f04f 5300 	mov.w	r3, #536870912	; 0x20000000
 8009c5e:	61a3      	str	r3, [r4, #24]
 8009c60:	2001      	movs	r0, #1
 8009c62:	f001 ff7b 	bl	800bb5c <delay_us>
 8009c66:	f8c4 8018 	str.w	r8, [r4, #24]
 8009c6a:	2001      	movs	r0, #1
 8009c6c:	f44f 4600 	mov.w	r6, #32768	; 0x8000
 8009c70:	f001 ff74 	bl	800bb5c <delay_us>
 8009c74:	61a7      	str	r7, [r4, #24]
 8009c76:	2001      	movs	r0, #1
 8009c78:	4c11      	ldr	r4, [pc, #68]	; (8009cc0 <JTAG_SIR.constprop.0+0x120>)
 8009c7a:	f001 ff6f 	bl	800bb5c <delay_us>
 8009c7e:	f04f 4500 	mov.w	r5, #2147483648	; 0x80000000
 8009c82:	2001      	movs	r0, #1
 8009c84:	f001 ff6a 	bl	800bb5c <delay_us>
 8009c88:	2001      	movs	r0, #1
 8009c8a:	61a6      	str	r6, [r4, #24]
 8009c8c:	f001 ff66 	bl	800bb5c <delay_us>
 8009c90:	2001      	movs	r0, #1
 8009c92:	61a5      	str	r5, [r4, #24]
 8009c94:	f001 ff62 	bl	800bb5c <delay_us>
 8009c98:	f04f 6380 	mov.w	r3, #67108864	; 0x4000000
 8009c9c:	2001      	movs	r0, #1
 8009c9e:	61a3      	str	r3, [r4, #24]
 8009ca0:	f001 ff5c 	bl	800bb5c <delay_us>
 8009ca4:	2001      	movs	r0, #1
 8009ca6:	61a6      	str	r6, [r4, #24]
 8009ca8:	f001 ff58 	bl	800bb5c <delay_us>
 8009cac:	61a5      	str	r5, [r4, #24]
 8009cae:	2001      	movs	r0, #1
 8009cb0:	e8bd 41f0 	ldmia.w	sp!, {r4, r5, r6, r7, r8, lr}
 8009cb4:	f001 bf52 	b.w	800bb5c <delay_us>
 8009cb8:	f44f 5300 	mov.w	r3, #8192	; 0x2000
 8009cbc:	e7cf      	b.n	8009c5e <JTAG_SIR.constprop.0+0xbe>
 8009cbe:	bf00      	nop
 8009cc0:	40020000 	.word	0x40020000

08009cc4 <JTAG_SDR.constprop.2>:
 8009cc4:	e92d 43f8 	stmdb	sp!, {r3, r4, r5, r6, r7, r8, r9, lr}
 8009cc8:	4c3a      	ldr	r4, [pc, #232]	; (8009db4 <JTAG_SDR.constprop.2+0xf0>)
 8009cca:	f44f 6380 	mov.w	r3, #1024	; 0x400
 8009cce:	f44f 4500 	mov.w	r5, #32768	; 0x8000
 8009cd2:	f04f 4700 	mov.w	r7, #2147483648	; 0x80000000
 8009cd6:	61a3      	str	r3, [r4, #24]
 8009cd8:	4681      	mov	r9, r0
 8009cda:	2001      	movs	r0, #1
 8009cdc:	2600      	movs	r6, #0
 8009cde:	f001 ff3d 	bl	800bb5c <delay_us>
 8009ce2:	2001      	movs	r0, #1
 8009ce4:	61a5      	str	r5, [r4, #24]
 8009ce6:	46a8      	mov	r8, r5
 8009ce8:	f001 ff38 	bl	800bb5c <delay_us>
 8009cec:	2001      	movs	r0, #1
 8009cee:	61a7      	str	r7, [r4, #24]
 8009cf0:	f001 ff34 	bl	800bb5c <delay_us>
 8009cf4:	f04f 6380 	mov.w	r3, #67108864	; 0x4000000
 8009cf8:	2001      	movs	r0, #1
 8009cfa:	61a3      	str	r3, [r4, #24]
 8009cfc:	f001 ff2e 	bl	800bb5c <delay_us>
 8009d00:	2001      	movs	r0, #1
 8009d02:	61a5      	str	r5, [r4, #24]
 8009d04:	f001 ff2a 	bl	800bb5c <delay_us>
 8009d08:	2001      	movs	r0, #1
 8009d0a:	61a7      	str	r7, [r4, #24]
 8009d0c:	f001 ff26 	bl	800bb5c <delay_us>
 8009d10:	2001      	movs	r0, #1
 8009d12:	f001 ff23 	bl	800bb5c <delay_us>
 8009d16:	2001      	movs	r0, #1
 8009d18:	61a5      	str	r5, [r4, #24]
 8009d1a:	4635      	mov	r5, r6
 8009d1c:	f001 ff1e 	bl	800bb5c <delay_us>
 8009d20:	2001      	movs	r0, #1
 8009d22:	61a7      	str	r7, [r4, #24]
 8009d24:	f001 ff1a 	bl	800bb5c <delay_us>
 8009d28:	6923      	ldr	r3, [r4, #16]
 8009d2a:	f019 0f01 	tst.w	r9, #1
 8009d2e:	f04f 0001 	mov.w	r0, #1
 8009d32:	f04f 4700 	mov.w	r7, #2147483648	; 0x80000000
 8009d36:	f3c3 3380 	ubfx	r3, r3, #14, #1
 8009d3a:	bf14      	ite	ne
 8009d3c:	f44f 5200 	movne.w	r2, #8192	; 0x2000
 8009d40:	f04f 5200 	moveq.w	r2, #536870912	; 0x20000000
 8009d44:	fa29 f900 	lsr.w	r9, r9, r0
 8009d48:	40ab      	lsls	r3, r5
 8009d4a:	4405      	add	r5, r0
 8009d4c:	61a2      	str	r2, [r4, #24]
 8009d4e:	431e      	orrs	r6, r3
 8009d50:	f001 ff04 	bl	800bb5c <delay_us>
 8009d54:	2001      	movs	r0, #1
 8009d56:	f8c4 8018 	str.w	r8, [r4, #24]
 8009d5a:	f001 feff 	bl	800bb5c <delay_us>
 8009d5e:	2001      	movs	r0, #1
 8009d60:	61a7      	str	r7, [r4, #24]
 8009d62:	f001 fefb 	bl	800bb5c <delay_us>
 8009d66:	2d10      	cmp	r5, #16
 8009d68:	d005      	beq.n	8009d76 <JTAG_SDR.constprop.2+0xb2>
 8009d6a:	2d0f      	cmp	r5, #15
 8009d6c:	d1dc      	bne.n	8009d28 <JTAG_SDR.constprop.2+0x64>
 8009d6e:	f44f 6380 	mov.w	r3, #1024	; 0x400
 8009d72:	61a3      	str	r3, [r4, #24]
 8009d74:	e7d8      	b.n	8009d28 <JTAG_SDR.constprop.2+0x64>
 8009d76:	2001      	movs	r0, #1
 8009d78:	f001 fef0 	bl	800bb5c <delay_us>
 8009d7c:	2001      	movs	r0, #1
 8009d7e:	f8c4 8018 	str.w	r8, [r4, #24]
 8009d82:	f001 feeb 	bl	800bb5c <delay_us>
 8009d86:	2001      	movs	r0, #1
 8009d88:	61a7      	str	r7, [r4, #24]
 8009d8a:	f001 fee7 	bl	800bb5c <delay_us>
 8009d8e:	f04f 6380 	mov.w	r3, #67108864	; 0x4000000
 8009d92:	2001      	movs	r0, #1
 8009d94:	61a3      	str	r3, [r4, #24]
 8009d96:	f001 fee1 	bl	800bb5c <delay_us>
 8009d9a:	2001      	movs	r0, #1
 8009d9c:	f8c4 8018 	str.w	r8, [r4, #24]
 8009da0:	f001 fedc 	bl	800bb5c <delay_us>
 8009da4:	2001      	movs	r0, #1
 8009da6:	61a7      	str	r7, [r4, #24]
 8009da8:	f001 fed8 	bl	800bb5c <delay_us>
 8009dac:	4630      	mov	r0, r6
 8009dae:	e8bd 83f8 	ldmia.w	sp!, {r3, r4, r5, r6, r7, r8, r9, pc}
 8009db2:	bf00      	nop
 8009db4:	40020000 	.word	0x40020000

08009db8 <JTAG_Reset>:
 8009db8:	b570      	push	{r4, r5, r6, lr}
 8009dba:	f44f 6380 	mov.w	r3, #1024	; 0x400
 8009dbe:	4c26      	ldr	r4, [pc, #152]	; (8009e58 <JTAG_Reset+0xa0>)
 8009dc0:	f44f 4600 	mov.w	r6, #32768	; 0x8000
 8009dc4:	f04f 4500 	mov.w	r5, #2147483648	; 0x80000000
 8009dc8:	61a3      	str	r3, [r4, #24]
 8009dca:	2001      	movs	r0, #1
 8009dcc:	f001 fec6 	bl	800bb5c <delay_us>
 8009dd0:	2001      	movs	r0, #1
 8009dd2:	61a6      	str	r6, [r4, #24]
 8009dd4:	f001 fec2 	bl	800bb5c <delay_us>
 8009dd8:	2001      	movs	r0, #1
 8009dda:	61a5      	str	r5, [r4, #24]
 8009ddc:	f001 febe 	bl	800bb5c <delay_us>
 8009de0:	2001      	movs	r0, #1
 8009de2:	f001 febb 	bl	800bb5c <delay_us>
 8009de6:	2001      	movs	r0, #1
 8009de8:	61a6      	str	r6, [r4, #24]
 8009dea:	f001 feb7 	bl	800bb5c <delay_us>
 8009dee:	2001      	movs	r0, #1
 8009df0:	61a5      	str	r5, [r4, #24]
 8009df2:	f001 feb3 	bl	800bb5c <delay_us>
 8009df6:	2001      	movs	r0, #1
 8009df8:	f001 feb0 	bl	800bb5c <delay_us>
 8009dfc:	2001      	movs	r0, #1
 8009dfe:	61a6      	str	r6, [r4, #24]
 8009e00:	f001 feac 	bl	800bb5c <delay_us>
 8009e04:	2001      	movs	r0, #1
 8009e06:	61a5      	str	r5, [r4, #24]
 8009e08:	f001 fea8 	bl	800bb5c <delay_us>
 8009e0c:	2001      	movs	r0, #1
 8009e0e:	f001 fea5 	bl	800bb5c <delay_us>
 8009e12:	2001      	movs	r0, #1
 8009e14:	61a6      	str	r6, [r4, #24]
 8009e16:	f001 fea1 	bl	800bb5c <delay_us>
 8009e1a:	2001      	movs	r0, #1
 8009e1c:	61a5      	str	r5, [r4, #24]
 8009e1e:	f001 fe9d 	bl	800bb5c <delay_us>
 8009e22:	2001      	movs	r0, #1
 8009e24:	f001 fe9a 	bl	800bb5c <delay_us>
 8009e28:	2001      	movs	r0, #1
 8009e2a:	61a6      	str	r6, [r4, #24]
 8009e2c:	f001 fe96 	bl	800bb5c <delay_us>
 8009e30:	2001      	movs	r0, #1
 8009e32:	61a5      	str	r5, [r4, #24]
 8009e34:	f001 fe92 	bl	800bb5c <delay_us>
 8009e38:	f04f 6380 	mov.w	r3, #67108864	; 0x4000000
 8009e3c:	2001      	movs	r0, #1
 8009e3e:	61a3      	str	r3, [r4, #24]
 8009e40:	f001 fe8c 	bl	800bb5c <delay_us>
 8009e44:	2001      	movs	r0, #1
 8009e46:	61a6      	str	r6, [r4, #24]
 8009e48:	f001 fe88 	bl	800bb5c <delay_us>
 8009e4c:	61a5      	str	r5, [r4, #24]
 8009e4e:	2001      	movs	r0, #1
 8009e50:	e8bd 4070 	ldmia.w	sp!, {r4, r5, r6, lr}
 8009e54:	f001 be82 	b.w	800bb5c <delay_us>
 8009e58:	40020000 	.word	0x40020000

08009e5c <JTAG_SetAddress>:
 8009e5c:	e92d 43f8 	stmdb	sp!, {r3, r4, r5, r6, r7, r8, r9, lr}
 8009e60:	4606      	mov	r6, r0
 8009e62:	f240 2003 	movw	r0, #515	; 0x203
 8009e66:	2406      	movs	r4, #6
 8009e68:	f7ff fe9a 	bl	8009ba0 <JTAG_SIR.constprop.0>
 8009e6c:	2002      	movs	r0, #2
 8009e6e:	f001 fe75 	bl	800bb5c <delay_us>
 8009e72:	3c01      	subs	r4, #1
 8009e74:	d1fa      	bne.n	8009e6c <JTAG_SetAddress+0x10>
 8009e76:	4f42      	ldr	r7, [pc, #264]	; (8009f80 <JTAG_SetAddress+0x124>)
 8009e78:	f44f 6380 	mov.w	r3, #1024	; 0x400
 8009e7c:	f44f 4500 	mov.w	r5, #32768	; 0x8000
 8009e80:	f04f 4900 	mov.w	r9, #2147483648	; 0x80000000
 8009e84:	61bb      	str	r3, [r7, #24]
 8009e86:	2001      	movs	r0, #1
 8009e88:	f001 fe68 	bl	800bb5c <delay_us>
 8009e8c:	2001      	movs	r0, #1
 8009e8e:	61bd      	str	r5, [r7, #24]
 8009e90:	46a8      	mov	r8, r5
 8009e92:	f001 fe63 	bl	800bb5c <delay_us>
 8009e96:	2001      	movs	r0, #1
 8009e98:	f8c7 9018 	str.w	r9, [r7, #24]
 8009e9c:	f001 fe5e 	bl	800bb5c <delay_us>
 8009ea0:	f04f 6380 	mov.w	r3, #67108864	; 0x4000000
 8009ea4:	2001      	movs	r0, #1
 8009ea6:	61bb      	str	r3, [r7, #24]
 8009ea8:	f001 fe58 	bl	800bb5c <delay_us>
 8009eac:	2001      	movs	r0, #1
 8009eae:	61bd      	str	r5, [r7, #24]
 8009eb0:	f001 fe54 	bl	800bb5c <delay_us>
 8009eb4:	2001      	movs	r0, #1
 8009eb6:	f8c7 9018 	str.w	r9, [r7, #24]
 8009eba:	f001 fe4f 	bl	800bb5c <delay_us>
 8009ebe:	2001      	movs	r0, #1
 8009ec0:	f001 fe4c 	bl	800bb5c <delay_us>
 8009ec4:	2001      	movs	r0, #1
 8009ec6:	61bd      	str	r5, [r7, #24]
 8009ec8:	463d      	mov	r5, r7
 8009eca:	f001 fe47 	bl	800bb5c <delay_us>
 8009ece:	2001      	movs	r0, #1
 8009ed0:	f8c7 9018 	str.w	r9, [r7, #24]
 8009ed4:	f001 fe42 	bl	800bb5c <delay_us>
 8009ed8:	f016 0f01 	tst.w	r6, #1
 8009edc:	692b      	ldr	r3, [r5, #16]
 8009ede:	f04f 0001 	mov.w	r0, #1
 8009ee2:	f04f 4700 	mov.w	r7, #2147483648	; 0x80000000
 8009ee6:	bf14      	ite	ne
 8009ee8:	f44f 5300 	movne.w	r3, #8192	; 0x2000
 8009eec:	f04f 5300 	moveq.w	r3, #536870912	; 0x20000000
 8009ef0:	4404      	add	r4, r0
 8009ef2:	40c6      	lsrs	r6, r0
 8009ef4:	61ab      	str	r3, [r5, #24]
 8009ef6:	f001 fe31 	bl	800bb5c <delay_us>
 8009efa:	2001      	movs	r0, #1
 8009efc:	f8c5 8018 	str.w	r8, [r5, #24]
 8009f00:	f001 fe2c 	bl	800bb5c <delay_us>
 8009f04:	2001      	movs	r0, #1
 8009f06:	61af      	str	r7, [r5, #24]
 8009f08:	f001 fe28 	bl	800bb5c <delay_us>
 8009f0c:	2c0c      	cmp	r4, #12
 8009f0e:	d1e3      	bne.n	8009ed8 <JTAG_SetAddress+0x7c>
 8009f10:	f44f 6380 	mov.w	r3, #1024	; 0x400
 8009f14:	61ab      	str	r3, [r5, #24]
 8009f16:	692b      	ldr	r3, [r5, #16]
 8009f18:	07f3      	lsls	r3, r6, #31
 8009f1a:	d42e      	bmi.n	8009f7a <JTAG_SetAddress+0x11e>
 8009f1c:	f04f 5300 	mov.w	r3, #536870912	; 0x20000000
 8009f20:	61ab      	str	r3, [r5, #24]
 8009f22:	2001      	movs	r0, #1
 8009f24:	f001 fe1a 	bl	800bb5c <delay_us>
 8009f28:	f8c5 8018 	str.w	r8, [r5, #24]
 8009f2c:	2001      	movs	r0, #1
 8009f2e:	4c14      	ldr	r4, [pc, #80]	; (8009f80 <JTAG_SetAddress+0x124>)
 8009f30:	f001 fe14 	bl	800bb5c <delay_us>
 8009f34:	f44f 4600 	mov.w	r6, #32768	; 0x8000
 8009f38:	61af      	str	r7, [r5, #24]
 8009f3a:	2001      	movs	r0, #1
 8009f3c:	f001 fe0e 	bl	800bb5c <delay_us>
 8009f40:	f04f 4500 	mov.w	r5, #2147483648	; 0x80000000
 8009f44:	2001      	movs	r0, #1
 8009f46:	f001 fe09 	bl	800bb5c <delay_us>
 8009f4a:	2001      	movs	r0, #1
 8009f4c:	61a6      	str	r6, [r4, #24]
 8009f4e:	f001 fe05 	bl	800bb5c <delay_us>
 8009f52:	2001      	movs	r0, #1
 8009f54:	61a5      	str	r5, [r4, #24]
 8009f56:	f001 fe01 	bl	800bb5c <delay_us>
 8009f5a:	f04f 6380 	mov.w	r3, #67108864	; 0x4000000
 8009f5e:	2001      	movs	r0, #1
 8009f60:	61a3      	str	r3, [r4, #24]
 8009f62:	f001 fdfb 	bl	800bb5c <delay_us>
 8009f66:	2001      	movs	r0, #1
 8009f68:	61a6      	str	r6, [r4, #24]
 8009f6a:	f001 fdf7 	bl	800bb5c <delay_us>
 8009f6e:	61a5      	str	r5, [r4, #24]
 8009f70:	2001      	movs	r0, #1
 8009f72:	e8bd 43f8 	ldmia.w	sp!, {r3, r4, r5, r6, r7, r8, r9, lr}
 8009f76:	f001 bdf1 	b.w	800bb5c <delay_us>
 8009f7a:	f44f 5300 	mov.w	r3, #8192	; 0x2000
 8009f7e:	e7cf      	b.n	8009f20 <JTAG_SetAddress+0xc4>
 8009f80:	40020000 	.word	0x40020000

08009f84 <JTAG_Code>:
 8009f84:	e92d 47f0 	stmdb	sp!, {r4, r5, r6, r7, r8, r9, sl, lr}
 8009f88:	4c63      	ldr	r4, [pc, #396]	; (800a118 <JTAG_Code+0x194>)
 8009f8a:	f44f 6a80 	mov.w	sl, #1024	; 0x400
 8009f8e:	f44f 4600 	mov.w	r6, #32768	; 0x8000
 8009f92:	f04f 4700 	mov.w	r7, #2147483648	; 0x80000000
 8009f96:	4605      	mov	r5, r0
 8009f98:	f8c4 a018 	str.w	sl, [r4, #24]
 8009f9c:	2001      	movs	r0, #1
 8009f9e:	f04f 6880 	mov.w	r8, #67108864	; 0x4000000
 8009fa2:	f001 fddb 	bl	800bb5c <delay_us>
 8009fa6:	2001      	movs	r0, #1
 8009fa8:	61a6      	str	r6, [r4, #24]
 8009faa:	f04f 0900 	mov.w	r9, #0
 8009fae:	f001 fdd5 	bl	800bb5c <delay_us>
 8009fb2:	2001      	movs	r0, #1
 8009fb4:	61a7      	str	r7, [r4, #24]
 8009fb6:	f001 fdd1 	bl	800bb5c <delay_us>
 8009fba:	2001      	movs	r0, #1
 8009fbc:	f001 fdce 	bl	800bb5c <delay_us>
 8009fc0:	2001      	movs	r0, #1
 8009fc2:	61a6      	str	r6, [r4, #24]
 8009fc4:	f001 fdca 	bl	800bb5c <delay_us>
 8009fc8:	2001      	movs	r0, #1
 8009fca:	61a7      	str	r7, [r4, #24]
 8009fcc:	f001 fdc6 	bl	800bb5c <delay_us>
 8009fd0:	2001      	movs	r0, #1
 8009fd2:	f001 fdc3 	bl	800bb5c <delay_us>
 8009fd6:	2001      	movs	r0, #1
 8009fd8:	61a6      	str	r6, [r4, #24]
 8009fda:	f001 fdbf 	bl	800bb5c <delay_us>
 8009fde:	2001      	movs	r0, #1
 8009fe0:	61a7      	str	r7, [r4, #24]
 8009fe2:	f001 fdbb 	bl	800bb5c <delay_us>
 8009fe6:	2001      	movs	r0, #1
 8009fe8:	f001 fdb8 	bl	800bb5c <delay_us>
 8009fec:	2001      	movs	r0, #1
 8009fee:	61a6      	str	r6, [r4, #24]
 8009ff0:	f001 fdb4 	bl	800bb5c <delay_us>
 8009ff4:	2001      	movs	r0, #1
 8009ff6:	61a7      	str	r7, [r4, #24]
 8009ff8:	f001 fdb0 	bl	800bb5c <delay_us>
 8009ffc:	2001      	movs	r0, #1
 8009ffe:	f001 fdad 	bl	800bb5c <delay_us>
 800a002:	2001      	movs	r0, #1
 800a004:	61a6      	str	r6, [r4, #24]
 800a006:	f001 fda9 	bl	800bb5c <delay_us>
 800a00a:	2001      	movs	r0, #1
 800a00c:	61a7      	str	r7, [r4, #24]
 800a00e:	f001 fda5 	bl	800bb5c <delay_us>
 800a012:	2001      	movs	r0, #1
 800a014:	f8c4 8018 	str.w	r8, [r4, #24]
 800a018:	f001 fda0 	bl	800bb5c <delay_us>
 800a01c:	2001      	movs	r0, #1
 800a01e:	61a6      	str	r6, [r4, #24]
 800a020:	f001 fd9c 	bl	800bb5c <delay_us>
 800a024:	2001      	movs	r0, #1
 800a026:	61a7      	str	r7, [r4, #24]
 800a028:	f001 fd98 	bl	800bb5c <delay_us>
 800a02c:	4628      	mov	r0, r5
 800a02e:	f7ff fdb7 	bl	8009ba0 <JTAG_SIR.constprop.0>
 800a032:	2001      	movs	r0, #1
 800a034:	f8c4 a018 	str.w	sl, [r4, #24]
 800a038:	4625      	mov	r5, r4
 800a03a:	f001 fd8f 	bl	800bb5c <delay_us>
 800a03e:	2001      	movs	r0, #1
 800a040:	61a6      	str	r6, [r4, #24]
 800a042:	46b2      	mov	sl, r6
 800a044:	f001 fd8a 	bl	800bb5c <delay_us>
 800a048:	2001      	movs	r0, #1
 800a04a:	61a7      	str	r7, [r4, #24]
 800a04c:	f001 fd86 	bl	800bb5c <delay_us>
 800a050:	2001      	movs	r0, #1
 800a052:	f8c4 8018 	str.w	r8, [r4, #24]
 800a056:	46c8      	mov	r8, r9
 800a058:	f001 fd80 	bl	800bb5c <delay_us>
 800a05c:	2001      	movs	r0, #1
 800a05e:	61a6      	str	r6, [r4, #24]
 800a060:	f001 fd7c 	bl	800bb5c <delay_us>
 800a064:	2001      	movs	r0, #1
 800a066:	61a7      	str	r7, [r4, #24]
 800a068:	f001 fd78 	bl	800bb5c <delay_us>
 800a06c:	2001      	movs	r0, #1
 800a06e:	f001 fd75 	bl	800bb5c <delay_us>
 800a072:	2001      	movs	r0, #1
 800a074:	61a6      	str	r6, [r4, #24]
 800a076:	f64f 76ff 	movw	r6, #65535	; 0xffff
 800a07a:	f001 fd6f 	bl	800bb5c <delay_us>
 800a07e:	2001      	movs	r0, #1
 800a080:	61a7      	str	r7, [r4, #24]
 800a082:	f001 fd6b 	bl	800bb5c <delay_us>
 800a086:	692b      	ldr	r3, [r5, #16]
 800a088:	f016 0f01 	tst.w	r6, #1
 800a08c:	f04f 0001 	mov.w	r0, #1
 800a090:	f04f 4400 	mov.w	r4, #2147483648	; 0x80000000
 800a094:	f3c3 3380 	ubfx	r3, r3, #14, #1
 800a098:	bf14      	ite	ne
 800a09a:	f44f 5200 	movne.w	r2, #8192	; 0x2000
 800a09e:	f04f 5200 	moveq.w	r2, #536870912	; 0x20000000
 800a0a2:	40c6      	lsrs	r6, r0
 800a0a4:	fa03 f308 	lsl.w	r3, r3, r8
 800a0a8:	4480      	add	r8, r0
 800a0aa:	61aa      	str	r2, [r5, #24]
 800a0ac:	ea49 0903 	orr.w	r9, r9, r3
 800a0b0:	f001 fd54 	bl	800bb5c <delay_us>
 800a0b4:	2001      	movs	r0, #1
 800a0b6:	f8c5 a018 	str.w	sl, [r5, #24]
 800a0ba:	f001 fd4f 	bl	800bb5c <delay_us>
 800a0be:	2001      	movs	r0, #1
 800a0c0:	61ac      	str	r4, [r5, #24]
 800a0c2:	f001 fd4b 	bl	800bb5c <delay_us>
 800a0c6:	f1b8 0f20 	cmp.w	r8, #32
 800a0ca:	d006      	beq.n	800a0da <JTAG_Code+0x156>
 800a0cc:	f1b8 0f1f 	cmp.w	r8, #31
 800a0d0:	d1d9      	bne.n	800a086 <JTAG_Code+0x102>
 800a0d2:	f44f 6380 	mov.w	r3, #1024	; 0x400
 800a0d6:	61ab      	str	r3, [r5, #24]
 800a0d8:	e7d5      	b.n	800a086 <JTAG_Code+0x102>
 800a0da:	2001      	movs	r0, #1
 800a0dc:	f001 fd3e 	bl	800bb5c <delay_us>
 800a0e0:	2001      	movs	r0, #1
 800a0e2:	f8c5 a018 	str.w	sl, [r5, #24]
 800a0e6:	f001 fd39 	bl	800bb5c <delay_us>
 800a0ea:	2001      	movs	r0, #1
 800a0ec:	61ac      	str	r4, [r5, #24]
 800a0ee:	f001 fd35 	bl	800bb5c <delay_us>
 800a0f2:	f04f 6380 	mov.w	r3, #67108864	; 0x4000000
 800a0f6:	2001      	movs	r0, #1
 800a0f8:	61ab      	str	r3, [r5, #24]
 800a0fa:	f001 fd2f 	bl	800bb5c <delay_us>
 800a0fe:	2001      	movs	r0, #1
 800a100:	f8c5 a018 	str.w	sl, [r5, #24]
 800a104:	f001 fd2a 	bl	800bb5c <delay_us>
 800a108:	2001      	movs	r0, #1
 800a10a:	61ac      	str	r4, [r5, #24]
 800a10c:	f001 fd26 	bl	800bb5c <delay_us>
 800a110:	4648      	mov	r0, r9
 800a112:	e8bd 87f0 	ldmia.w	sp!, {r4, r5, r6, r7, r8, r9, sl, pc}
 800a116:	bf00      	nop
 800a118:	40020000 	.word	0x40020000

0800a11c <JTAG_Erase>:
 800a11c:	2011      	movs	r0, #17
 800a11e:	b510      	push	{r4, lr}
 800a120:	f7ff fe9c 	bl	8009e5c <JTAG_SetAddress>
 800a124:	f240 20f2 	movw	r0, #754	; 0x2f2
 800a128:	4c11      	ldr	r4, [pc, #68]	; (800a170 <JTAG_Erase+0x54>)
 800a12a:	f7ff fd39 	bl	8009ba0 <JTAG_SIR.constprop.0>
 800a12e:	2002      	movs	r0, #2
 800a130:	f001 fd14 	bl	800bb5c <delay_us>
 800a134:	3c01      	subs	r4, #1
 800a136:	d1fa      	bne.n	800a12e <JTAG_Erase+0x12>
 800a138:	2001      	movs	r0, #1
 800a13a:	4c0d      	ldr	r4, [pc, #52]	; (800a170 <JTAG_Erase+0x54>)
 800a13c:	f7ff fe8e 	bl	8009e5c <JTAG_SetAddress>
 800a140:	f240 20f2 	movw	r0, #754	; 0x2f2
 800a144:	f7ff fd2c 	bl	8009ba0 <JTAG_SIR.constprop.0>
 800a148:	2002      	movs	r0, #2
 800a14a:	f001 fd07 	bl	800bb5c <delay_us>
 800a14e:	3c01      	subs	r4, #1
 800a150:	d1fa      	bne.n	800a148 <JTAG_Erase+0x2c>
 800a152:	4620      	mov	r0, r4
 800a154:	4c06      	ldr	r4, [pc, #24]	; (800a170 <JTAG_Erase+0x54>)
 800a156:	f7ff fe81 	bl	8009e5c <JTAG_SetAddress>
 800a15a:	f240 20f2 	movw	r0, #754	; 0x2f2
 800a15e:	f7ff fd1f 	bl	8009ba0 <JTAG_SIR.constprop.0>
 800a162:	2002      	movs	r0, #2
 800a164:	f001 fcfa 	bl	800bb5c <delay_us>
 800a168:	3c01      	subs	r4, #1
 800a16a:	d1fa      	bne.n	800a162 <JTAG_Erase+0x46>
 800a16c:	bd10      	pop	{r4, pc}
 800a16e:	bf00      	nop
 800a170:	0003d090 	.word	0x0003d090

0800a174 <JTAG_Enable>:
 800a174:	b510      	push	{r4, lr}
 800a176:	f44f 7033 	mov.w	r0, #716	; 0x2cc
 800a17a:	f44f 74fa 	mov.w	r4, #500	; 0x1f4
 800a17e:	f7ff fd0f 	bl	8009ba0 <JTAG_SIR.constprop.0>
 800a182:	2002      	movs	r0, #2
 800a184:	f001 fcea 	bl	800bb5c <delay_us>
 800a188:	3c01      	subs	r4, #1
 800a18a:	d1fa      	bne.n	800a182 <JTAG_Enable+0xe>
 800a18c:	bd10      	pop	{r4, pc}
 800a18e:	bf00      	nop

0800a190 <JTAG_Disable>:
 800a190:	b510      	push	{r4, lr}
 800a192:	f240 2001 	movw	r0, #513	; 0x201
 800a196:	f44f 74fa 	mov.w	r4, #500	; 0x1f4
 800a19a:	f7ff fd01 	bl	8009ba0 <JTAG_SIR.constprop.0>
 800a19e:	2002      	movs	r0, #2
 800a1a0:	f001 fcdc 	bl	800bb5c <delay_us>
 800a1a4:	3c01      	subs	r4, #1
 800a1a6:	d1fa      	bne.n	800a19e <JTAG_Disable+0xe>
 800a1a8:	f240 30ff 	movw	r0, #1023	; 0x3ff
 800a1ac:	f44f 74fa 	mov.w	r4, #500	; 0x1f4
 800a1b0:	f7ff fcf6 	bl	8009ba0 <JTAG_SIR.constprop.0>
 800a1b4:	2002      	movs	r0, #2
 800a1b6:	f001 fcd1 	bl	800bb5c <delay_us>
 800a1ba:	3c01      	subs	r4, #1
 800a1bc:	d1fa      	bne.n	800a1b4 <JTAG_Disable+0x24>
 800a1be:	bd10      	pop	{r4, pc}

0800a1c0 <JTAG_StartProgram>:
 800a1c0:	2000      	movs	r0, #0
 800a1c2:	b510      	push	{r4, lr}
 800a1c4:	f7ff fe4a 	bl	8009e5c <JTAG_SetAddress>
 800a1c8:	f44f 703d 	mov.w	r0, #756	; 0x2f4
 800a1cc:	2406      	movs	r4, #6
 800a1ce:	f7ff fce7 	bl	8009ba0 <JTAG_SIR.constprop.0>
 800a1d2:	2002      	movs	r0, #2
 800a1d4:	f001 fcc2 	bl	800bb5c <delay_us>
 800a1d8:	3c01      	subs	r4, #1
 800a1da:	d1fa      	bne.n	800a1d2 <JTAG_StartProgram+0x12>
 800a1dc:	bd10      	pop	{r4, pc}
 800a1de:	bf00      	nop

0800a1e0 <JTAG_Program>:
 800a1e0:	e92d 4ff0 	stmdb	sp!, {r4, r5, r6, r7, r8, r9, sl, fp, lr}
 800a1e4:	b083      	sub	sp, #12
 800a1e6:	9101      	str	r1, [sp, #4]
 800a1e8:	2900      	cmp	r1, #0
 800a1ea:	f000 8086 	beq.w	800a2fa <JTAG_Program+0x11a>
 800a1ee:	4682      	mov	sl, r0
 800a1f0:	f44f 6980 	mov.w	r9, #1024	; 0x400
 800a1f4:	f04f 0800 	mov.w	r8, #0
 800a1f8:	4c43      	ldr	r4, [pc, #268]	; (800a308 <JTAG_Program+0x128>)
 800a1fa:	f44f 4700 	mov.w	r7, #32768	; 0x8000
 800a1fe:	f04f 4600 	mov.w	r6, #2147483648	; 0x80000000
 800a202:	f44f 6380 	mov.w	r3, #1024	; 0x400
 800a206:	f83a 5b02 	ldrh.w	r5, [sl], #2
 800a20a:	2001      	movs	r0, #1
 800a20c:	f04f 0b00 	mov.w	fp, #0
 800a210:	61a3      	str	r3, [r4, #24]
 800a212:	f001 fca3 	bl	800bb5c <delay_us>
 800a216:	2001      	movs	r0, #1
 800a218:	61a7      	str	r7, [r4, #24]
 800a21a:	f001 fc9f 	bl	800bb5c <delay_us>
 800a21e:	2001      	movs	r0, #1
 800a220:	61a6      	str	r6, [r4, #24]
 800a222:	f001 fc9b 	bl	800bb5c <delay_us>
 800a226:	f04f 6380 	mov.w	r3, #67108864	; 0x4000000
 800a22a:	2001      	movs	r0, #1
 800a22c:	61a3      	str	r3, [r4, #24]
 800a22e:	f001 fc95 	bl	800bb5c <delay_us>
 800a232:	2001      	movs	r0, #1
 800a234:	61a7      	str	r7, [r4, #24]
 800a236:	f001 fc91 	bl	800bb5c <delay_us>
 800a23a:	2001      	movs	r0, #1
 800a23c:	61a6      	str	r6, [r4, #24]
 800a23e:	f001 fc8d 	bl	800bb5c <delay_us>
 800a242:	2001      	movs	r0, #1
 800a244:	f001 fc8a 	bl	800bb5c <delay_us>
 800a248:	2001      	movs	r0, #1
 800a24a:	61a7      	str	r7, [r4, #24]
 800a24c:	f001 fc86 	bl	800bb5c <delay_us>
 800a250:	2001      	movs	r0, #1
 800a252:	61a6      	str	r6, [r4, #24]
 800a254:	f001 fc82 	bl	800bb5c <delay_us>
 800a258:	f015 0f01 	tst.w	r5, #1
 800a25c:	6922      	ldr	r2, [r4, #16]
 800a25e:	f04f 0001 	mov.w	r0, #1
 800a262:	bf14      	ite	ne
 800a264:	f44f 5200 	movne.w	r2, #8192	; 0x2000
 800a268:	f04f 5200 	moveq.w	r2, #536870912	; 0x20000000
 800a26c:	4483      	add	fp, r0
 800a26e:	40c5      	lsrs	r5, r0
 800a270:	61a2      	str	r2, [r4, #24]
 800a272:	f001 fc73 	bl	800bb5c <delay_us>
 800a276:	2001      	movs	r0, #1
 800a278:	61a7      	str	r7, [r4, #24]
 800a27a:	f001 fc6f 	bl	800bb5c <delay_us>
 800a27e:	2001      	movs	r0, #1
 800a280:	61a6      	str	r6, [r4, #24]
 800a282:	f001 fc6b 	bl	800bb5c <delay_us>
 800a286:	f1bb 0f0f 	cmp.w	fp, #15
 800a28a:	d1e5      	bne.n	800a258 <JTAG_Program+0x78>
 800a28c:	f8c4 9018 	str.w	r9, [r4, #24]
 800a290:	6923      	ldr	r3, [r4, #16]
 800a292:	07eb      	lsls	r3, r5, #31
 800a294:	d434      	bmi.n	800a300 <JTAG_Program+0x120>
 800a296:	f04f 5300 	mov.w	r3, #536870912	; 0x20000000
 800a29a:	61a3      	str	r3, [r4, #24]
 800a29c:	2001      	movs	r0, #1
 800a29e:	f001 fc5d 	bl	800bb5c <delay_us>
 800a2a2:	2001      	movs	r0, #1
 800a2a4:	61a7      	str	r7, [r4, #24]
 800a2a6:	2532      	movs	r5, #50	; 0x32
 800a2a8:	f001 fc58 	bl	800bb5c <delay_us>
 800a2ac:	2001      	movs	r0, #1
 800a2ae:	61a6      	str	r6, [r4, #24]
 800a2b0:	f001 fc54 	bl	800bb5c <delay_us>
 800a2b4:	2001      	movs	r0, #1
 800a2b6:	f001 fc51 	bl	800bb5c <delay_us>
 800a2ba:	2001      	movs	r0, #1
 800a2bc:	61a7      	str	r7, [r4, #24]
 800a2be:	f001 fc4d 	bl	800bb5c <delay_us>
 800a2c2:	2001      	movs	r0, #1
 800a2c4:	61a6      	str	r6, [r4, #24]
 800a2c6:	f001 fc49 	bl	800bb5c <delay_us>
 800a2ca:	f04f 6380 	mov.w	r3, #67108864	; 0x4000000
 800a2ce:	2001      	movs	r0, #1
 800a2d0:	61a3      	str	r3, [r4, #24]
 800a2d2:	f001 fc43 	bl	800bb5c <delay_us>
 800a2d6:	2001      	movs	r0, #1
 800a2d8:	61a7      	str	r7, [r4, #24]
 800a2da:	f001 fc3f 	bl	800bb5c <delay_us>
 800a2de:	2001      	movs	r0, #1
 800a2e0:	61a6      	str	r6, [r4, #24]
 800a2e2:	f001 fc3b 	bl	800bb5c <delay_us>
 800a2e6:	2002      	movs	r0, #2
 800a2e8:	f001 fc38 	bl	800bb5c <delay_us>
 800a2ec:	3d01      	subs	r5, #1
 800a2ee:	d1fa      	bne.n	800a2e6 <JTAG_Program+0x106>
 800a2f0:	f108 0801 	add.w	r8, r8, #1
 800a2f4:	9b01      	ldr	r3, [sp, #4]
 800a2f6:	4543      	cmp	r3, r8
 800a2f8:	d183      	bne.n	800a202 <JTAG_Program+0x22>
 800a2fa:	b003      	add	sp, #12
 800a2fc:	e8bd 8ff0 	ldmia.w	sp!, {r4, r5, r6, r7, r8, r9, sl, fp, pc}
 800a300:	f44f 5300 	mov.w	r3, #8192	; 0x2000
 800a304:	e7c9      	b.n	800a29a <JTAG_Program+0xba>
 800a306:	bf00      	nop
 800a308:	40020000 	.word	0x40020000

0800a30c <JTAG_StartRead>:
 800a30c:	2000      	movs	r0, #0
 800a30e:	b510      	push	{r4, lr}
 800a310:	f7ff fda4 	bl	8009e5c <JTAG_SetAddress>
 800a314:	f240 2005 	movw	r0, #517	; 0x205
 800a318:	2406      	movs	r4, #6
 800a31a:	f7ff fc41 	bl	8009ba0 <JTAG_SIR.constprop.0>
 800a31e:	2002      	movs	r0, #2
 800a320:	f001 fc1c 	bl	800bb5c <delay_us>
 800a324:	3c01      	subs	r4, #1
 800a326:	d1fa      	bne.n	800a31e <JTAG_StartRead+0x12>
 800a328:	bd10      	pop	{r4, pc}
 800a32a:	bf00      	nop

0800a32c <JTAG_Verify>:
 800a32c:	e92d 4ff0 	stmdb	sp!, {r4, r5, r6, r7, r8, r9, sl, fp, lr}
 800a330:	b085      	sub	sp, #20
 800a332:	9001      	str	r0, [sp, #4]
 800a334:	9103      	str	r1, [sp, #12]
 800a336:	2900      	cmp	r1, #0
 800a338:	f000 8087 	beq.w	800a44a <JTAG_Verify+0x11e>
 800a33c:	f04f 0900 	mov.w	r9, #0
 800a340:	4c46      	ldr	r4, [pc, #280]	; (800a45c <JTAG_Verify+0x130>)
 800a342:	9b01      	ldr	r3, [sp, #4]
 800a344:	f44f 4600 	mov.w	r6, #32768	; 0x8000
 800a348:	f04f 4800 	mov.w	r8, #2147483648	; 0x80000000
 800a34c:	2001      	movs	r0, #1
 800a34e:	461a      	mov	r2, r3
 800a350:	2500      	movs	r5, #0
 800a352:	4637      	mov	r7, r6
 800a354:	f64f 7aff 	movw	sl, #65535	; 0xffff
 800a358:	f832 3b02 	ldrh.w	r3, [r2], #2
 800a35c:	46ab      	mov	fp, r5
 800a35e:	9302      	str	r3, [sp, #8]
 800a360:	f44f 6380 	mov.w	r3, #1024	; 0x400
 800a364:	9201      	str	r2, [sp, #4]
 800a366:	61a3      	str	r3, [r4, #24]
 800a368:	f001 fbf8 	bl	800bb5c <delay_us>
 800a36c:	2001      	movs	r0, #1
 800a36e:	61a6      	str	r6, [r4, #24]
 800a370:	f001 fbf4 	bl	800bb5c <delay_us>
 800a374:	2001      	movs	r0, #1
 800a376:	f8c4 8018 	str.w	r8, [r4, #24]
 800a37a:	f001 fbef 	bl	800bb5c <delay_us>
 800a37e:	f04f 6380 	mov.w	r3, #67108864	; 0x4000000
 800a382:	2001      	movs	r0, #1
 800a384:	61a3      	str	r3, [r4, #24]
 800a386:	f001 fbe9 	bl	800bb5c <delay_us>
 800a38a:	2001      	movs	r0, #1
 800a38c:	61a6      	str	r6, [r4, #24]
 800a38e:	f001 fbe5 	bl	800bb5c <delay_us>
 800a392:	2001      	movs	r0, #1
 800a394:	f8c4 8018 	str.w	r8, [r4, #24]
 800a398:	f001 fbe0 	bl	800bb5c <delay_us>
 800a39c:	2001      	movs	r0, #1
 800a39e:	f001 fbdd 	bl	800bb5c <delay_us>
 800a3a2:	2001      	movs	r0, #1
 800a3a4:	61a6      	str	r6, [r4, #24]
 800a3a6:	f001 fbd9 	bl	800bb5c <delay_us>
 800a3aa:	2001      	movs	r0, #1
 800a3ac:	f8c4 8018 	str.w	r8, [r4, #24]
 800a3b0:	f001 fbd4 	bl	800bb5c <delay_us>
 800a3b4:	6923      	ldr	r3, [r4, #16]
 800a3b6:	f01a 0f01 	tst.w	sl, #1
 800a3ba:	f04f 0001 	mov.w	r0, #1
 800a3be:	f04f 4600 	mov.w	r6, #2147483648	; 0x80000000
 800a3c2:	f3c3 3380 	ubfx	r3, r3, #14, #1
 800a3c6:	bf14      	ite	ne
 800a3c8:	f44f 5200 	movne.w	r2, #8192	; 0x2000
 800a3cc:	f04f 5200 	moveq.w	r2, #536870912	; 0x20000000
 800a3d0:	fa2a fa00 	lsr.w	sl, sl, r0
 800a3d4:	fa03 f30b 	lsl.w	r3, r3, fp
 800a3d8:	4483      	add	fp, r0
 800a3da:	61a2      	str	r2, [r4, #24]
 800a3dc:	431d      	orrs	r5, r3
 800a3de:	f001 fbbd 	bl	800bb5c <delay_us>
 800a3e2:	2001      	movs	r0, #1
 800a3e4:	61a7      	str	r7, [r4, #24]
 800a3e6:	f001 fbb9 	bl	800bb5c <delay_us>
 800a3ea:	2001      	movs	r0, #1
 800a3ec:	61a6      	str	r6, [r4, #24]
 800a3ee:	f001 fbb5 	bl	800bb5c <delay_us>
 800a3f2:	f1bb 0f10 	cmp.w	fp, #16
 800a3f6:	d006      	beq.n	800a406 <JTAG_Verify+0xda>
 800a3f8:	f1bb 0f0f 	cmp.w	fp, #15
 800a3fc:	d1da      	bne.n	800a3b4 <JTAG_Verify+0x88>
 800a3fe:	f44f 6380 	mov.w	r3, #1024	; 0x400
 800a402:	61a3      	str	r3, [r4, #24]
 800a404:	e7d6      	b.n	800a3b4 <JTAG_Verify+0x88>
 800a406:	2001      	movs	r0, #1
 800a408:	f001 fba8 	bl	800bb5c <delay_us>
 800a40c:	2001      	movs	r0, #1
 800a40e:	61a7      	str	r7, [r4, #24]
 800a410:	f001 fba4 	bl	800bb5c <delay_us>
 800a414:	2001      	movs	r0, #1
 800a416:	61a6      	str	r6, [r4, #24]
 800a418:	f001 fba0 	bl	800bb5c <delay_us>
 800a41c:	f04f 6380 	mov.w	r3, #67108864	; 0x4000000
 800a420:	2001      	movs	r0, #1
 800a422:	61a3      	str	r3, [r4, #24]
 800a424:	f001 fb9a 	bl	800bb5c <delay_us>
 800a428:	2001      	movs	r0, #1
 800a42a:	61a7      	str	r7, [r4, #24]
 800a42c:	f001 fb96 	bl	800bb5c <delay_us>
 800a430:	2001      	movs	r0, #1
 800a432:	61a6      	str	r6, [r4, #24]
 800a434:	f001 fb92 	bl	800bb5c <delay_us>
 800a438:	9b02      	ldr	r3, [sp, #8]
 800a43a:	42ab      	cmp	r3, r5
 800a43c:	d109      	bne.n	800a452 <JTAG_Verify+0x126>
 800a43e:	f109 0901 	add.w	r9, r9, #1
 800a442:	9b03      	ldr	r3, [sp, #12]
 800a444:	454b      	cmp	r3, r9
 800a446:	f47f af7c 	bne.w	800a342 <JTAG_Verify+0x16>
 800a44a:	2000      	movs	r0, #0
 800a44c:	b005      	add	sp, #20
 800a44e:	e8bd 8ff0 	ldmia.w	sp!, {r4, r5, r6, r7, r8, r9, sl, fp, pc}
 800a452:	2001      	movs	r0, #1
 800a454:	b005      	add	sp, #20
 800a456:	e8bd 8ff0 	ldmia.w	sp!, {r4, r5, r6, r7, r8, r9, sl, fp, pc}
 800a45a:	bf00      	nop
 800a45c:	40020000 	.word	0x40020000

0800a460 <JTAG_ProgramDone>:
 800a460:	2000      	movs	r0, #0
 800a462:	b510      	push	{r4, lr}
 800a464:	f7ff fcfa 	bl	8009e5c <JTAG_SetAddress>
 800a468:	f44f 703d 	mov.w	r0, #756	; 0x2f4
 800a46c:	2406      	movs	r4, #6
 800a46e:	f7ff fb97 	bl	8009ba0 <JTAG_SIR.constprop.0>
 800a472:	2002      	movs	r0, #2
 800a474:	f001 fb72 	bl	800bb5c <delay_us>
 800a478:	3c01      	subs	r4, #1
 800a47a:	d1fa      	bne.n	800a472 <JTAG_ProgramDone+0x12>
 800a47c:	f647 30ff 	movw	r0, #31743	; 0x7bff
 800a480:	2432      	movs	r4, #50	; 0x32
 800a482:	f7ff fc1f 	bl	8009cc4 <JTAG_SDR.constprop.2>
 800a486:	2002      	movs	r0, #2
 800a488:	f001 fb68 	bl	800bb5c <delay_us>
 800a48c:	3c01      	subs	r4, #1
 800a48e:	d1fa      	bne.n	800a486 <JTAG_ProgramDone+0x26>
 800a490:	f64f 70ff 	movw	r0, #65535	; 0xffff
 800a494:	2432      	movs	r4, #50	; 0x32
 800a496:	f7ff fc15 	bl	8009cc4 <JTAG_SDR.constprop.2>
 800a49a:	2002      	movs	r0, #2
 800a49c:	f001 fb5e 	bl	800bb5c <delay_us>
 800a4a0:	3c01      	subs	r4, #1
 800a4a2:	d1fa      	bne.n	800a49a <JTAG_ProgramDone+0x3a>
 800a4a4:	f64b 70ff 	movw	r0, #49151	; 0xbfff
 800a4a8:	2432      	movs	r4, #50	; 0x32
 800a4aa:	f7ff fc0b 	bl	8009cc4 <JTAG_SDR.constprop.2>
 800a4ae:	2002      	movs	r0, #2
 800a4b0:	f001 fb54 	bl	800bb5c <delay_us>
 800a4b4:	3c01      	subs	r4, #1
 800a4b6:	d1fa      	bne.n	800a4ae <JTAG_ProgramDone+0x4e>
 800a4b8:	f64f 70ff 	movw	r0, #65535	; 0xffff
 800a4bc:	2432      	movs	r4, #50	; 0x32
 800a4be:	f7ff fc01 	bl	8009cc4 <JTAG_SDR.constprop.2>
 800a4c2:	2002      	movs	r0, #2
 800a4c4:	f001 fb4a 	bl	800bb5c <delay_us>
 800a4c8:	3c01      	subs	r4, #1
 800a4ca:	d1fa      	bne.n	800a4c2 <JTAG_ProgramDone+0x62>
 800a4cc:	bd10      	pop	{r4, pc}
 800a4ce:	bf00      	nop

0800a4d0 <setLED>:
 800a4d0:	4a04      	ldr	r2, [pc, #16]	; (800a4e4 <setLED+0x14>)
 800a4d2:	f080 0007 	eor.w	r0, r0, #7
 800a4d6:	6953      	ldr	r3, [r2, #20]
 800a4d8:	f3c3 030c 	ubfx	r3, r3, #0, #13
 800a4dc:	ea43 3340 	orr.w	r3, r3, r0, lsl #13
 800a4e0:	6153      	str	r3, [r2, #20]
 800a4e2:	4770      	bx	lr
 800a4e4:	40020800 	.word	0x40020800

0800a4e8 <blink_code>:
 800a4e8:	b570      	push	{r4, r5, r6, lr}
 800a4ea:	4d11      	ldr	r5, [pc, #68]	; (800a530 <blink_code+0x48>)
 800a4ec:	1f06      	subs	r6, r0, #4
 800a4ee:	f100 0408 	add.w	r4, r0, #8
 800a4f2:	f856 2f04 	ldr.w	r2, [r6, #4]!
 800a4f6:	20fa      	movs	r0, #250	; 0xfa
 800a4f8:	696b      	ldr	r3, [r5, #20]
 800a4fa:	f082 0207 	eor.w	r2, r2, #7
 800a4fe:	f3c3 030c 	ubfx	r3, r3, #0, #13
 800a502:	b2d2      	uxtb	r2, r2
 800a504:	ea43 3342 	orr.w	r3, r3, r2, lsl #13
 800a508:	616b      	str	r3, [r5, #20]
 800a50a:	f7fa f967 	bl	80047dc <LL_mDelay>
 800a50e:	696b      	ldr	r3, [r5, #20]
 800a510:	20fa      	movs	r0, #250	; 0xfa
 800a512:	f3c3 030c 	ubfx	r3, r3, #0, #13
 800a516:	f443 4360 	orr.w	r3, r3, #57344	; 0xe000
 800a51a:	616b      	str	r3, [r5, #20]
 800a51c:	f7fa f95e 	bl	80047dc <LL_mDelay>
 800a520:	42b4      	cmp	r4, r6
 800a522:	d1e6      	bne.n	800a4f2 <blink_code+0xa>
 800a524:	f240 20ee 	movw	r0, #750	; 0x2ee
 800a528:	e8bd 4070 	ldmia.w	sp!, {r4, r5, r6, lr}
 800a52c:	f7fa b956 	b.w	80047dc <LL_mDelay>
 800a530:	40020800 	.word	0x40020800

0800a534 <main>:
 800a534:	e92d 4ff0 	stmdb	sp!, {r4, r5, r6, r7, r8, r9, sl, fp, lr}
 800a538:	4caf      	ldr	r4, [pc, #700]	; (800a7f8 <main+0x2c4>)
 800a53a:	b08d      	sub	sp, #52	; 0x34
 800a53c:	f7f9 feee 	bl	800431c <HAL_Init>
 800a540:	4dae      	ldr	r5, [pc, #696]	; (800a7fc <main+0x2c8>)
 800a542:	f7ff f937 	bl	80097b4 <SystemClock_Config>
 800a546:	2600      	movs	r6, #0
 800a548:	f7ff f9e8 	bl	800991c <MX_GPIO_Init>
 800a54c:	4fac      	ldr	r7, [pc, #688]	; (800a800 <main+0x2cc>)
 800a54e:	f7ff faad 	bl	8009aac <MX_I2S1_Init>
 800a552:	f7ff facf 	bl	8009af4 <MX_SPI2_Init>
 800a556:	f7fe fddb 	bl	8009110 <MX_FATFS_Init>
 800a55a:	6b63      	ldr	r3, [r4, #52]	; 0x34
 800a55c:	60ae      	str	r6, [r5, #8]
 800a55e:	f44f 2100 	mov.w	r1, #524288	; 0x80000
 800a562:	f043 0380 	orr.w	r3, r3, #128	; 0x80
 800a566:	612e      	str	r6, [r5, #16]
 800a568:	4aa6      	ldr	r2, [pc, #664]	; (800a804 <main+0x2d0>)
 800a56a:	4628      	mov	r0, r5
 800a56c:	6363      	str	r3, [r4, #52]	; 0x34
 800a56e:	6b63      	ldr	r3, [r4, #52]	; 0x34
 800a570:	616e      	str	r6, [r5, #20]
 800a572:	f003 0380 	and.w	r3, r3, #128	; 0x80
 800a576:	9303      	str	r3, [sp, #12]
 800a578:	9b03      	ldr	r3, [sp, #12]
 800a57a:	6c63      	ldr	r3, [r4, #68]	; 0x44
 800a57c:	f443 4380 	orr.w	r3, r3, #16384	; 0x4000
 800a580:	6463      	str	r3, [r4, #68]	; 0x44
 800a582:	6c63      	ldr	r3, [r4, #68]	; 0x44
 800a584:	f403 4380 	and.w	r3, r3, #16384	; 0x4000
 800a588:	9304      	str	r3, [sp, #16]
 800a58a:	9b04      	ldr	r3, [sp, #16]
 800a58c:	6191      	str	r1, [r2, #24]
 800a58e:	2160      	movs	r1, #96	; 0x60
 800a590:	6c23      	ldr	r3, [r4, #64]	; 0x40
 800a592:	f04f 4280 	mov.w	r2, #1073741824	; 0x40000000
 800a596:	6069      	str	r1, [r5, #4]
 800a598:	f043 0301 	orr.w	r3, r3, #1
 800a59c:	6423      	str	r3, [r4, #64]	; 0x40
 800a59e:	6c23      	ldr	r3, [r4, #64]	; 0x40
 800a5a0:	602a      	str	r2, [r5, #0]
 800a5a2:	f003 0301 	and.w	r3, r3, #1
 800a5a6:	4a98      	ldr	r2, [pc, #608]	; (800a808 <main+0x2d4>)
 800a5a8:	9305      	str	r3, [sp, #20]
 800a5aa:	9b05      	ldr	r3, [sp, #20]
 800a5ac:	60ea      	str	r2, [r5, #12]
 800a5ae:	f7f9 ff4f 	bl	8004450 <HAL_TIM_Base_Init>
 800a5b2:	4628      	mov	r0, r5
 800a5b4:	f7f9 ffe0 	bl	8004578 <HAL_TIM_Base_Start>
 800a5b8:	6b23      	ldr	r3, [r4, #48]	; 0x30
 800a5ba:	f44f 4270 	mov.w	r2, #61440	; 0xf000
 800a5be:	f443 4380 	orr.w	r3, r3, #16384	; 0x4000
 800a5c2:	6323      	str	r3, [r4, #48]	; 0x30
 800a5c4:	6b23      	ldr	r3, [r4, #48]	; 0x30
 800a5c6:	f403 4380 	and.w	r3, r3, #16384	; 0x4000
 800a5ca:	9306      	str	r3, [sp, #24]
 800a5cc:	9b06      	ldr	r3, [sp, #24]
 800a5ce:	68fb      	ldr	r3, [r7, #12]
 800a5d0:	fa92 f2a2 	rbit	r2, r2
 800a5d4:	2102      	movs	r1, #2
 800a5d6:	fab2 f282 	clz	r2, r2
 800a5da:	f423 4370 	bic.w	r3, r3, #61440	; 0xf000
 800a5de:	2501      	movs	r5, #1
 800a5e0:	fa01 f202 	lsl.w	r2, r1, r2
 800a5e4:	2480      	movs	r4, #128	; 0x80
 800a5e6:	a808      	add	r0, sp, #32
 800a5e8:	4313      	orrs	r3, r2
 800a5ea:	60fb      	str	r3, [r7, #12]
 800a5ec:	9408      	str	r4, [sp, #32]
 800a5ee:	f8ad 5024 	strh.w	r5, [sp, #36]	; 0x24
 800a5f2:	f88d 5026 	strb.w	r5, [sp, #38]	; 0x26
 800a5f6:	f7f9 ffdb 	bl	80045b0 <LL_EXTI_Init>
 800a5fa:	693b      	ldr	r3, [r7, #16]
 800a5fc:	220f      	movs	r2, #15
 800a5fe:	f023 030f 	bic.w	r3, r3, #15
 800a602:	fa92 f2a2 	rbit	r2, r2
 800a606:	f44f 7280 	mov.w	r2, #256	; 0x100
 800a60a:	613b      	str	r3, [r7, #16]
 800a60c:	a80a      	add	r0, sp, #40	; 0x28
 800a60e:	f8ad 502c 	strh.w	r5, [sp, #44]	; 0x2c
 800a612:	920a      	str	r2, [sp, #40]	; 0x28
 800a614:	2403      	movs	r4, #3
 800a616:	f88d 502e 	strb.w	r5, [sp, #46]	; 0x2e
 800a61a:	f7f9 ffc9 	bl	80045b0 <LL_EXTI_Init>
 800a61e:	4b7b      	ldr	r3, [pc, #492]	; (800a80c <main+0x2d8>)
 800a620:	f44f 0100 	mov.w	r1, #8388608	; 0x800000
 800a624:	f04f 6200 	mov.w	r2, #134217728	; 0x8000000
 800a628:	f883 6317 	strb.w	r6, [r3, #791]	; 0x317
 800a62c:	6019      	str	r1, [r3, #0]
 800a62e:	f883 633b 	strb.w	r6, [r3, #827]	; 0x33b
 800a632:	605a      	str	r2, [r3, #4]
 800a634:	f7fd fd18 	bl	8008068 <CDDA_Stop>
 800a638:	4628      	mov	r0, r5
 800a63a:	f001 f9f7 	bl	800ba2c <SetMode>
 800a63e:	2002      	movs	r0, #2
 800a640:	f7ff ff46 	bl	800a4d0 <setLED>
 800a644:	204b      	movs	r0, #75	; 0x4b
 800a646:	f7fa f8c9 	bl	80047dc <LL_mDelay>
 800a64a:	2000      	movs	r0, #0
 800a64c:	f7ff ff40 	bl	800a4d0 <setLED>
 800a650:	204b      	movs	r0, #75	; 0x4b
 800a652:	f7fa f8c3 	bl	80047dc <LL_mDelay>
 800a656:	3c01      	subs	r4, #1
 800a658:	d1f1      	bne.n	800a63e <main+0x10a>
 800a65a:	4621      	mov	r1, r4
 800a65c:	486c      	ldr	r0, [pc, #432]	; (800a810 <main+0x2dc>)
 800a65e:	f7ff f829 	bl	80096b4 <ReadMem>
 800a662:	f246 030d 	movw	r3, #24589	; 0x600d
 800a666:	4298      	cmp	r0, r3
 800a668:	f000 80fe 	beq.w	800a868 <main+0x334>
 800a66c:	f000 fa1c 	bl	800aaa8 <SD_Init>
 800a670:	2201      	movs	r2, #1
 800a672:	4968      	ldr	r1, [pc, #416]	; (800a814 <main+0x2e0>)
 800a674:	4868      	ldr	r0, [pc, #416]	; (800a818 <main+0x2e4>)
 800a676:	f7fc fbfd 	bl	8006e74 <f_mount>
 800a67a:	f000 ff79 	bl	800b570 <DoUpdate>
 800a67e:	2800      	cmp	r0, #0
 800a680:	f040 8102 	bne.w	800a888 <main+0x354>
 800a684:	4d65      	ldr	r5, [pc, #404]	; (800a81c <main+0x2e8>)
 800a686:	f7fe fb05 	bl	8008c94 <SetRunLoader>
 800a68a:	f8df b1cc 	ldr.w	fp, [pc, #460]	; 800a858 <main+0x324>
 800a68e:	692a      	ldr	r2, [r5, #16]
 800a690:	f8db 3000 	ldr.w	r3, [fp]
 800a694:	43d2      	mvns	r2, r2
 800a696:	4f62      	ldr	r7, [pc, #392]	; (800a820 <main+0x2ec>)
 800a698:	f8df a1c0 	ldr.w	sl, [pc, #448]	; 800a85c <main+0x328>
 800a69c:	f002 0201 	and.w	r2, r2, #1
 800a6a0:	f8df 91bc 	ldr.w	r9, [pc, #444]	; 800a860 <main+0x32c>
 800a6a4:	4e5f      	ldr	r6, [pc, #380]	; (800a824 <main+0x2f0>)
 800a6a6:	f8df 81bc 	ldr.w	r8, [pc, #444]	; 800a864 <main+0x330>
 800a6aa:	692c      	ldr	r4, [r5, #16]
 800a6ac:	43e4      	mvns	r4, r4
 800a6ae:	f004 0401 	and.w	r4, r4, #1
 800a6b2:	4294      	cmp	r4, r2
 800a6b4:	703c      	strb	r4, [r7, #0]
 800a6b6:	d005      	beq.n	800a6c4 <main+0x190>
 800a6b8:	2100      	movs	r1, #0
 800a6ba:	2201      	movs	r2, #1
 800a6bc:	f88a 1000 	strb.w	r1, [sl]
 800a6c0:	f889 2000 	strb.w	r2, [r9]
 800a6c4:	b9c3      	cbnz	r3, 800a6f8 <main+0x1c4>
 800a6c6:	6832      	ldr	r2, [r6, #0]
 800a6c8:	9301      	str	r3, [sp, #4]
 800a6ca:	b16a      	cbz	r2, 800a6e8 <main+0x1b4>
 800a6cc:	4a56      	ldr	r2, [pc, #344]	; (800a828 <main+0x2f4>)
 800a6ce:	f44f 5100 	mov.w	r1, #8192	; 0x2000
 800a6d2:	f8d6 c000 	ldr.w	ip, [r6]
 800a6d6:	1850      	adds	r0, r2, r1
 800a6d8:	f1bc 0f01 	cmp.w	ip, #1
 800a6dc:	bf08      	it	eq
 800a6de:	4610      	moveq	r0, r2
 800a6e0:	f7fd fccc 	bl	800807c <CDDA_Refill>
 800a6e4:	9b01      	ldr	r3, [sp, #4]
 800a6e6:	6033      	str	r3, [r6, #0]
 800a6e8:	f8d8 3000 	ldr.w	r3, [r8]
 800a6ec:	b94b      	cbnz	r3, 800a702 <main+0x1ce>
 800a6ee:	4b4f      	ldr	r3, [pc, #316]	; (800a82c <main+0x2f8>)
 800a6f0:	681b      	ldr	r3, [r3, #0]
 800a6f2:	b91b      	cbnz	r3, 800a6fc <main+0x1c8>
 800a6f4:	f8db 3000 	ldr.w	r3, [fp]
 800a6f8:	4622      	mov	r2, r4
 800a6fa:	e7d6      	b.n	800a6aa <main+0x176>
 800a6fc:	f7fd fe52 	bl	80083a4 <ExecCmd>
 800a700:	e7f8      	b.n	800a6f4 <main+0x1c0>
 800a702:	f7fe fa4f 	bl	8008ba4 <ReadCPLDData>
 800a706:	4b4a      	ldr	r3, [pc, #296]	; (800a830 <main+0x2fc>)
 800a708:	681b      	ldr	r3, [r3, #0]
 800a70a:	b1f3      	cbz	r3, 800a74a <main+0x216>
 800a70c:	4b49      	ldr	r3, [pc, #292]	; (800a834 <main+0x300>)
 800a70e:	4a4a      	ldr	r2, [pc, #296]	; (800a838 <main+0x304>)
 800a710:	681b      	ldr	r3, [r3, #0]
 800a712:	6812      	ldr	r2, [r2, #0]
 800a714:	4293      	cmp	r3, r2
 800a716:	d210      	bcs.n	800a73a <main+0x206>
 800a718:	4948      	ldr	r1, [pc, #288]	; (800a83c <main+0x308>)
 800a71a:	3301      	adds	r3, #1
 800a71c:	f8d1 c000 	ldr.w	ip, [r1]
 800a720:	4944      	ldr	r1, [pc, #272]	; (800a834 <main+0x300>)
 800a722:	f10c 0e01 	add.w	lr, ip, #1
 800a726:	600b      	str	r3, [r1, #0]
 800a728:	4945      	ldr	r1, [pc, #276]	; (800a840 <main+0x30c>)
 800a72a:	f5be 7f80 	cmp.w	lr, #256	; 0x100
 800a72e:	f821 001c 	strh.w	r0, [r1, ip, lsl #1]
 800a732:	4942      	ldr	r1, [pc, #264]	; (800a83c <main+0x308>)
 800a734:	f8c1 e000 	str.w	lr, [r1]
 800a738:	d03a      	beq.n	800a7b0 <main+0x27c>
 800a73a:	429a      	cmp	r2, r3
 800a73c:	d012      	beq.n	800a764 <main+0x230>
 800a73e:	2300      	movs	r3, #0
 800a740:	f8c8 3000 	str.w	r3, [r8]
 800a744:	f7fe fa16 	bl	8008b74 <TickMCUCLK>
 800a748:	e7d1      	b.n	800a6ee <main+0x1ba>
 800a74a:	4a3e      	ldr	r2, [pc, #248]	; (800a844 <main+0x310>)
 800a74c:	6813      	ldr	r3, [r2, #0]
 800a74e:	2b3f      	cmp	r3, #63	; 0x3f
 800a750:	d8f5      	bhi.n	800a73e <main+0x20a>
 800a752:	6813      	ldr	r3, [r2, #0]
 800a754:	f3c0 2007 	ubfx	r0, r0, #8, #8
 800a758:	4413      	add	r3, r2
 800a75a:	7118      	strb	r0, [r3, #4]
 800a75c:	6813      	ldr	r3, [r2, #0]
 800a75e:	3301      	adds	r3, #1
 800a760:	6013      	str	r3, [r2, #0]
 800a762:	e7ec      	b.n	800a73e <main+0x20a>
 800a764:	4b35      	ldr	r3, [pc, #212]	; (800a83c <main+0x308>)
 800a766:	2200      	movs	r2, #0
 800a768:	4931      	ldr	r1, [pc, #196]	; (800a830 <main+0x2fc>)
 800a76a:	681b      	ldr	r3, [r3, #0]
 800a76c:	600a      	str	r2, [r1, #0]
 800a76e:	2b00      	cmp	r3, #0
 800a770:	d0e5      	beq.n	800a73e <main+0x20a>
 800a772:	4b35      	ldr	r3, [pc, #212]	; (800a848 <main+0x314>)
 800a774:	7818      	ldrb	r0, [r3, #0]
 800a776:	f7ff feab 	bl	800a4d0 <setLED>
 800a77a:	4b30      	ldr	r3, [pc, #192]	; (800a83c <main+0x308>)
 800a77c:	a907      	add	r1, sp, #28
 800a77e:	4833      	ldr	r0, [pc, #204]	; (800a84c <main+0x318>)
 800a780:	681a      	ldr	r2, [r3, #0]
 800a782:	460b      	mov	r3, r1
 800a784:	492e      	ldr	r1, [pc, #184]	; (800a840 <main+0x30c>)
 800a786:	0052      	lsls	r2, r2, #1
 800a788:	f7fc fef0 	bl	800756c <f_write>
 800a78c:	4b2b      	ldr	r3, [pc, #172]	; (800a83c <main+0x308>)
 800a78e:	681a      	ldr	r2, [r3, #0]
 800a790:	9b07      	ldr	r3, [sp, #28]
 800a792:	ebb3 0f42 	cmp.w	r3, r2, lsl #1
 800a796:	d100      	bne.n	800a79a <main+0x266>
 800a798:	b110      	cbz	r0, 800a7a0 <main+0x26c>
 800a79a:	2301      	movs	r3, #1
 800a79c:	4a2c      	ldr	r2, [pc, #176]	; (800a850 <main+0x31c>)
 800a79e:	6013      	str	r3, [r2, #0]
 800a7a0:	4a2c      	ldr	r2, [pc, #176]	; (800a854 <main+0x320>)
 800a7a2:	2300      	movs	r3, #0
 800a7a4:	7810      	ldrb	r0, [r2, #0]
 800a7a6:	4a25      	ldr	r2, [pc, #148]	; (800a83c <main+0x308>)
 800a7a8:	6013      	str	r3, [r2, #0]
 800a7aa:	f7ff fe91 	bl	800a4d0 <setLED>
 800a7ae:	e7c6      	b.n	800a73e <main+0x20a>
 800a7b0:	4b25      	ldr	r3, [pc, #148]	; (800a848 <main+0x314>)
 800a7b2:	7818      	ldrb	r0, [r3, #0]
 800a7b4:	f7ff fe8c 	bl	800a4d0 <setLED>
 800a7b8:	4b20      	ldr	r3, [pc, #128]	; (800a83c <main+0x308>)
 800a7ba:	a907      	add	r1, sp, #28
 800a7bc:	4823      	ldr	r0, [pc, #140]	; (800a84c <main+0x318>)
 800a7be:	681a      	ldr	r2, [r3, #0]
 800a7c0:	460b      	mov	r3, r1
 800a7c2:	491f      	ldr	r1, [pc, #124]	; (800a840 <main+0x30c>)
 800a7c4:	0052      	lsls	r2, r2, #1
 800a7c6:	f7fc fed1 	bl	800756c <f_write>
 800a7ca:	4b1c      	ldr	r3, [pc, #112]	; (800a83c <main+0x308>)
 800a7cc:	681a      	ldr	r2, [r3, #0]
 800a7ce:	9b07      	ldr	r3, [sp, #28]
 800a7d0:	ebb3 0f42 	cmp.w	r3, r2, lsl #1
 800a7d4:	d100      	bne.n	800a7d8 <main+0x2a4>
 800a7d6:	b110      	cbz	r0, 800a7de <main+0x2aa>
 800a7d8:	2301      	movs	r3, #1
 800a7da:	4a1d      	ldr	r2, [pc, #116]	; (800a850 <main+0x31c>)
 800a7dc:	6013      	str	r3, [r2, #0]
 800a7de:	4a1d      	ldr	r2, [pc, #116]	; (800a854 <main+0x320>)
 800a7e0:	2300      	movs	r3, #0
 800a7e2:	7810      	ldrb	r0, [r2, #0]
 800a7e4:	4a15      	ldr	r2, [pc, #84]	; (800a83c <main+0x308>)
 800a7e6:	6013      	str	r3, [r2, #0]
 800a7e8:	f7ff fe72 	bl	800a4d0 <setLED>
 800a7ec:	4b11      	ldr	r3, [pc, #68]	; (800a834 <main+0x300>)
 800a7ee:	4a12      	ldr	r2, [pc, #72]	; (800a838 <main+0x304>)
 800a7f0:	681b      	ldr	r3, [r3, #0]
 800a7f2:	6812      	ldr	r2, [r2, #0]
 800a7f4:	e7a1      	b.n	800a73a <main+0x206>
 800a7f6:	bf00      	nop
 800a7f8:	40023800 	.word	0x40023800
 800a7fc:	2001530c 	.word	0x2001530c
 800a800:	40013800 	.word	0x40013800
 800a804:	40020800 	.word	0x40020800
 800a808:	000186a0 	.word	0x000186a0
 800a80c:	e000e100 	.word	0xe000e100
 800a810:	0003ffff 	.word	0x0003ffff
 800a814:	0800cf88 	.word	0x0800cf88
 800a818:	20005030 	.word	0x20005030
 800a81c:	40020000 	.word	0x40020000
 800a820:	20000361 	.word	0x20000361
 800a824:	20000354 	.word	0x20000354
 800a828:	200005b4 	.word	0x200005b4
 800a82c:	20000350 	.word	0x20000350
 800a830:	20000368 	.word	0x20000368
 800a834:	2000036c 	.word	0x2000036c
 800a838:	20000370 	.word	0x20000370
 800a83c:	200152ec 	.word	0x200152ec
 800a840:	20004e30 	.word	0x20004e30
 800a844:	200002e4 	.word	0x200002e4
 800a848:	20000009 	.word	0x20000009
 800a84c:	200087ac 	.word	0x200087ac
 800a850:	20000364 	.word	0x20000364
 800a854:	20000008 	.word	0x20000008
 800a858:	20000344 	.word	0x20000344
 800a85c:	2000032c 	.word	0x2000032c
 800a860:	20000360 	.word	0x20000360
 800a864:	2000034c 	.word	0x2000034c
 800a868:	4621      	mov	r1, r4
 800a86a:	f44f 4048 	mov.w	r0, #51200	; 0xc800
 800a86e:	f7fe ff21 	bl	80096b4 <ReadMem>
 800a872:	2809      	cmp	r0, #9
 800a874:	f47f aefa 	bne.w	800a66c <main+0x138>
 800a878:	2007      	movs	r0, #7
 800a87a:	f7ff fb83 	bl	8009f84 <JTAG_Code>
 800a87e:	4b06      	ldr	r3, [pc, #24]	; (800a898 <main+0x364>)
 800a880:	4298      	cmp	r0, r3
 800a882:	f47f aef3 	bne.w	800a66c <main+0x138>
 800a886:	e6fd      	b.n	800a684 <main+0x150>
 800a888:	2100      	movs	r1, #0
 800a88a:	4608      	mov	r0, r1
 800a88c:	f7fe fa2e 	bl	8008cec <SetRunStock>
 800a890:	4b02      	ldr	r3, [pc, #8]	; (800a89c <main+0x368>)
 800a892:	2208      	movs	r2, #8
 800a894:	619a      	str	r2, [r3, #24]
 800a896:	e7fe      	b.n	800a896 <main+0x362>
 800a898:	600d0003 	.word	0x600d0003
 800a89c:	40020800 	.word	0x40020800

0800a8a0 <Error_Handler>:
 800a8a0:	4770      	bx	lr
 800a8a2:	bf00      	nop

0800a8a4 <SPI_Send>:
 800a8a4:	4b05      	ldr	r3, [pc, #20]	; (800a8bc <SPI_Send+0x18>)
 800a8a6:	689a      	ldr	r2, [r3, #8]
 800a8a8:	0792      	lsls	r2, r2, #30
 800a8aa:	d5fc      	bpl.n	800a8a6 <SPI_Send+0x2>
 800a8ac:	4a03      	ldr	r2, [pc, #12]	; (800a8bc <SPI_Send+0x18>)
 800a8ae:	7318      	strb	r0, [r3, #12]
 800a8b0:	6893      	ldr	r3, [r2, #8]
 800a8b2:	07db      	lsls	r3, r3, #31
 800a8b4:	d5fc      	bpl.n	800a8b0 <SPI_Send+0xc>
 800a8b6:	68d0      	ldr	r0, [r2, #12]
 800a8b8:	b2c0      	uxtb	r0, r0
 800a8ba:	4770      	bx	lr
 800a8bc:	40003800 	.word	0x40003800

0800a8c0 <SD_WaitNotBusy>:
 800a8c0:	b5f8      	push	{r3, r4, r5, r6, r7, lr}
 800a8c2:	4b12      	ldr	r3, [pc, #72]	; (800a90c <SD_WaitNotBusy+0x4c>)
 800a8c4:	4606      	mov	r6, r0
 800a8c6:	689a      	ldr	r2, [r3, #8]
 800a8c8:	0790      	lsls	r0, r2, #30
 800a8ca:	d5fc      	bpl.n	800a8c6 <SD_WaitNotBusy+0x6>
 800a8cc:	21ff      	movs	r1, #255	; 0xff
 800a8ce:	4a0f      	ldr	r2, [pc, #60]	; (800a90c <SD_WaitNotBusy+0x4c>)
 800a8d0:	7319      	strb	r1, [r3, #12]
 800a8d2:	6893      	ldr	r3, [r2, #8]
 800a8d4:	07d9      	lsls	r1, r3, #31
 800a8d6:	d5fc      	bpl.n	800a8d2 <SD_WaitNotBusy+0x12>
 800a8d8:	68d3      	ldr	r3, [r2, #12]
 800a8da:	b19e      	cbz	r6, 800a904 <SD_WaitNotBusy+0x44>
 800a8dc:	2500      	movs	r5, #0
 800a8de:	4c0b      	ldr	r4, [pc, #44]	; (800a90c <SD_WaitNotBusy+0x4c>)
 800a8e0:	27ff      	movs	r7, #255	; 0xff
 800a8e2:	68a3      	ldr	r3, [r4, #8]
 800a8e4:	079a      	lsls	r2, r3, #30
 800a8e6:	d5fc      	bpl.n	800a8e2 <SD_WaitNotBusy+0x22>
 800a8e8:	7327      	strb	r7, [r4, #12]
 800a8ea:	68a3      	ldr	r3, [r4, #8]
 800a8ec:	07db      	lsls	r3, r3, #31
 800a8ee:	d5fc      	bpl.n	800a8ea <SD_WaitNotBusy+0x2a>
 800a8f0:	68e3      	ldr	r3, [r4, #12]
 800a8f2:	b2db      	uxtb	r3, r3
 800a8f4:	2bff      	cmp	r3, #255	; 0xff
 800a8f6:	d007      	beq.n	800a908 <SD_WaitNotBusy+0x48>
 800a8f8:	3501      	adds	r5, #1
 800a8fa:	2001      	movs	r0, #1
 800a8fc:	f7f9 ff6e 	bl	80047dc <LL_mDelay>
 800a900:	42ae      	cmp	r6, r5
 800a902:	d1ee      	bne.n	800a8e2 <SD_WaitNotBusy+0x22>
 800a904:	2001      	movs	r0, #1
 800a906:	bdf8      	pop	{r3, r4, r5, r6, r7, pc}
 800a908:	2000      	movs	r0, #0
 800a90a:	bdf8      	pop	{r3, r4, r5, r6, r7, pc}
 800a90c:	40003800 	.word	0x40003800

0800a910 <SD_Cmd>:
 800a910:	e92d 41f0 	stmdb	sp!, {r4, r5, r6, r7, r8, lr}
 800a914:	4c61      	ldr	r4, [pc, #388]	; (800aa9c <SD_Cmd+0x18c>)
 800a916:	b082      	sub	sp, #8
 800a918:	4605      	mov	r5, r0
 800a91a:	460f      	mov	r7, r1
 800a91c:	68a3      	ldr	r3, [r4, #8]
 800a91e:	079b      	lsls	r3, r3, #30
 800a920:	d5fc      	bpl.n	800a91c <SD_Cmd+0xc>
 800a922:	23ff      	movs	r3, #255	; 0xff
 800a924:	4a5d      	ldr	r2, [pc, #372]	; (800aa9c <SD_Cmd+0x18c>)
 800a926:	7323      	strb	r3, [r4, #12]
 800a928:	6893      	ldr	r3, [r2, #8]
 800a92a:	07de      	lsls	r6, r3, #31
 800a92c:	d5fc      	bpl.n	800a928 <SD_Cmd+0x18>
 800a92e:	4b5c      	ldr	r3, [pc, #368]	; (800aaa0 <SD_Cmd+0x190>)
 800a930:	f44f 3180 	mov.w	r1, #65536	; 0x10000
 800a934:	2d0c      	cmp	r5, #12
 800a936:	68d2      	ldr	r2, [r2, #12]
 800a938:	6199      	str	r1, [r3, #24]
 800a93a:	d020      	beq.n	800a97e <SD_Cmd+0x6e>
 800a93c:	f5a3 33e8 	sub.w	r3, r3, #118784	; 0x1d000
 800a940:	689a      	ldr	r2, [r3, #8]
 800a942:	0794      	lsls	r4, r2, #30
 800a944:	d5fc      	bpl.n	800a940 <SD_Cmd+0x30>
 800a946:	21ff      	movs	r1, #255	; 0xff
 800a948:	4a54      	ldr	r2, [pc, #336]	; (800aa9c <SD_Cmd+0x18c>)
 800a94a:	7319      	strb	r1, [r3, #12]
 800a94c:	6893      	ldr	r3, [r2, #8]
 800a94e:	07d8      	lsls	r0, r3, #31
 800a950:	d5fc      	bpl.n	800a94c <SD_Cmd+0x3c>
 800a952:	68d3      	ldr	r3, [r2, #12]
 800a954:	f44f 7896 	mov.w	r8, #300	; 0x12c
 800a958:	4c50      	ldr	r4, [pc, #320]	; (800aa9c <SD_Cmd+0x18c>)
 800a95a:	26ff      	movs	r6, #255	; 0xff
 800a95c:	68a3      	ldr	r3, [r4, #8]
 800a95e:	0799      	lsls	r1, r3, #30
 800a960:	d5fc      	bpl.n	800a95c <SD_Cmd+0x4c>
 800a962:	7326      	strb	r6, [r4, #12]
 800a964:	68a3      	ldr	r3, [r4, #8]
 800a966:	07da      	lsls	r2, r3, #31
 800a968:	d5fc      	bpl.n	800a964 <SD_Cmd+0x54>
 800a96a:	68e3      	ldr	r3, [r4, #12]
 800a96c:	b2db      	uxtb	r3, r3
 800a96e:	2bff      	cmp	r3, #255	; 0xff
 800a970:	d005      	beq.n	800a97e <SD_Cmd+0x6e>
 800a972:	2001      	movs	r0, #1
 800a974:	f7f9 ff32 	bl	80047dc <LL_mDelay>
 800a978:	f1b8 0801 	subs.w	r8, r8, #1
 800a97c:	d1ee      	bne.n	800a95c <SD_Cmd+0x4c>
 800a97e:	0e3e      	lsrs	r6, r7, #24
 800a980:	f045 0340 	orr.w	r3, r5, #64	; 0x40
 800a984:	0c3a      	lsrs	r2, r7, #16
 800a986:	f88d 7004 	strb.w	r7, [sp, #4]
 800a98a:	0a39      	lsrs	r1, r7, #8
 800a98c:	f88d 6001 	strb.w	r6, [sp, #1]
 800a990:	f88d 2002 	strb.w	r2, [sp, #2]
 800a994:	466c      	mov	r4, sp
 800a996:	f10d 0705 	add.w	r7, sp, #5
 800a99a:	2000      	movs	r0, #0
 800a99c:	4e41      	ldr	r6, [pc, #260]	; (800aaa4 <SD_Cmd+0x194>)
 800a99e:	4a3f      	ldr	r2, [pc, #252]	; (800aa9c <SD_Cmd+0x18c>)
 800a9a0:	f88d 3000 	strb.w	r3, [sp]
 800a9a4:	f88d 1003 	strb.w	r1, [sp, #3]
 800a9a8:	f814 1b01 	ldrb.w	r1, [r4], #1
 800a9ac:	6893      	ldr	r3, [r2, #8]
 800a9ae:	079b      	lsls	r3, r3, #30
 800a9b0:	d5fc      	bpl.n	800a9ac <SD_Cmd+0x9c>
 800a9b2:	7311      	strb	r1, [r2, #12]
 800a9b4:	6893      	ldr	r3, [r2, #8]
 800a9b6:	07db      	lsls	r3, r3, #31
 800a9b8:	d5fc      	bpl.n	800a9b4 <SD_Cmd+0xa4>
 800a9ba:	ea81 0140 	eor.w	r1, r1, r0, lsl #1
 800a9be:	42bc      	cmp	r4, r7
 800a9c0:	68d3      	ldr	r3, [r2, #12]
 800a9c2:	5c70      	ldrb	r0, [r6, r1]
 800a9c4:	d1f0      	bne.n	800a9a8 <SD_Cmd+0x98>
 800a9c6:	0043      	lsls	r3, r0, #1
 800a9c8:	4934      	ldr	r1, [pc, #208]	; (800aa9c <SD_Cmd+0x18c>)
 800a9ca:	f043 0301 	orr.w	r3, r3, #1
 800a9ce:	b2db      	uxtb	r3, r3
 800a9d0:	688a      	ldr	r2, [r1, #8]
 800a9d2:	0796      	lsls	r6, r2, #30
 800a9d4:	d5fc      	bpl.n	800a9d0 <SD_Cmd+0xc0>
 800a9d6:	4a31      	ldr	r2, [pc, #196]	; (800aa9c <SD_Cmd+0x18c>)
 800a9d8:	730b      	strb	r3, [r1, #12]
 800a9da:	6893      	ldr	r3, [r2, #8]
 800a9dc:	07dc      	lsls	r4, r3, #31
 800a9de:	d5fc      	bpl.n	800a9da <SD_Cmd+0xca>
 800a9e0:	2d0c      	cmp	r5, #12
 800a9e2:	68d3      	ldr	r3, [r2, #12]
 800a9e4:	d03a      	beq.n	800aa5c <SD_Cmd+0x14c>
 800a9e6:	2114      	movs	r1, #20
 800a9e8:	4a2c      	ldr	r2, [pc, #176]	; (800aa9c <SD_Cmd+0x18c>)
 800a9ea:	24ff      	movs	r4, #255	; 0xff
 800a9ec:	6893      	ldr	r3, [r2, #8]
 800a9ee:	079b      	lsls	r3, r3, #30
 800a9f0:	d5fc      	bpl.n	800a9ec <SD_Cmd+0xdc>
 800a9f2:	7314      	strb	r4, [r2, #12]
 800a9f4:	6893      	ldr	r3, [r2, #8]
 800a9f6:	07df      	lsls	r7, r3, #31
 800a9f8:	d5fc      	bpl.n	800a9f4 <SD_Cmd+0xe4>
 800a9fa:	68d3      	ldr	r3, [r2, #12]
 800a9fc:	061e      	lsls	r6, r3, #24
 800a9fe:	b2d8      	uxtb	r0, r3
 800aa00:	d513      	bpl.n	800aa2a <SD_Cmd+0x11a>
 800aa02:	3901      	subs	r1, #1
 800aa04:	d1f2      	bne.n	800a9ec <SD_Cmd+0xdc>
 800aa06:	4a26      	ldr	r2, [pc, #152]	; (800aaa0 <SD_Cmd+0x190>)
 800aa08:	2101      	movs	r1, #1
 800aa0a:	4b24      	ldr	r3, [pc, #144]	; (800aa9c <SD_Cmd+0x18c>)
 800aa0c:	6191      	str	r1, [r2, #24]
 800aa0e:	689a      	ldr	r2, [r3, #8]
 800aa10:	0792      	lsls	r2, r2, #30
 800aa12:	d5fc      	bpl.n	800aa0e <SD_Cmd+0xfe>
 800aa14:	21ff      	movs	r1, #255	; 0xff
 800aa16:	4a21      	ldr	r2, [pc, #132]	; (800aa9c <SD_Cmd+0x18c>)
 800aa18:	7319      	strb	r1, [r3, #12]
 800aa1a:	6893      	ldr	r3, [r2, #8]
 800aa1c:	07df      	lsls	r7, r3, #31
 800aa1e:	d5fc      	bpl.n	800aa1a <SD_Cmd+0x10a>
 800aa20:	68d3      	ldr	r3, [r2, #12]
 800aa22:	20ff      	movs	r0, #255	; 0xff
 800aa24:	b002      	add	sp, #8
 800aa26:	e8bd 81f0 	ldmia.w	sp!, {r4, r5, r6, r7, r8, pc}
 800aa2a:	2d0c      	cmp	r5, #12
 800aa2c:	d022      	beq.n	800aa74 <SD_Cmd+0x164>
 800aa2e:	f1a5 0311 	sub.w	r3, r5, #17
 800aa32:	2b01      	cmp	r3, #1
 800aa34:	d9f6      	bls.n	800aa24 <SD_Cmd+0x114>
 800aa36:	2d18      	cmp	r5, #24
 800aa38:	d0f4      	beq.n	800aa24 <SD_Cmd+0x114>
 800aa3a:	4a19      	ldr	r2, [pc, #100]	; (800aaa0 <SD_Cmd+0x190>)
 800aa3c:	2101      	movs	r1, #1
 800aa3e:	4b17      	ldr	r3, [pc, #92]	; (800aa9c <SD_Cmd+0x18c>)
 800aa40:	6191      	str	r1, [r2, #24]
 800aa42:	689a      	ldr	r2, [r3, #8]
 800aa44:	0792      	lsls	r2, r2, #30
 800aa46:	d5fc      	bpl.n	800aa42 <SD_Cmd+0x132>
 800aa48:	21ff      	movs	r1, #255	; 0xff
 800aa4a:	4a14      	ldr	r2, [pc, #80]	; (800aa9c <SD_Cmd+0x18c>)
 800aa4c:	7319      	strb	r1, [r3, #12]
 800aa4e:	6893      	ldr	r3, [r2, #8]
 800aa50:	07db      	lsls	r3, r3, #31
 800aa52:	d5fc      	bpl.n	800aa4e <SD_Cmd+0x13e>
 800aa54:	68d3      	ldr	r3, [r2, #12]
 800aa56:	b002      	add	sp, #8
 800aa58:	e8bd 81f0 	ldmia.w	sp!, {r4, r5, r6, r7, r8, pc}
 800aa5c:	490f      	ldr	r1, [pc, #60]	; (800aa9c <SD_Cmd+0x18c>)
 800aa5e:	688b      	ldr	r3, [r1, #8]
 800aa60:	0798      	lsls	r0, r3, #30
 800aa62:	d5fc      	bpl.n	800aa5e <SD_Cmd+0x14e>
 800aa64:	23ff      	movs	r3, #255	; 0xff
 800aa66:	4a0d      	ldr	r2, [pc, #52]	; (800aa9c <SD_Cmd+0x18c>)
 800aa68:	730b      	strb	r3, [r1, #12]
 800aa6a:	6893      	ldr	r3, [r2, #8]
 800aa6c:	07d9      	lsls	r1, r3, #31
 800aa6e:	d5fc      	bpl.n	800aa6a <SD_Cmd+0x15a>
 800aa70:	68d3      	ldr	r3, [r2, #12]
 800aa72:	e7b8      	b.n	800a9e6 <SD_Cmd+0xd6>
 800aa74:	f644 6121 	movw	r1, #20001	; 0x4e21
 800aa78:	4a08      	ldr	r2, [pc, #32]	; (800aa9c <SD_Cmd+0x18c>)
 800aa7a:	24ff      	movs	r4, #255	; 0xff
 800aa7c:	6893      	ldr	r3, [r2, #8]
 800aa7e:	079e      	lsls	r6, r3, #30
 800aa80:	d5fc      	bpl.n	800aa7c <SD_Cmd+0x16c>
 800aa82:	7314      	strb	r4, [r2, #12]
 800aa84:	6893      	ldr	r3, [r2, #8]
 800aa86:	07dd      	lsls	r5, r3, #31
 800aa88:	d5fc      	bpl.n	800aa84 <SD_Cmd+0x174>
 800aa8a:	68d3      	ldr	r3, [r2, #12]
 800aa8c:	b2db      	uxtb	r3, r3
 800aa8e:	2bff      	cmp	r3, #255	; 0xff
 800aa90:	d0d3      	beq.n	800aa3a <SD_Cmd+0x12a>
 800aa92:	3901      	subs	r1, #1
 800aa94:	d1f2      	bne.n	800aa7c <SD_Cmd+0x16c>
 800aa96:	20ff      	movs	r0, #255	; 0xff
 800aa98:	e7c4      	b.n	800aa24 <SD_Cmd+0x114>
 800aa9a:	bf00      	nop
 800aa9c:	40003800 	.word	0x40003800
 800aaa0:	40020800 	.word	0x40020800
 800aaa4:	0800d02c 	.word	0x0800d02c

0800aaa8 <SD_Init>:
 800aaa8:	4b49      	ldr	r3, [pc, #292]	; (800abd0 <SD_Init+0x128>)
 800aaaa:	21ff      	movs	r1, #255	; 0xff
 800aaac:	6818      	ldr	r0, [r3, #0]
 800aaae:	461a      	mov	r2, r3
 800aab0:	e92d 4ff0 	stmdb	sp!, {r4, r5, r6, r7, r8, r9, sl, fp, lr}
 800aab4:	f040 0038 	orr.w	r0, r0, #56	; 0x38
 800aab8:	2601      	movs	r6, #1
 800aaba:	4c46      	ldr	r4, [pc, #280]	; (800abd4 <SD_Init+0x12c>)
 800aabc:	b085      	sub	sp, #20
 800aabe:	2564      	movs	r5, #100	; 0x64
 800aac0:	6018      	str	r0, [r3, #0]
 800aac2:	61a6      	str	r6, [r4, #24]
 800aac4:	6893      	ldr	r3, [r2, #8]
 800aac6:	079c      	lsls	r4, r3, #30
 800aac8:	d5fc      	bpl.n	800aac4 <SD_Init+0x1c>
 800aaca:	7311      	strb	r1, [r2, #12]
 800aacc:	6893      	ldr	r3, [r2, #8]
 800aace:	07d8      	lsls	r0, r3, #31
 800aad0:	d5fc      	bpl.n	800aacc <SD_Init+0x24>
 800aad2:	3d01      	subs	r5, #1
 800aad4:	68d3      	ldr	r3, [r2, #12]
 800aad6:	d1f5      	bne.n	800aac4 <SD_Init+0x1c>
 800aad8:	4b3e      	ldr	r3, [pc, #248]	; (800abd4 <SD_Init+0x12c>)
 800aada:	f44f 3280 	mov.w	r2, #65536	; 0x10000
 800aade:	f240 39e9 	movw	r9, #1001	; 0x3e9
 800aae2:	f10d 060d 	add.w	r6, sp, #13
 800aae6:	4f3c      	ldr	r7, [pc, #240]	; (800abd8 <SD_Init+0x130>)
 800aae8:	f04f 08ff 	mov.w	r8, #255	; 0xff
 800aaec:	4c38      	ldr	r4, [pc, #224]	; (800abd0 <SD_Init+0x128>)
 800aaee:	619a      	str	r2, [r3, #24]
 800aaf0:	68a3      	ldr	r3, [r4, #8]
 800aaf2:	0799      	lsls	r1, r3, #30
 800aaf4:	d5fc      	bpl.n	800aaf0 <SD_Init+0x48>
 800aaf6:	f884 800c 	strb.w	r8, [r4, #12]
 800aafa:	68a3      	ldr	r3, [r4, #8]
 800aafc:	07da      	lsls	r2, r3, #31
 800aafe:	d5fc      	bpl.n	800aafa <SD_Init+0x52>
 800ab00:	4b34      	ldr	r3, [pc, #208]	; (800abd4 <SD_Init+0x12c>)
 800ab02:	f44f 3280 	mov.w	r2, #65536	; 0x10000
 800ab06:	68e1      	ldr	r1, [r4, #12]
 800ab08:	619a      	str	r2, [r3, #24]
 800ab0a:	68a3      	ldr	r3, [r4, #8]
 800ab0c:	079b      	lsls	r3, r3, #30
 800ab0e:	d5fc      	bpl.n	800ab0a <SD_Init+0x62>
 800ab10:	f884 800c 	strb.w	r8, [r4, #12]
 800ab14:	68a3      	ldr	r3, [r4, #8]
 800ab16:	07d8      	lsls	r0, r3, #31
 800ab18:	d5fc      	bpl.n	800ab14 <SD_Init+0x6c>
 800ab1a:	68e3      	ldr	r3, [r4, #12]
 800ab1c:	f44f 7a96 	mov.w	sl, #300	; 0x12c
 800ab20:	68a3      	ldr	r3, [r4, #8]
 800ab22:	0799      	lsls	r1, r3, #30
 800ab24:	d5fc      	bpl.n	800ab20 <SD_Init+0x78>
 800ab26:	f884 800c 	strb.w	r8, [r4, #12]
 800ab2a:	68a3      	ldr	r3, [r4, #8]
 800ab2c:	07da      	lsls	r2, r3, #31
 800ab2e:	d5fc      	bpl.n	800ab2a <SD_Init+0x82>
 800ab30:	68e3      	ldr	r3, [r4, #12]
 800ab32:	b2db      	uxtb	r3, r3
 800ab34:	2bff      	cmp	r3, #255	; 0xff
 800ab36:	d005      	beq.n	800ab44 <SD_Init+0x9c>
 800ab38:	2001      	movs	r0, #1
 800ab3a:	f7f9 fe4f 	bl	80047dc <LL_mDelay>
 800ab3e:	f1ba 0a01 	subs.w	sl, sl, #1
 800ab42:	d1ed      	bne.n	800ab20 <SD_Init+0x78>
 800ab44:	2300      	movs	r3, #0
 800ab46:	2240      	movs	r2, #64	; 0x40
 800ab48:	a802      	add	r0, sp, #8
 800ab4a:	4619      	mov	r1, r3
 800ab4c:	9202      	str	r2, [sp, #8]
 800ab4e:	f88d 300c 	strb.w	r3, [sp, #12]
 800ab52:	f810 2b01 	ldrb.w	r2, [r0], #1
 800ab56:	68a3      	ldr	r3, [r4, #8]
 800ab58:	079b      	lsls	r3, r3, #30
 800ab5a:	d5fc      	bpl.n	800ab56 <SD_Init+0xae>
 800ab5c:	7322      	strb	r2, [r4, #12]
 800ab5e:	68a3      	ldr	r3, [r4, #8]
 800ab60:	07db      	lsls	r3, r3, #31
 800ab62:	d5fc      	bpl.n	800ab5e <SD_Init+0xb6>
 800ab64:	ea82 0241 	eor.w	r2, r2, r1, lsl #1
 800ab68:	4286      	cmp	r6, r0
 800ab6a:	68e3      	ldr	r3, [r4, #12]
 800ab6c:	5cb9      	ldrb	r1, [r7, r2]
 800ab6e:	d1f0      	bne.n	800ab52 <SD_Init+0xaa>
 800ab70:	004b      	lsls	r3, r1, #1
 800ab72:	f043 0301 	orr.w	r3, r3, #1
 800ab76:	b2db      	uxtb	r3, r3
 800ab78:	68a2      	ldr	r2, [r4, #8]
 800ab7a:	0791      	lsls	r1, r2, #30
 800ab7c:	d5fc      	bpl.n	800ab78 <SD_Init+0xd0>
 800ab7e:	7323      	strb	r3, [r4, #12]
 800ab80:	68a3      	ldr	r3, [r4, #8]
 800ab82:	07da      	lsls	r2, r3, #31
 800ab84:	d5fc      	bpl.n	800ab80 <SD_Init+0xd8>
 800ab86:	68e3      	ldr	r3, [r4, #12]
 800ab88:	2214      	movs	r2, #20
 800ab8a:	68a3      	ldr	r3, [r4, #8]
 800ab8c:	079b      	lsls	r3, r3, #30
 800ab8e:	d5fc      	bpl.n	800ab8a <SD_Init+0xe2>
 800ab90:	f884 800c 	strb.w	r8, [r4, #12]
 800ab94:	68a3      	ldr	r3, [r4, #8]
 800ab96:	f013 0301 	ands.w	r3, r3, #1
 800ab9a:	d0fb      	beq.n	800ab94 <SD_Init+0xec>
 800ab9c:	68e1      	ldr	r1, [r4, #12]
 800ab9e:	0608      	lsls	r0, r1, #24
 800aba0:	d51c      	bpl.n	800abdc <SD_Init+0x134>
 800aba2:	3a01      	subs	r2, #1
 800aba4:	d1f1      	bne.n	800ab8a <SD_Init+0xe2>
 800aba6:	4a0b      	ldr	r2, [pc, #44]	; (800abd4 <SD_Init+0x12c>)
 800aba8:	2101      	movs	r1, #1
 800abaa:	6191      	str	r1, [r2, #24]
 800abac:	68a2      	ldr	r2, [r4, #8]
 800abae:	0790      	lsls	r0, r2, #30
 800abb0:	d5fc      	bpl.n	800abac <SD_Init+0x104>
 800abb2:	f884 800c 	strb.w	r8, [r4, #12]
 800abb6:	68a2      	ldr	r2, [r4, #8]
 800abb8:	07d1      	lsls	r1, r2, #31
 800abba:	d5fc      	bpl.n	800abb6 <SD_Init+0x10e>
 800abbc:	68e2      	ldr	r2, [r4, #12]
 800abbe:	f1b9 0901 	subs.w	r9, r9, #1
 800abc2:	f000 822c 	beq.w	800b01e <SD_Init+0x576>
 800abc6:	2002      	movs	r0, #2
 800abc8:	f7f9 fe08 	bl	80047dc <LL_mDelay>
 800abcc:	e790      	b.n	800aaf0 <SD_Init+0x48>
 800abce:	bf00      	nop
 800abd0:	40003800 	.word	0x40003800
 800abd4:	40020800 	.word	0x40020800
 800abd8:	0800d02c 	.word	0x0800d02c
 800abdc:	4a83      	ldr	r2, [pc, #524]	; (800adec <SD_Init+0x344>)
 800abde:	2001      	movs	r0, #1
 800abe0:	6190      	str	r0, [r2, #24]
 800abe2:	68a2      	ldr	r2, [r4, #8]
 800abe4:	0792      	lsls	r2, r2, #30
 800abe6:	d5fc      	bpl.n	800abe2 <SD_Init+0x13a>
 800abe8:	f884 800c 	strb.w	r8, [r4, #12]
 800abec:	68a2      	ldr	r2, [r4, #8]
 800abee:	07d0      	lsls	r0, r2, #31
 800abf0:	d5fc      	bpl.n	800abec <SD_Init+0x144>
 800abf2:	b2c9      	uxtb	r1, r1
 800abf4:	68e2      	ldr	r2, [r4, #12]
 800abf6:	2901      	cmp	r1, #1
 800abf8:	d1e1      	bne.n	800abbe <SD_Init+0x116>
 800abfa:	4b7d      	ldr	r3, [pc, #500]	; (800adf0 <SD_Init+0x348>)
 800abfc:	689a      	ldr	r2, [r3, #8]
 800abfe:	0792      	lsls	r2, r2, #30
 800ac00:	d5fc      	bpl.n	800abfc <SD_Init+0x154>
 800ac02:	21ff      	movs	r1, #255	; 0xff
 800ac04:	4a7a      	ldr	r2, [pc, #488]	; (800adf0 <SD_Init+0x348>)
 800ac06:	7319      	strb	r1, [r3, #12]
 800ac08:	6893      	ldr	r3, [r2, #8]
 800ac0a:	07db      	lsls	r3, r3, #31
 800ac0c:	d5fc      	bpl.n	800ac08 <SD_Init+0x160>
 800ac0e:	f44f 71d5 	mov.w	r1, #426	; 0x1aa
 800ac12:	2008      	movs	r0, #8
 800ac14:	68d3      	ldr	r3, [r2, #12]
 800ac16:	f7ff fe7b 	bl	800a910 <SD_Cmd>
 800ac1a:	0744      	lsls	r4, r0, #29
 800ac1c:	f100 8136 	bmi.w	800ae8c <SD_Init+0x3e4>
 800ac20:	4b73      	ldr	r3, [pc, #460]	; (800adf0 <SD_Init+0x348>)
 800ac22:	689a      	ldr	r2, [r3, #8]
 800ac24:	0790      	lsls	r0, r2, #30
 800ac26:	d5fc      	bpl.n	800ac22 <SD_Init+0x17a>
 800ac28:	21ff      	movs	r1, #255	; 0xff
 800ac2a:	4a71      	ldr	r2, [pc, #452]	; (800adf0 <SD_Init+0x348>)
 800ac2c:	7319      	strb	r1, [r3, #12]
 800ac2e:	6893      	ldr	r3, [r2, #8]
 800ac30:	07d9      	lsls	r1, r3, #31
 800ac32:	d5fc      	bpl.n	800ac2e <SD_Init+0x186>
 800ac34:	68d3      	ldr	r3, [r2, #12]
 800ac36:	4b6e      	ldr	r3, [pc, #440]	; (800adf0 <SD_Init+0x348>)
 800ac38:	689a      	ldr	r2, [r3, #8]
 800ac3a:	0792      	lsls	r2, r2, #30
 800ac3c:	d5fc      	bpl.n	800ac38 <SD_Init+0x190>
 800ac3e:	21ff      	movs	r1, #255	; 0xff
 800ac40:	4a6b      	ldr	r2, [pc, #428]	; (800adf0 <SD_Init+0x348>)
 800ac42:	7319      	strb	r1, [r3, #12]
 800ac44:	6893      	ldr	r3, [r2, #8]
 800ac46:	07dc      	lsls	r4, r3, #31
 800ac48:	d5fc      	bpl.n	800ac44 <SD_Init+0x19c>
 800ac4a:	68d3      	ldr	r3, [r2, #12]
 800ac4c:	4b68      	ldr	r3, [pc, #416]	; (800adf0 <SD_Init+0x348>)
 800ac4e:	689a      	ldr	r2, [r3, #8]
 800ac50:	0790      	lsls	r0, r2, #30
 800ac52:	d5fc      	bpl.n	800ac4e <SD_Init+0x1a6>
 800ac54:	21ff      	movs	r1, #255	; 0xff
 800ac56:	4a66      	ldr	r2, [pc, #408]	; (800adf0 <SD_Init+0x348>)
 800ac58:	7319      	strb	r1, [r3, #12]
 800ac5a:	6893      	ldr	r3, [r2, #8]
 800ac5c:	07d9      	lsls	r1, r3, #31
 800ac5e:	d5fc      	bpl.n	800ac5a <SD_Init+0x1b2>
 800ac60:	68d3      	ldr	r3, [r2, #12]
 800ac62:	4b63      	ldr	r3, [pc, #396]	; (800adf0 <SD_Init+0x348>)
 800ac64:	689a      	ldr	r2, [r3, #8]
 800ac66:	0792      	lsls	r2, r2, #30
 800ac68:	d5fc      	bpl.n	800ac64 <SD_Init+0x1bc>
 800ac6a:	21ff      	movs	r1, #255	; 0xff
 800ac6c:	4a60      	ldr	r2, [pc, #384]	; (800adf0 <SD_Init+0x348>)
 800ac6e:	7319      	strb	r1, [r3, #12]
 800ac70:	6893      	ldr	r3, [r2, #8]
 800ac72:	07db      	lsls	r3, r3, #31
 800ac74:	d5fc      	bpl.n	800ac70 <SD_Init+0x1c8>
 800ac76:	f8df a17c 	ldr.w	sl, [pc, #380]	; 800adf4 <SD_Init+0x34c>
 800ac7a:	2302      	movs	r3, #2
 800ac7c:	68d2      	ldr	r2, [r2, #12]
 800ac7e:	f8ca 3000 	str.w	r3, [sl]
 800ac82:	4b5b      	ldr	r3, [pc, #364]	; (800adf0 <SD_Init+0x348>)
 800ac84:	689a      	ldr	r2, [r3, #8]
 800ac86:	0794      	lsls	r4, r2, #30
 800ac88:	d5fc      	bpl.n	800ac84 <SD_Init+0x1dc>
 800ac8a:	21ff      	movs	r1, #255	; 0xff
 800ac8c:	4a58      	ldr	r2, [pc, #352]	; (800adf0 <SD_Init+0x348>)
 800ac8e:	7319      	strb	r1, [r3, #12]
 800ac90:	6893      	ldr	r3, [r2, #8]
 800ac92:	07d8      	lsls	r0, r3, #31
 800ac94:	d5fc      	bpl.n	800ac90 <SD_Init+0x1e8>
 800ac96:	68d3      	ldr	r3, [r2, #12]
 800ac98:	f04f 08ff 	mov.w	r8, #255	; 0xff
 800ac9c:	f240 73d1 	movw	r3, #2001	; 0x7d1
 800aca0:	4c53      	ldr	r4, [pc, #332]	; (800adf0 <SD_Init+0x348>)
 800aca2:	9301      	str	r3, [sp, #4]
 800aca4:	68a3      	ldr	r3, [r4, #8]
 800aca6:	0799      	lsls	r1, r3, #30
 800aca8:	d5fc      	bpl.n	800aca4 <SD_Init+0x1fc>
 800acaa:	f884 800c 	strb.w	r8, [r4, #12]
 800acae:	68a3      	ldr	r3, [r4, #8]
 800acb0:	07da      	lsls	r2, r3, #31
 800acb2:	d5fc      	bpl.n	800acae <SD_Init+0x206>
 800acb4:	4b4d      	ldr	r3, [pc, #308]	; (800adec <SD_Init+0x344>)
 800acb6:	f44f 3280 	mov.w	r2, #65536	; 0x10000
 800acba:	68e1      	ldr	r1, [r4, #12]
 800acbc:	619a      	str	r2, [r3, #24]
 800acbe:	68a3      	ldr	r3, [r4, #8]
 800acc0:	079b      	lsls	r3, r3, #30
 800acc2:	d5fc      	bpl.n	800acbe <SD_Init+0x216>
 800acc4:	f884 800c 	strb.w	r8, [r4, #12]
 800acc8:	68a3      	ldr	r3, [r4, #8]
 800acca:	07d8      	lsls	r0, r3, #31
 800accc:	d5fc      	bpl.n	800acc8 <SD_Init+0x220>
 800acce:	68e3      	ldr	r3, [r4, #12]
 800acd0:	f44f 7b96 	mov.w	fp, #300	; 0x12c
 800acd4:	68a3      	ldr	r3, [r4, #8]
 800acd6:	0799      	lsls	r1, r3, #30
 800acd8:	d5fc      	bpl.n	800acd4 <SD_Init+0x22c>
 800acda:	f884 800c 	strb.w	r8, [r4, #12]
 800acde:	68a3      	ldr	r3, [r4, #8]
 800ace0:	07da      	lsls	r2, r3, #31
 800ace2:	d5fc      	bpl.n	800acde <SD_Init+0x236>
 800ace4:	68e3      	ldr	r3, [r4, #12]
 800ace6:	b2db      	uxtb	r3, r3
 800ace8:	2bff      	cmp	r3, #255	; 0xff
 800acea:	d005      	beq.n	800acf8 <SD_Init+0x250>
 800acec:	2001      	movs	r0, #1
 800acee:	f7f9 fd75 	bl	80047dc <LL_mDelay>
 800acf2:	f1bb 0b01 	subs.w	fp, fp, #1
 800acf6:	d1ed      	bne.n	800acd4 <SD_Init+0x22c>
 800acf8:	2300      	movs	r3, #0
 800acfa:	2277      	movs	r2, #119	; 0x77
 800acfc:	a802      	add	r0, sp, #8
 800acfe:	4619      	mov	r1, r3
 800ad00:	9202      	str	r2, [sp, #8]
 800ad02:	f88d 300c 	strb.w	r3, [sp, #12]
 800ad06:	f810 2b01 	ldrb.w	r2, [r0], #1
 800ad0a:	68a3      	ldr	r3, [r4, #8]
 800ad0c:	079b      	lsls	r3, r3, #30
 800ad0e:	d5fc      	bpl.n	800ad0a <SD_Init+0x262>
 800ad10:	7322      	strb	r2, [r4, #12]
 800ad12:	68a3      	ldr	r3, [r4, #8]
 800ad14:	07db      	lsls	r3, r3, #31
 800ad16:	d5fc      	bpl.n	800ad12 <SD_Init+0x26a>
 800ad18:	ea82 0241 	eor.w	r2, r2, r1, lsl #1
 800ad1c:	4286      	cmp	r6, r0
 800ad1e:	68e3      	ldr	r3, [r4, #12]
 800ad20:	5cb9      	ldrb	r1, [r7, r2]
 800ad22:	d1f0      	bne.n	800ad06 <SD_Init+0x25e>
 800ad24:	004b      	lsls	r3, r1, #1
 800ad26:	f043 0301 	orr.w	r3, r3, #1
 800ad2a:	b2db      	uxtb	r3, r3
 800ad2c:	68a2      	ldr	r2, [r4, #8]
 800ad2e:	0791      	lsls	r1, r2, #30
 800ad30:	d5fc      	bpl.n	800ad2c <SD_Init+0x284>
 800ad32:	7323      	strb	r3, [r4, #12]
 800ad34:	68a3      	ldr	r3, [r4, #8]
 800ad36:	07da      	lsls	r2, r3, #31
 800ad38:	d5fc      	bpl.n	800ad34 <SD_Init+0x28c>
 800ad3a:	68e3      	ldr	r3, [r4, #12]
 800ad3c:	2214      	movs	r2, #20
 800ad3e:	68a3      	ldr	r3, [r4, #8]
 800ad40:	079b      	lsls	r3, r3, #30
 800ad42:	d5fc      	bpl.n	800ad3e <SD_Init+0x296>
 800ad44:	f884 800c 	strb.w	r8, [r4, #12]
 800ad48:	68a3      	ldr	r3, [r4, #8]
 800ad4a:	07d8      	lsls	r0, r3, #31
 800ad4c:	d5fc      	bpl.n	800ad48 <SD_Init+0x2a0>
 800ad4e:	68e3      	ldr	r3, [r4, #12]
 800ad50:	0619      	lsls	r1, r3, #24
 800ad52:	f140 8109 	bpl.w	800af68 <SD_Init+0x4c0>
 800ad56:	3a01      	subs	r2, #1
 800ad58:	d1f1      	bne.n	800ad3e <SD_Init+0x296>
 800ad5a:	4b24      	ldr	r3, [pc, #144]	; (800adec <SD_Init+0x344>)
 800ad5c:	2201      	movs	r2, #1
 800ad5e:	619a      	str	r2, [r3, #24]
 800ad60:	68a3      	ldr	r3, [r4, #8]
 800ad62:	079b      	lsls	r3, r3, #30
 800ad64:	d5fc      	bpl.n	800ad60 <SD_Init+0x2b8>
 800ad66:	f884 800c 	strb.w	r8, [r4, #12]
 800ad6a:	68a3      	ldr	r3, [r4, #8]
 800ad6c:	07d8      	lsls	r0, r3, #31
 800ad6e:	d5fc      	bpl.n	800ad6a <SD_Init+0x2c2>
 800ad70:	68e3      	ldr	r3, [r4, #12]
 800ad72:	68a3      	ldr	r3, [r4, #8]
 800ad74:	079b      	lsls	r3, r3, #30
 800ad76:	d5fc      	bpl.n	800ad72 <SD_Init+0x2ca>
 800ad78:	f884 800c 	strb.w	r8, [r4, #12]
 800ad7c:	68a3      	ldr	r3, [r4, #8]
 800ad7e:	07d8      	lsls	r0, r3, #31
 800ad80:	d5fc      	bpl.n	800ad7c <SD_Init+0x2d4>
 800ad82:	f8da 3000 	ldr.w	r3, [sl]
 800ad86:	68e2      	ldr	r2, [r4, #12]
 800ad88:	2b02      	cmp	r3, #2
 800ad8a:	bf0c      	ite	eq
 800ad8c:	f04f 0b40 	moveq.w	fp, #64	; 0x40
 800ad90:	f04f 0b00 	movne.w	fp, #0
 800ad94:	68a3      	ldr	r3, [r4, #8]
 800ad96:	0799      	lsls	r1, r3, #30
 800ad98:	d5fc      	bpl.n	800ad94 <SD_Init+0x2ec>
 800ad9a:	f884 800c 	strb.w	r8, [r4, #12]
 800ad9e:	68a3      	ldr	r3, [r4, #8]
 800ada0:	07da      	lsls	r2, r3, #31
 800ada2:	d5fc      	bpl.n	800ad9e <SD_Init+0x2f6>
 800ada4:	4b11      	ldr	r3, [pc, #68]	; (800adec <SD_Init+0x344>)
 800ada6:	f44f 3280 	mov.w	r2, #65536	; 0x10000
 800adaa:	68e1      	ldr	r1, [r4, #12]
 800adac:	619a      	str	r2, [r3, #24]
 800adae:	68a3      	ldr	r3, [r4, #8]
 800adb0:	079b      	lsls	r3, r3, #30
 800adb2:	d5fc      	bpl.n	800adae <SD_Init+0x306>
 800adb4:	f884 800c 	strb.w	r8, [r4, #12]
 800adb8:	68a3      	ldr	r3, [r4, #8]
 800adba:	07d8      	lsls	r0, r3, #31
 800adbc:	d5fc      	bpl.n	800adb8 <SD_Init+0x310>
 800adbe:	68e3      	ldr	r3, [r4, #12]
 800adc0:	f44f 7996 	mov.w	r9, #300	; 0x12c
 800adc4:	68a3      	ldr	r3, [r4, #8]
 800adc6:	0799      	lsls	r1, r3, #30
 800adc8:	d5fc      	bpl.n	800adc4 <SD_Init+0x31c>
 800adca:	f884 800c 	strb.w	r8, [r4, #12]
 800adce:	68a3      	ldr	r3, [r4, #8]
 800add0:	07da      	lsls	r2, r3, #31
 800add2:	d5fc      	bpl.n	800adce <SD_Init+0x326>
 800add4:	68e3      	ldr	r3, [r4, #12]
 800add6:	b2db      	uxtb	r3, r3
 800add8:	2bff      	cmp	r3, #255	; 0xff
 800adda:	d00d      	beq.n	800adf8 <SD_Init+0x350>
 800addc:	2001      	movs	r0, #1
 800adde:	f7f9 fcfd 	bl	80047dc <LL_mDelay>
 800ade2:	f1b9 0901 	subs.w	r9, r9, #1
 800ade6:	d1ed      	bne.n	800adc4 <SD_Init+0x31c>
 800ade8:	e006      	b.n	800adf8 <SD_Init+0x350>
 800adea:	bf00      	nop
 800adec:	40020800 	.word	0x40020800
 800adf0:	40003800 	.word	0x40003800
 800adf4:	2000033c 	.word	0x2000033c
 800adf8:	2300      	movs	r3, #0
 800adfa:	2269      	movs	r2, #105	; 0x69
 800adfc:	a802      	add	r0, sp, #8
 800adfe:	f88d b009 	strb.w	fp, [sp, #9]
 800ae02:	4619      	mov	r1, r3
 800ae04:	f88d 2008 	strb.w	r2, [sp, #8]
 800ae08:	f8ad 300a 	strh.w	r3, [sp, #10]
 800ae0c:	f88d 300c 	strb.w	r3, [sp, #12]
 800ae10:	f810 2b01 	ldrb.w	r2, [r0], #1
 800ae14:	68a3      	ldr	r3, [r4, #8]
 800ae16:	079b      	lsls	r3, r3, #30
 800ae18:	d5fc      	bpl.n	800ae14 <SD_Init+0x36c>
 800ae1a:	7322      	strb	r2, [r4, #12]
 800ae1c:	68a3      	ldr	r3, [r4, #8]
 800ae1e:	07db      	lsls	r3, r3, #31
 800ae20:	d5fc      	bpl.n	800ae1c <SD_Init+0x374>
 800ae22:	ea82 0241 	eor.w	r2, r2, r1, lsl #1
 800ae26:	4286      	cmp	r6, r0
 800ae28:	68e3      	ldr	r3, [r4, #12]
 800ae2a:	5cb9      	ldrb	r1, [r7, r2]
 800ae2c:	d1f0      	bne.n	800ae10 <SD_Init+0x368>
 800ae2e:	004b      	lsls	r3, r1, #1
 800ae30:	f043 0301 	orr.w	r3, r3, #1
 800ae34:	b2db      	uxtb	r3, r3
 800ae36:	68a2      	ldr	r2, [r4, #8]
 800ae38:	0791      	lsls	r1, r2, #30
 800ae3a:	d5fc      	bpl.n	800ae36 <SD_Init+0x38e>
 800ae3c:	7323      	strb	r3, [r4, #12]
 800ae3e:	68a3      	ldr	r3, [r4, #8]
 800ae40:	07da      	lsls	r2, r3, #31
 800ae42:	d5fc      	bpl.n	800ae3e <SD_Init+0x396>
 800ae44:	68e3      	ldr	r3, [r4, #12]
 800ae46:	2214      	movs	r2, #20
 800ae48:	68a3      	ldr	r3, [r4, #8]
 800ae4a:	079b      	lsls	r3, r3, #30
 800ae4c:	d5fc      	bpl.n	800ae48 <SD_Init+0x3a0>
 800ae4e:	f884 800c 	strb.w	r8, [r4, #12]
 800ae52:	68a3      	ldr	r3, [r4, #8]
 800ae54:	07d8      	lsls	r0, r3, #31
 800ae56:	d5fc      	bpl.n	800ae52 <SD_Init+0x3aa>
 800ae58:	68e3      	ldr	r3, [r4, #12]
 800ae5a:	0619      	lsls	r1, r3, #24
 800ae5c:	d51c      	bpl.n	800ae98 <SD_Init+0x3f0>
 800ae5e:	3a01      	subs	r2, #1
 800ae60:	d1f2      	bne.n	800ae48 <SD_Init+0x3a0>
 800ae62:	4b75      	ldr	r3, [pc, #468]	; (800b038 <SD_Init+0x590>)
 800ae64:	2201      	movs	r2, #1
 800ae66:	619a      	str	r2, [r3, #24]
 800ae68:	68a3      	ldr	r3, [r4, #8]
 800ae6a:	079b      	lsls	r3, r3, #30
 800ae6c:	d5fc      	bpl.n	800ae68 <SD_Init+0x3c0>
 800ae6e:	f884 800c 	strb.w	r8, [r4, #12]
 800ae72:	68a3      	ldr	r3, [r4, #8]
 800ae74:	07d8      	lsls	r0, r3, #31
 800ae76:	d5fc      	bpl.n	800ae72 <SD_Init+0x3ca>
 800ae78:	68e3      	ldr	r3, [r4, #12]
 800ae7a:	9b01      	ldr	r3, [sp, #4]
 800ae7c:	3b01      	subs	r3, #1
 800ae7e:	9301      	str	r3, [sp, #4]
 800ae80:	f000 80d2 	beq.w	800b028 <SD_Init+0x580>
 800ae84:	2001      	movs	r0, #1
 800ae86:	f7f9 fca9 	bl	80047dc <LL_mDelay>
 800ae8a:	e70b      	b.n	800aca4 <SD_Init+0x1fc>
 800ae8c:	f8df a1b0 	ldr.w	sl, [pc, #432]	; 800b040 <SD_Init+0x598>
 800ae90:	2301      	movs	r3, #1
 800ae92:	f8ca 3000 	str.w	r3, [sl]
 800ae96:	e6f4      	b.n	800ac82 <SD_Init+0x1da>
 800ae98:	4a67      	ldr	r2, [pc, #412]	; (800b038 <SD_Init+0x590>)
 800ae9a:	2101      	movs	r1, #1
 800ae9c:	6191      	str	r1, [r2, #24]
 800ae9e:	68a2      	ldr	r2, [r4, #8]
 800aea0:	0791      	lsls	r1, r2, #30
 800aea2:	d5fc      	bpl.n	800ae9e <SD_Init+0x3f6>
 800aea4:	f884 800c 	strb.w	r8, [r4, #12]
 800aea8:	68a2      	ldr	r2, [r4, #8]
 800aeaa:	07d2      	lsls	r2, r2, #31
 800aeac:	d5fc      	bpl.n	800aea8 <SD_Init+0x400>
 800aeae:	f013 0fff 	tst.w	r3, #255	; 0xff
 800aeb2:	68e2      	ldr	r2, [r4, #12]
 800aeb4:	d1e1      	bne.n	800ae7a <SD_Init+0x3d2>
 800aeb6:	4b61      	ldr	r3, [pc, #388]	; (800b03c <SD_Init+0x594>)
 800aeb8:	689a      	ldr	r2, [r3, #8]
 800aeba:	0796      	lsls	r6, r2, #30
 800aebc:	d5fc      	bpl.n	800aeb8 <SD_Init+0x410>
 800aebe:	21ff      	movs	r1, #255	; 0xff
 800aec0:	4a5e      	ldr	r2, [pc, #376]	; (800b03c <SD_Init+0x594>)
 800aec2:	7319      	strb	r1, [r3, #12]
 800aec4:	6893      	ldr	r3, [r2, #8]
 800aec6:	07dc      	lsls	r4, r3, #31
 800aec8:	d5fc      	bpl.n	800aec4 <SD_Init+0x41c>
 800aeca:	68d3      	ldr	r3, [r2, #12]
 800aecc:	4b5b      	ldr	r3, [pc, #364]	; (800b03c <SD_Init+0x594>)
 800aece:	689a      	ldr	r2, [r3, #8]
 800aed0:	0790      	lsls	r0, r2, #30
 800aed2:	d5fc      	bpl.n	800aece <SD_Init+0x426>
 800aed4:	21ff      	movs	r1, #255	; 0xff
 800aed6:	4a59      	ldr	r2, [pc, #356]	; (800b03c <SD_Init+0x594>)
 800aed8:	7319      	strb	r1, [r3, #12]
 800aeda:	6893      	ldr	r3, [r2, #8]
 800aedc:	07d9      	lsls	r1, r3, #31
 800aede:	d5fc      	bpl.n	800aeda <SD_Init+0x432>
 800aee0:	68d3      	ldr	r3, [r2, #12]
 800aee2:	4b56      	ldr	r3, [pc, #344]	; (800b03c <SD_Init+0x594>)
 800aee4:	689a      	ldr	r2, [r3, #8]
 800aee6:	0792      	lsls	r2, r2, #30
 800aee8:	d5fc      	bpl.n	800aee4 <SD_Init+0x43c>
 800aeea:	21ff      	movs	r1, #255	; 0xff
 800aeec:	4a53      	ldr	r2, [pc, #332]	; (800b03c <SD_Init+0x594>)
 800aeee:	7319      	strb	r1, [r3, #12]
 800aef0:	6893      	ldr	r3, [r2, #8]
 800aef2:	07df      	lsls	r7, r3, #31
 800aef4:	d5fc      	bpl.n	800aef0 <SD_Init+0x448>
 800aef6:	68d3      	ldr	r3, [r2, #12]
 800aef8:	4b50      	ldr	r3, [pc, #320]	; (800b03c <SD_Init+0x594>)
 800aefa:	689a      	ldr	r2, [r3, #8]
 800aefc:	0796      	lsls	r6, r2, #30
 800aefe:	d5fc      	bpl.n	800aefa <SD_Init+0x452>
 800af00:	21ff      	movs	r1, #255	; 0xff
 800af02:	4a4e      	ldr	r2, [pc, #312]	; (800b03c <SD_Init+0x594>)
 800af04:	7319      	strb	r1, [r3, #12]
 800af06:	6893      	ldr	r3, [r2, #8]
 800af08:	07dc      	lsls	r4, r3, #31
 800af0a:	d5fc      	bpl.n	800af06 <SD_Init+0x45e>
 800af0c:	68d3      	ldr	r3, [r2, #12]
 800af0e:	4b4b      	ldr	r3, [pc, #300]	; (800b03c <SD_Init+0x594>)
 800af10:	689a      	ldr	r2, [r3, #8]
 800af12:	0790      	lsls	r0, r2, #30
 800af14:	d5fc      	bpl.n	800af10 <SD_Init+0x468>
 800af16:	21ff      	movs	r1, #255	; 0xff
 800af18:	4a48      	ldr	r2, [pc, #288]	; (800b03c <SD_Init+0x594>)
 800af1a:	7319      	strb	r1, [r3, #12]
 800af1c:	6893      	ldr	r3, [r2, #8]
 800af1e:	07d9      	lsls	r1, r3, #31
 800af20:	d5fc      	bpl.n	800af1c <SD_Init+0x474>
 800af22:	f8da 3000 	ldr.w	r3, [sl]
 800af26:	68d2      	ldr	r2, [r2, #12]
 800af28:	2b02      	cmp	r3, #2
 800af2a:	d032      	beq.n	800af92 <SD_Init+0x4ea>
 800af2c:	1e5a      	subs	r2, r3, #1
 800af2e:	2a01      	cmp	r2, #1
 800af30:	d926      	bls.n	800af80 <SD_Init+0x4d8>
 800af32:	2b04      	cmp	r3, #4
 800af34:	d024      	beq.n	800af80 <SD_Init+0x4d8>
 800af36:	4a41      	ldr	r2, [pc, #260]	; (800b03c <SD_Init+0x594>)
 800af38:	6813      	ldr	r3, [r2, #0]
 800af3a:	4611      	mov	r1, r2
 800af3c:	f023 0338 	bic.w	r3, r3, #56	; 0x38
 800af40:	f043 0308 	orr.w	r3, r3, #8
 800af44:	6013      	str	r3, [r2, #0]
 800af46:	688b      	ldr	r3, [r1, #8]
 800af48:	079a      	lsls	r2, r3, #30
 800af4a:	d5fc      	bpl.n	800af46 <SD_Init+0x49e>
 800af4c:	23ff      	movs	r3, #255	; 0xff
 800af4e:	4a3b      	ldr	r2, [pc, #236]	; (800b03c <SD_Init+0x594>)
 800af50:	730b      	strb	r3, [r1, #12]
 800af52:	6893      	ldr	r3, [r2, #8]
 800af54:	07db      	lsls	r3, r3, #31
 800af56:	d5fc      	bpl.n	800af52 <SD_Init+0x4aa>
 800af58:	4b37      	ldr	r3, [pc, #220]	; (800b038 <SD_Init+0x590>)
 800af5a:	2101      	movs	r1, #1
 800af5c:	68d2      	ldr	r2, [r2, #12]
 800af5e:	6199      	str	r1, [r3, #24]
 800af60:	4628      	mov	r0, r5
 800af62:	b005      	add	sp, #20
 800af64:	e8bd 8ff0 	ldmia.w	sp!, {r4, r5, r6, r7, r8, r9, sl, fp, pc}
 800af68:	4b33      	ldr	r3, [pc, #204]	; (800b038 <SD_Init+0x590>)
 800af6a:	2201      	movs	r2, #1
 800af6c:	619a      	str	r2, [r3, #24]
 800af6e:	68a3      	ldr	r3, [r4, #8]
 800af70:	0799      	lsls	r1, r3, #30
 800af72:	d5fc      	bpl.n	800af6e <SD_Init+0x4c6>
 800af74:	f884 800c 	strb.w	r8, [r4, #12]
 800af78:	68a3      	ldr	r3, [r4, #8]
 800af7a:	07da      	lsls	r2, r3, #31
 800af7c:	d5fc      	bpl.n	800af78 <SD_Init+0x4d0>
 800af7e:	e6f7      	b.n	800ad70 <SD_Init+0x2c8>
 800af80:	f44f 7100 	mov.w	r1, #512	; 0x200
 800af84:	2010      	movs	r0, #16
 800af86:	f7ff fcc3 	bl	800a910 <SD_Cmd>
 800af8a:	2800      	cmp	r0, #0
 800af8c:	d0d3      	beq.n	800af36 <SD_Init+0x48e>
 800af8e:	2505      	movs	r5, #5
 800af90:	e7e6      	b.n	800af60 <SD_Init+0x4b8>
 800af92:	2100      	movs	r1, #0
 800af94:	203a      	movs	r0, #58	; 0x3a
 800af96:	f7ff fcbb 	bl	800a910 <SD_Cmd>
 800af9a:	2800      	cmp	r0, #0
 800af9c:	d149      	bne.n	800b032 <SD_Init+0x58a>
 800af9e:	4a27      	ldr	r2, [pc, #156]	; (800b03c <SD_Init+0x594>)
 800afa0:	6893      	ldr	r3, [r2, #8]
 800afa2:	079b      	lsls	r3, r3, #30
 800afa4:	d5fc      	bpl.n	800afa0 <SD_Init+0x4f8>
 800afa6:	21ff      	movs	r1, #255	; 0xff
 800afa8:	4b24      	ldr	r3, [pc, #144]	; (800b03c <SD_Init+0x594>)
 800afaa:	7311      	strb	r1, [r2, #12]
 800afac:	689a      	ldr	r2, [r3, #8]
 800afae:	07d7      	lsls	r7, r2, #31
 800afb0:	d5fc      	bpl.n	800afac <SD_Init+0x504>
 800afb2:	68db      	ldr	r3, [r3, #12]
 800afb4:	4921      	ldr	r1, [pc, #132]	; (800b03c <SD_Init+0x594>)
 800afb6:	061b      	lsls	r3, r3, #24
 800afb8:	688a      	ldr	r2, [r1, #8]
 800afba:	0796      	lsls	r6, r2, #30
 800afbc:	d5fc      	bpl.n	800afb8 <SD_Init+0x510>
 800afbe:	20ff      	movs	r0, #255	; 0xff
 800afc0:	4a1e      	ldr	r2, [pc, #120]	; (800b03c <SD_Init+0x594>)
 800afc2:	7308      	strb	r0, [r1, #12]
 800afc4:	6891      	ldr	r1, [r2, #8]
 800afc6:	07cc      	lsls	r4, r1, #31
 800afc8:	d5fc      	bpl.n	800afc4 <SD_Init+0x51c>
 800afca:	68d2      	ldr	r2, [r2, #12]
 800afcc:	491b      	ldr	r1, [pc, #108]	; (800b03c <SD_Init+0x594>)
 800afce:	688a      	ldr	r2, [r1, #8]
 800afd0:	0790      	lsls	r0, r2, #30
 800afd2:	d5fc      	bpl.n	800afce <SD_Init+0x526>
 800afd4:	20ff      	movs	r0, #255	; 0xff
 800afd6:	4a19      	ldr	r2, [pc, #100]	; (800b03c <SD_Init+0x594>)
 800afd8:	7308      	strb	r0, [r1, #12]
 800afda:	6891      	ldr	r1, [r2, #8]
 800afdc:	07c9      	lsls	r1, r1, #31
 800afde:	d5fc      	bpl.n	800afda <SD_Init+0x532>
 800afe0:	68d2      	ldr	r2, [r2, #12]
 800afe2:	4916      	ldr	r1, [pc, #88]	; (800b03c <SD_Init+0x594>)
 800afe4:	688a      	ldr	r2, [r1, #8]
 800afe6:	0797      	lsls	r7, r2, #30
 800afe8:	d5fc      	bpl.n	800afe4 <SD_Init+0x53c>
 800afea:	20ff      	movs	r0, #255	; 0xff
 800afec:	4a13      	ldr	r2, [pc, #76]	; (800b03c <SD_Init+0x594>)
 800afee:	7308      	strb	r0, [r1, #12]
 800aff0:	6891      	ldr	r1, [r2, #8]
 800aff2:	07ce      	lsls	r6, r1, #31
 800aff4:	d5fc      	bpl.n	800aff0 <SD_Init+0x548>
 800aff6:	005c      	lsls	r4, r3, #1
 800aff8:	68d2      	ldr	r2, [r2, #12]
 800affa:	d502      	bpl.n	800b002 <SD_Init+0x55a>
 800affc:	2303      	movs	r3, #3
 800affe:	f8ca 3000 	str.w	r3, [sl]
 800b002:	4a0e      	ldr	r2, [pc, #56]	; (800b03c <SD_Init+0x594>)
 800b004:	6893      	ldr	r3, [r2, #8]
 800b006:	0798      	lsls	r0, r3, #30
 800b008:	d5fc      	bpl.n	800b004 <SD_Init+0x55c>
 800b00a:	21ff      	movs	r1, #255	; 0xff
 800b00c:	4b0b      	ldr	r3, [pc, #44]	; (800b03c <SD_Init+0x594>)
 800b00e:	7311      	strb	r1, [r2, #12]
 800b010:	689a      	ldr	r2, [r3, #8]
 800b012:	07d1      	lsls	r1, r2, #31
 800b014:	d5fc      	bpl.n	800b010 <SD_Init+0x568>
 800b016:	68db      	ldr	r3, [r3, #12]
 800b018:	f8da 3000 	ldr.w	r3, [sl]
 800b01c:	e786      	b.n	800af2c <SD_Init+0x484>
 800b01e:	461d      	mov	r5, r3
 800b020:	4628      	mov	r0, r5
 800b022:	b005      	add	sp, #20
 800b024:	e8bd 8ff0 	ldmia.w	sp!, {r4, r5, r6, r7, r8, r9, sl, fp, pc}
 800b028:	2502      	movs	r5, #2
 800b02a:	4628      	mov	r0, r5
 800b02c:	b005      	add	sp, #20
 800b02e:	e8bd 8ff0 	ldmia.w	sp!, {r4, r5, r6, r7, r8, r9, sl, fp, pc}
 800b032:	2503      	movs	r5, #3
 800b034:	e794      	b.n	800af60 <SD_Init+0x4b8>
 800b036:	bf00      	nop
 800b038:	40020800 	.word	0x40020800
 800b03c:	40003800 	.word	0x40003800
 800b040:	2000033c 	.word	0x2000033c

0800b044 <NMI_Handler>:
 800b044:	4770      	bx	lr
 800b046:	bf00      	nop

0800b048 <HardFault_Handler>:
 800b048:	e7fe      	b.n	800b048 <HardFault_Handler>
 800b04a:	bf00      	nop

0800b04c <MemManage_Handler>:
 800b04c:	e7fe      	b.n	800b04c <MemManage_Handler>
 800b04e:	bf00      	nop

0800b050 <BusFault_Handler>:
 800b050:	e7fe      	b.n	800b050 <BusFault_Handler>
 800b052:	bf00      	nop

0800b054 <UsageFault_Handler>:
 800b054:	e7fe      	b.n	800b054 <UsageFault_Handler>
 800b056:	bf00      	nop

0800b058 <SVC_Handler>:
 800b058:	4770      	bx	lr
 800b05a:	bf00      	nop

0800b05c <DebugMon_Handler>:
 800b05c:	4770      	bx	lr
 800b05e:	bf00      	nop

0800b060 <PendSV_Handler>:
 800b060:	4770      	bx	lr
 800b062:	bf00      	nop

0800b064 <SysTick_Handler>:
 800b064:	f7f9 b966 	b.w	8004334 <HAL_IncTick>

0800b068 <EXTI9_5_IRQHandler>:
 800b068:	4b57      	ldr	r3, [pc, #348]	; (800b1c8 <EXTI9_5_IRQHandler+0x160>)
 800b06a:	695a      	ldr	r2, [r3, #20]
 800b06c:	0611      	lsls	r1, r2, #24
 800b06e:	e92d 43f0 	stmdb	sp!, {r4, r5, r6, r7, r8, r9, lr}
 800b072:	d504      	bpl.n	800b07e <EXTI9_5_IRQHandler+0x16>
 800b074:	2180      	movs	r1, #128	; 0x80
 800b076:	4a55      	ldr	r2, [pc, #340]	; (800b1cc <EXTI9_5_IRQHandler+0x164>)
 800b078:	6159      	str	r1, [r3, #20]
 800b07a:	6814      	ldr	r4, [r2, #0]
 800b07c:	b15c      	cbz	r4, 800b096 <EXTI9_5_IRQHandler+0x2e>
 800b07e:	4b52      	ldr	r3, [pc, #328]	; (800b1c8 <EXTI9_5_IRQHandler+0x160>)
 800b080:	695a      	ldr	r2, [r3, #20]
 800b082:	05d2      	lsls	r2, r2, #23
 800b084:	d505      	bpl.n	800b092 <EXTI9_5_IRQHandler+0x2a>
 800b086:	f44f 7080 	mov.w	r0, #256	; 0x100
 800b08a:	4a51      	ldr	r2, [pc, #324]	; (800b1d0 <EXTI9_5_IRQHandler+0x168>)
 800b08c:	2101      	movs	r1, #1
 800b08e:	6158      	str	r0, [r3, #20]
 800b090:	6011      	str	r1, [r2, #0]
 800b092:	e8bd 83f0 	ldmia.w	sp!, {r4, r5, r6, r7, r8, r9, pc}
 800b096:	494f      	ldr	r1, [pc, #316]	; (800b1d4 <EXTI9_5_IRQHandler+0x16c>)
 800b098:	690b      	ldr	r3, [r1, #16]
 800b09a:	f413 6300 	ands.w	r3, r3, #2048	; 0x800
 800b09e:	d003      	beq.n	800b0a8 <EXTI9_5_IRQHandler+0x40>
 800b0a0:	4b4d      	ldr	r3, [pc, #308]	; (800b1d8 <EXTI9_5_IRQHandler+0x170>)
 800b0a2:	2201      	movs	r2, #1
 800b0a4:	601a      	str	r2, [r3, #0]
 800b0a6:	e7ea      	b.n	800b07e <EXTI9_5_IRQHandler+0x16>
 800b0a8:	484c      	ldr	r0, [pc, #304]	; (800b1dc <EXTI9_5_IRQHandler+0x174>)
 800b0aa:	4f4d      	ldr	r7, [pc, #308]	; (800b1e0 <EXTI9_5_IRQHandler+0x178>)
 800b0ac:	6802      	ldr	r2, [r0, #0]
 800b0ae:	683d      	ldr	r5, [r7, #0]
 800b0b0:	1c56      	adds	r6, r2, #1
 800b0b2:	f8df e130 	ldr.w	lr, [pc, #304]	; 800b1e4 <EXTI9_5_IRQHandler+0x17c>
 800b0b6:	f835 2012 	ldrh.w	r2, [r5, r2, lsl #1]
 800b0ba:	6006      	str	r6, [r0, #0]
 800b0bc:	f8ce 2014 	str.w	r2, [lr, #20]
 800b0c0:	bf00      	nop
 800b0c2:	bf00      	nop
 800b0c4:	bf00      	nop
 800b0c6:	bf00      	nop
 800b0c8:	bf00      	nop
 800b0ca:	bf00      	nop
 800b0cc:	f44f 7c00 	mov.w	ip, #512	; 0x200
 800b0d0:	f8c1 c018 	str.w	ip, [r1, #24]
 800b0d4:	bf00      	nop
 800b0d6:	bf00      	nop
 800b0d8:	bf00      	nop
 800b0da:	bf00      	nop
 800b0dc:	bf00      	nop
 800b0de:	bf00      	nop
 800b0e0:	f04f 7600 	mov.w	r6, #33554432	; 0x2000000
 800b0e4:	618e      	str	r6, [r1, #24]
 800b0e6:	bf00      	nop
 800b0e8:	bf00      	nop
 800b0ea:	bf00      	nop
 800b0ec:	bf00      	nop
 800b0ee:	bf00      	nop
 800b0f0:	bf00      	nop
 800b0f2:	f640 5851 	movw	r8, #3409	; 0xd51
 800b0f6:	6802      	ldr	r2, [r0, #0]
 800b0f8:	683d      	ldr	r5, [r7, #0]
 800b0fa:	4542      	cmp	r2, r8
 800b0fc:	bf88      	it	hi
 800b0fe:	2200      	movhi	r2, #0
 800b100:	f102 0901 	add.w	r9, r2, #1
 800b104:	f835 2012 	ldrh.w	r2, [r5, r2, lsl #1]
 800b108:	f8c0 9000 	str.w	r9, [r0]
 800b10c:	f8ce 2014 	str.w	r2, [lr, #20]
 800b110:	bf00      	nop
 800b112:	bf00      	nop
 800b114:	bf00      	nop
 800b116:	bf00      	nop
 800b118:	bf00      	nop
 800b11a:	bf00      	nop
 800b11c:	f8c1 c018 	str.w	ip, [r1, #24]
 800b120:	bf00      	nop
 800b122:	bf00      	nop
 800b124:	bf00      	nop
 800b126:	bf00      	nop
 800b128:	bf00      	nop
 800b12a:	bf00      	nop
 800b12c:	618e      	str	r6, [r1, #24]
 800b12e:	bf00      	nop
 800b130:	bf00      	nop
 800b132:	bf00      	nop
 800b134:	bf00      	nop
 800b136:	bf00      	nop
 800b138:	bf00      	nop
 800b13a:	6802      	ldr	r2, [r0, #0]
 800b13c:	683d      	ldr	r5, [r7, #0]
 800b13e:	4542      	cmp	r2, r8
 800b140:	bf88      	it	hi
 800b142:	2200      	movhi	r2, #0
 800b144:	f102 0901 	add.w	r9, r2, #1
 800b148:	f835 2012 	ldrh.w	r2, [r5, r2, lsl #1]
 800b14c:	f8c0 9000 	str.w	r9, [r0]
 800b150:	f8ce 2014 	str.w	r2, [lr, #20]
 800b154:	bf00      	nop
 800b156:	bf00      	nop
 800b158:	bf00      	nop
 800b15a:	bf00      	nop
 800b15c:	bf00      	nop
 800b15e:	bf00      	nop
 800b160:	f8c1 c018 	str.w	ip, [r1, #24]
 800b164:	bf00      	nop
 800b166:	bf00      	nop
 800b168:	bf00      	nop
 800b16a:	bf00      	nop
 800b16c:	bf00      	nop
 800b16e:	bf00      	nop
 800b170:	618e      	str	r6, [r1, #24]
 800b172:	bf00      	nop
 800b174:	bf00      	nop
 800b176:	bf00      	nop
 800b178:	bf00      	nop
 800b17a:	bf00      	nop
 800b17c:	bf00      	nop
 800b17e:	6802      	ldr	r2, [r0, #0]
 800b180:	683f      	ldr	r7, [r7, #0]
 800b182:	4542      	cmp	r2, r8
 800b184:	bf98      	it	ls
 800b186:	4613      	movls	r3, r2
 800b188:	f837 2013 	ldrh.w	r2, [r7, r3, lsl #1]
 800b18c:	3301      	adds	r3, #1
 800b18e:	6003      	str	r3, [r0, #0]
 800b190:	f8ce 2014 	str.w	r2, [lr, #20]
 800b194:	bf00      	nop
 800b196:	bf00      	nop
 800b198:	bf00      	nop
 800b19a:	bf00      	nop
 800b19c:	bf00      	nop
 800b19e:	bf00      	nop
 800b1a0:	f8c1 c018 	str.w	ip, [r1, #24]
 800b1a4:	bf00      	nop
 800b1a6:	bf00      	nop
 800b1a8:	bf00      	nop
 800b1aa:	bf00      	nop
 800b1ac:	bf00      	nop
 800b1ae:	bf00      	nop
 800b1b0:	618e      	str	r6, [r1, #24]
 800b1b2:	bf00      	nop
 800b1b4:	bf00      	nop
 800b1b6:	bf00      	nop
 800b1b8:	bf00      	nop
 800b1ba:	bf00      	nop
 800b1bc:	bf00      	nop
 800b1be:	6803      	ldr	r3, [r0, #0]
 800b1c0:	4543      	cmp	r3, r8
 800b1c2:	bf88      	it	hi
 800b1c4:	6004      	strhi	r4, [r0, #0]
 800b1c6:	e75a      	b.n	800b07e <EXTI9_5_IRQHandler+0x16>
 800b1c8:	40013c00 	.word	0x40013c00
 800b1cc:	20000344 	.word	0x20000344
 800b1d0:	20000350 	.word	0x20000350
 800b1d4:	40020800 	.word	0x40020800
 800b1d8:	2000034c 	.word	0x2000034c
 800b1dc:	2000035c 	.word	0x2000035c
 800b1e0:	20000010 	.word	0x20000010
 800b1e4:	40020400 	.word	0x40020400

0800b1e8 <DMA2_Stream3_IRQHandler>:
 800b1e8:	4b0a      	ldr	r3, [pc, #40]	; (800b214 <DMA2_Stream3_IRQHandler+0x2c>)
 800b1ea:	681a      	ldr	r2, [r3, #0]
 800b1ec:	0151      	lsls	r1, r2, #5
 800b1ee:	d506      	bpl.n	800b1fe <DMA2_Stream3_IRQHandler+0x16>
 800b1f0:	4909      	ldr	r1, [pc, #36]	; (800b218 <DMA2_Stream3_IRQHandler+0x30>)
 800b1f2:	2001      	movs	r0, #1
 800b1f4:	f04f 6280 	mov.w	r2, #67108864	; 0x4000000
 800b1f8:	6008      	str	r0, [r1, #0]
 800b1fa:	609a      	str	r2, [r3, #8]
 800b1fc:	4770      	bx	lr
 800b1fe:	681a      	ldr	r2, [r3, #0]
 800b200:	0112      	lsls	r2, r2, #4
 800b202:	d505      	bpl.n	800b210 <DMA2_Stream3_IRQHandler+0x28>
 800b204:	4904      	ldr	r1, [pc, #16]	; (800b218 <DMA2_Stream3_IRQHandler+0x30>)
 800b206:	2002      	movs	r0, #2
 800b208:	f04f 6200 	mov.w	r2, #134217728	; 0x8000000
 800b20c:	6008      	str	r0, [r1, #0]
 800b20e:	609a      	str	r2, [r3, #8]
 800b210:	4770      	bx	lr
 800b212:	bf00      	nop
 800b214:	40026400 	.word	0x40026400
 800b218:	20000354 	.word	0x20000354

0800b21c <_sbrk>:
 800b21c:	490d      	ldr	r1, [pc, #52]	; (800b254 <_sbrk+0x38>)
 800b21e:	680a      	ldr	r2, [r1, #0]
 800b220:	b508      	push	{r3, lr}
 800b222:	4603      	mov	r3, r0
 800b224:	b132      	cbz	r2, 800b234 <_sbrk+0x18>
 800b226:	4413      	add	r3, r2
 800b228:	4668      	mov	r0, sp
 800b22a:	4283      	cmp	r3, r0
 800b22c:	d809      	bhi.n	800b242 <_sbrk+0x26>
 800b22e:	4610      	mov	r0, r2
 800b230:	600b      	str	r3, [r1, #0]
 800b232:	bd08      	pop	{r3, pc}
 800b234:	4808      	ldr	r0, [pc, #32]	; (800b258 <_sbrk+0x3c>)
 800b236:	4602      	mov	r2, r0
 800b238:	6008      	str	r0, [r1, #0]
 800b23a:	4668      	mov	r0, sp
 800b23c:	4413      	add	r3, r2
 800b23e:	4283      	cmp	r3, r0
 800b240:	d9f5      	bls.n	800b22e <_sbrk+0x12>
 800b242:	f000 fcc7 	bl	800bbd4 <__errno>
 800b246:	230c      	movs	r3, #12
 800b248:	f04f 32ff 	mov.w	r2, #4294967295
 800b24c:	6003      	str	r3, [r0, #0]
 800b24e:	4610      	mov	r0, r2
 800b250:	bd08      	pop	{r3, pc}
 800b252:	bf00      	nop
 800b254:	20000374 	.word	0x20000374
 800b258:	20015360 	.word	0x20015360

0800b25c <SystemInit>:
 800b25c:	4a0e      	ldr	r2, [pc, #56]	; (800b298 <SystemInit+0x3c>)
 800b25e:	4b0f      	ldr	r3, [pc, #60]	; (800b29c <SystemInit+0x40>)
 800b260:	f8d2 0088 	ldr.w	r0, [r2, #136]	; 0x88
 800b264:	490e      	ldr	r1, [pc, #56]	; (800b2a0 <SystemInit+0x44>)
 800b266:	f440 0070 	orr.w	r0, r0, #15728640	; 0xf00000
 800b26a:	b470      	push	{r4, r5, r6}
 800b26c:	f8c2 0088 	str.w	r0, [r2, #136]	; 0x88
 800b270:	2400      	movs	r4, #0
 800b272:	6818      	ldr	r0, [r3, #0]
 800b274:	4e0b      	ldr	r6, [pc, #44]	; (800b2a4 <SystemInit+0x48>)
 800b276:	f040 0001 	orr.w	r0, r0, #1
 800b27a:	4d0b      	ldr	r5, [pc, #44]	; (800b2a8 <SystemInit+0x4c>)
 800b27c:	6018      	str	r0, [r3, #0]
 800b27e:	609c      	str	r4, [r3, #8]
 800b280:	6818      	ldr	r0, [r3, #0]
 800b282:	4001      	ands	r1, r0
 800b284:	6019      	str	r1, [r3, #0]
 800b286:	605e      	str	r6, [r3, #4]
 800b288:	6819      	ldr	r1, [r3, #0]
 800b28a:	f421 2180 	bic.w	r1, r1, #262144	; 0x40000
 800b28e:	6019      	str	r1, [r3, #0]
 800b290:	60dc      	str	r4, [r3, #12]
 800b292:	6095      	str	r5, [r2, #8]
 800b294:	bc70      	pop	{r4, r5, r6}
 800b296:	4770      	bx	lr
 800b298:	e000ed00 	.word	0xe000ed00
 800b29c:	40023800 	.word	0x40023800
 800b2a0:	fef6ffff 	.word	0xfef6ffff
 800b2a4:	24003010 	.word	0x24003010
 800b2a8:	08004000 	.word	0x08004000

0800b2ac <SystemCoreClockUpdate>:
 800b2ac:	4a16      	ldr	r2, [pc, #88]	; (800b308 <SystemCoreClockUpdate+0x5c>)
 800b2ae:	6893      	ldr	r3, [r2, #8]
 800b2b0:	f003 030c 	and.w	r3, r3, #12
 800b2b4:	2b04      	cmp	r3, #4
 800b2b6:	d00c      	beq.n	800b2d2 <SystemCoreClockUpdate+0x26>
 800b2b8:	2b08      	cmp	r3, #8
 800b2ba:	d00c      	beq.n	800b2d6 <SystemCoreClockUpdate+0x2a>
 800b2bc:	4b13      	ldr	r3, [pc, #76]	; (800b30c <SystemCoreClockUpdate+0x60>)
 800b2be:	4a12      	ldr	r2, [pc, #72]	; (800b308 <SystemCoreClockUpdate+0x5c>)
 800b2c0:	4813      	ldr	r0, [pc, #76]	; (800b310 <SystemCoreClockUpdate+0x64>)
 800b2c2:	6892      	ldr	r2, [r2, #8]
 800b2c4:	4913      	ldr	r1, [pc, #76]	; (800b314 <SystemCoreClockUpdate+0x68>)
 800b2c6:	f3c2 1203 	ubfx	r2, r2, #4, #4
 800b2ca:	5c82      	ldrb	r2, [r0, r2]
 800b2cc:	40d3      	lsrs	r3, r2
 800b2ce:	600b      	str	r3, [r1, #0]
 800b2d0:	4770      	bx	lr
 800b2d2:	4b11      	ldr	r3, [pc, #68]	; (800b318 <SystemCoreClockUpdate+0x6c>)
 800b2d4:	e7f3      	b.n	800b2be <SystemCoreClockUpdate+0x12>
 800b2d6:	6850      	ldr	r0, [r2, #4]
 800b2d8:	6851      	ldr	r1, [r2, #4]
 800b2da:	0243      	lsls	r3, r0, #9
 800b2dc:	6852      	ldr	r2, [r2, #4]
 800b2de:	f001 013f 	and.w	r1, r1, #63	; 0x3f
 800b2e2:	bf48      	it	mi
 800b2e4:	4b0c      	ldrmi	r3, [pc, #48]	; (800b318 <SystemCoreClockUpdate+0x6c>)
 800b2e6:	f3c2 1288 	ubfx	r2, r2, #6, #9
 800b2ea:	bf58      	it	pl
 800b2ec:	4b07      	ldrpl	r3, [pc, #28]	; (800b30c <SystemCoreClockUpdate+0x60>)
 800b2ee:	fbb3 f3f1 	udiv	r3, r3, r1
 800b2f2:	fb03 f302 	mul.w	r3, r3, r2
 800b2f6:	4a04      	ldr	r2, [pc, #16]	; (800b308 <SystemCoreClockUpdate+0x5c>)
 800b2f8:	6852      	ldr	r2, [r2, #4]
 800b2fa:	f3c2 4201 	ubfx	r2, r2, #16, #2
 800b2fe:	3201      	adds	r2, #1
 800b300:	0052      	lsls	r2, r2, #1
 800b302:	fbb3 f3f2 	udiv	r3, r3, r2
 800b306:	e7da      	b.n	800b2be <SystemCoreClockUpdate+0x12>
 800b308:	40023800 	.word	0x40023800
 800b30c:	00f42400 	.word	0x00f42400
 800b310:	0800d12c 	.word	0x0800d12c
 800b314:	20000014 	.word	0x20000014
 800b318:	007a1200 	.word	0x007a1200

0800b31c <CheckUpdateFile>:
 800b31c:	b570      	push	{r4, r5, r6, lr}
 800b31e:	2201      	movs	r2, #1
 800b320:	b088      	sub	sp, #32
 800b322:	4927      	ldr	r1, [pc, #156]	; (800b3c0 <CheckUpdateFile+0xa4>)
 800b324:	4827      	ldr	r0, [pc, #156]	; (800b3c4 <CheckUpdateFile+0xa8>)
 800b326:	f7fb fded 	bl	8006f04 <f_open>
 800b32a:	b110      	cbz	r0, 800b332 <CheckUpdateFile+0x16>
 800b32c:	2001      	movs	r0, #1
 800b32e:	b008      	add	sp, #32
 800b330:	bd70      	pop	{r4, r5, r6, pc}
 800b332:	220c      	movs	r2, #12
 800b334:	a901      	add	r1, sp, #4
 800b336:	4823      	ldr	r0, [pc, #140]	; (800b3c4 <CheckUpdateFile+0xa8>)
 800b338:	466b      	mov	r3, sp
 800b33a:	f7fb ffe1 	bl	8007300 <f_read>
 800b33e:	4604      	mov	r4, r0
 800b340:	2800      	cmp	r0, #0
 800b342:	d132      	bne.n	800b3aa <CheckUpdateFile+0x8e>
 800b344:	4b20      	ldr	r3, [pc, #128]	; (800b3c8 <CheckUpdateFile+0xac>)
 800b346:	9a01      	ldr	r2, [sp, #4]
 800b348:	429a      	cmp	r2, r3
 800b34a:	d128      	bne.n	800b39e <CheckUpdateFile+0x82>
 800b34c:	9b02      	ldr	r3, [sp, #8]
 800b34e:	3b01      	subs	r3, #1
 800b350:	2b1f      	cmp	r3, #31
 800b352:	d824      	bhi.n	800b39e <CheckUpdateFile+0x82>
 800b354:	9903      	ldr	r1, [sp, #12]
 800b356:	481b      	ldr	r0, [pc, #108]	; (800b3c4 <CheckUpdateFile+0xa8>)
 800b358:	f7fc faf4 	bl	8007944 <f_lseek>
 800b35c:	9b02      	ldr	r3, [sp, #8]
 800b35e:	b34b      	cbz	r3, 800b3b4 <CheckUpdateFile+0x98>
 800b360:	4e18      	ldr	r6, [pc, #96]	; (800b3c4 <CheckUpdateFile+0xa8>)
 800b362:	4d1a      	ldr	r5, [pc, #104]	; (800b3cc <CheckUpdateFile+0xb0>)
 800b364:	e003      	b.n	800b36e <CheckUpdateFile+0x52>
 800b366:	3401      	adds	r4, #1
 800b368:	9b02      	ldr	r3, [sp, #8]
 800b36a:	429c      	cmp	r4, r3
 800b36c:	d20a      	bcs.n	800b384 <CheckUpdateFile+0x68>
 800b36e:	2210      	movs	r2, #16
 800b370:	466b      	mov	r3, sp
 800b372:	4630      	mov	r0, r6
 800b374:	eb0d 0102 	add.w	r1, sp, r2
 800b378:	f7fb ffc2 	bl	8007300 <f_read>
 800b37c:	9b06      	ldr	r3, [sp, #24]
 800b37e:	42ab      	cmp	r3, r5
 800b380:	d1f1      	bne.n	800b366 <CheckUpdateFile+0x4a>
 800b382:	9b02      	ldr	r3, [sp, #8]
 800b384:	42a3      	cmp	r3, r4
 800b386:	d015      	beq.n	800b3b4 <CheckUpdateFile+0x98>
 800b388:	4a11      	ldr	r2, [pc, #68]	; (800b3d0 <CheckUpdateFile+0xb4>)
 800b38a:	2000      	movs	r0, #0
 800b38c:	9d04      	ldr	r5, [sp, #16]
 800b38e:	4911      	ldr	r1, [pc, #68]	; (800b3d4 <CheckUpdateFile+0xb8>)
 800b390:	6015      	str	r5, [r2, #0]
 800b392:	9c03      	ldr	r4, [sp, #12]
 800b394:	4a10      	ldr	r2, [pc, #64]	; (800b3d8 <CheckUpdateFile+0xbc>)
 800b396:	600c      	str	r4, [r1, #0]
 800b398:	6013      	str	r3, [r2, #0]
 800b39a:	b008      	add	sp, #32
 800b39c:	bd70      	pop	{r4, r5, r6, pc}
 800b39e:	4809      	ldr	r0, [pc, #36]	; (800b3c4 <CheckUpdateFile+0xa8>)
 800b3a0:	f7fc fa44 	bl	800782c <f_close>
 800b3a4:	2003      	movs	r0, #3
 800b3a6:	b008      	add	sp, #32
 800b3a8:	bd70      	pop	{r4, r5, r6, pc}
 800b3aa:	4806      	ldr	r0, [pc, #24]	; (800b3c4 <CheckUpdateFile+0xa8>)
 800b3ac:	f7fc fa3e 	bl	800782c <f_close>
 800b3b0:	2002      	movs	r0, #2
 800b3b2:	e7bc      	b.n	800b32e <CheckUpdateFile+0x12>
 800b3b4:	4803      	ldr	r0, [pc, #12]	; (800b3c4 <CheckUpdateFile+0xa8>)
 800b3b6:	f7fc fa39 	bl	800782c <f_close>
 800b3ba:	2004      	movs	r0, #4
 800b3bc:	e7b7      	b.n	800b32e <CheckUpdateFile+0x12>
 800b3be:	bf00      	nop
 800b3c0:	200152f0 	.word	0x200152f0
 800b3c4:	20000378 	.word	0x20000378
 800b3c8:	44415749 	.word	0x44415749
 800b3cc:	444c5043 	.word	0x444c5043
 800b3d0:	20015308 	.word	0x20015308
 800b3d4:	20015304 	.word	0x20015304
 800b3d8:	20015300 	.word	0x20015300

0800b3dc <CPLDUpdate>:
 800b3dc:	b5f0      	push	{r4, r5, r6, r7, lr}
 800b3de:	4f26      	ldr	r7, [pc, #152]	; (800b478 <CPLDUpdate+0x9c>)
 800b3e0:	b083      	sub	sp, #12
 800b3e2:	f7fe fce9 	bl	8009db8 <JTAG_Reset>
 800b3e6:	4825      	ldr	r0, [pc, #148]	; (800b47c <CPLDUpdate+0xa0>)
 800b3e8:	6839      	ldr	r1, [r7, #0]
 800b3ea:	241a      	movs	r4, #26
 800b3ec:	f7fc faaa 	bl	8007944 <f_lseek>
 800b3f0:	4d23      	ldr	r5, [pc, #140]	; (800b480 <CPLDUpdate+0xa4>)
 800b3f2:	f7fe febf 	bl	800a174 <JTAG_Enable>
 800b3f6:	4e21      	ldr	r6, [pc, #132]	; (800b47c <CPLDUpdate+0xa0>)
 800b3f8:	f7fe fe90 	bl	800a11c <JTAG_Erase>
 800b3fc:	f7fe fee0 	bl	800a1c0 <JTAG_StartProgram>
 800b400:	2004      	movs	r0, #4
 800b402:	f7ff f865 	bl	800a4d0 <setLED>
 800b406:	ab01      	add	r3, sp, #4
 800b408:	f44f 7280 	mov.w	r2, #256	; 0x100
 800b40c:	4629      	mov	r1, r5
 800b40e:	4630      	mov	r0, r6
 800b410:	f7fb ff76 	bl	8007300 <f_read>
 800b414:	2180      	movs	r1, #128	; 0x80
 800b416:	4628      	mov	r0, r5
 800b418:	f7fe fee2 	bl	800a1e0 <JTAG_Program>
 800b41c:	3c01      	subs	r4, #1
 800b41e:	d1f2      	bne.n	800b406 <CPLDUpdate+0x2a>
 800b420:	4e16      	ldr	r6, [pc, #88]	; (800b47c <CPLDUpdate+0xa0>)
 800b422:	241a      	movs	r4, #26
 800b424:	6839      	ldr	r1, [r7, #0]
 800b426:	4630      	mov	r0, r6
 800b428:	4d15      	ldr	r5, [pc, #84]	; (800b480 <CPLDUpdate+0xa4>)
 800b42a:	f7fc fa8b 	bl	8007944 <f_lseek>
 800b42e:	f7fe ff6d 	bl	800a30c <JTAG_StartRead>
 800b432:	e001      	b.n	800b438 <CPLDUpdate+0x5c>
 800b434:	3c01      	subs	r4, #1
 800b436:	d015      	beq.n	800b464 <CPLDUpdate+0x88>
 800b438:	4629      	mov	r1, r5
 800b43a:	ab01      	add	r3, sp, #4
 800b43c:	f44f 7280 	mov.w	r2, #256	; 0x100
 800b440:	4630      	mov	r0, r6
 800b442:	f7fb ff5d 	bl	8007300 <f_read>
 800b446:	2180      	movs	r1, #128	; 0x80
 800b448:	4628      	mov	r0, r5
 800b44a:	f7fe ff6f 	bl	800a32c <JTAG_Verify>
 800b44e:	2800      	cmp	r0, #0
 800b450:	d0f0      	beq.n	800b434 <CPLDUpdate+0x58>
 800b452:	2404      	movs	r4, #4
 800b454:	2000      	movs	r0, #0
 800b456:	f7ff f83b 	bl	800a4d0 <setLED>
 800b45a:	f7fe fe99 	bl	800a190 <JTAG_Disable>
 800b45e:	4620      	mov	r0, r4
 800b460:	b003      	add	sp, #12
 800b462:	bdf0      	pop	{r4, r5, r6, r7, pc}
 800b464:	f7ff f834 	bl	800a4d0 <setLED>
 800b468:	f7fe fffa 	bl	800a460 <JTAG_ProgramDone>
 800b46c:	f7fe fe90 	bl	800a190 <JTAG_Disable>
 800b470:	4620      	mov	r0, r4
 800b472:	b003      	add	sp, #12
 800b474:	bdf0      	pop	{r4, r5, r6, r7, pc}
 800b476:	bf00      	nop
 800b478:	20015308 	.word	0x20015308
 800b47c:	20000378 	.word	0x20000378
 800b480:	20004c30 	.word	0x20004c30

0800b484 <DumpSystemROM>:
 800b484:	e92d 41f0 	stmdb	sp!, {r4, r5, r6, r7, r8, lr}
 800b488:	f5ad 7d0e 	sub.w	sp, sp, #568	; 0x238
 800b48c:	220a      	movs	r2, #10
 800b48e:	4936      	ldr	r1, [pc, #216]	; (800b568 <DumpSystemROM+0xe4>)
 800b490:	a802      	add	r0, sp, #8
 800b492:	f7fb fd37 	bl	8006f04 <f_open>
 800b496:	b128      	cbz	r0, 800b4a4 <DumpSystemROM+0x20>
 800b498:	2500      	movs	r5, #0
 800b49a:	4628      	mov	r0, r5
 800b49c:	f50d 7d0e 	add.w	sp, sp, #568	; 0x238
 800b4a0:	e8bd 81f0 	ldmia.w	sp!, {r4, r5, r6, r7, r8, pc}
 800b4a4:	4605      	mov	r5, r0
 800b4a6:	2001      	movs	r0, #1
 800b4a8:	f000 fac0 	bl	800ba2c <SetMode>
 800b4ac:	2101      	movs	r1, #1
 800b4ae:	4628      	mov	r0, r5
 800b4b0:	4f2e      	ldr	r7, [pc, #184]	; (800b56c <DumpSystemROM+0xe8>)
 800b4b2:	f7fe f8ff 	bl	80096b4 <ReadMem>
 800b4b6:	462c      	mov	r4, r5
 800b4b8:	0a03      	lsrs	r3, r0, #8
 800b4ba:	f641 76ff 	movw	r6, #8191	; 0x1fff
 800b4be:	4605      	mov	r5, r0
 800b4c0:	f107 0802 	add.w	r8, r7, #2
 800b4c4:	703b      	strb	r3, [r7, #0]
 800b4c6:	f3c4 030d 	ubfx	r3, r4, #0, #14
 800b4ca:	7078      	strb	r0, [r7, #1]
 800b4cc:	b1d3      	cbz	r3, 800b504 <DumpSystemROM+0x80>
 800b4ce:	42b3      	cmp	r3, r6
 800b4d0:	d046      	beq.n	800b560 <DumpSystemROM+0xdc>
 800b4d2:	2101      	movs	r1, #1
 800b4d4:	440c      	add	r4, r1
 800b4d6:	f5b4 2f80 	cmp.w	r4, #262144	; 0x40000
 800b4da:	4620      	mov	r0, r4
 800b4dc:	d01b      	beq.n	800b516 <DumpSystemROM+0x92>
 800b4de:	f7fe f8e9 	bl	80096b4 <ReadMem>
 800b4e2:	f004 027f 	and.w	r2, r4, #127	; 0x7f
 800b4e6:	4643      	mov	r3, r8
 800b4e8:	4405      	add	r5, r0
 800b4ea:	0a01      	lsrs	r1, r0, #8
 800b4ec:	2a7f      	cmp	r2, #127	; 0x7f
 800b4ee:	b2ad      	uxth	r5, r5
 800b4f0:	f803 1b02 	strb.w	r1, [r3], #2
 800b4f4:	f888 0001 	strb.w	r0, [r8, #1]
 800b4f8:	d018      	beq.n	800b52c <DumpSystemROM+0xa8>
 800b4fa:	4698      	mov	r8, r3
 800b4fc:	f3c4 030d 	ubfx	r3, r4, #0, #14
 800b500:	2b00      	cmp	r3, #0
 800b502:	d1e4      	bne.n	800b4ce <DumpSystemROM+0x4a>
 800b504:	2004      	movs	r0, #4
 800b506:	f7fe ffe3 	bl	800a4d0 <setLED>
 800b50a:	2101      	movs	r1, #1
 800b50c:	440c      	add	r4, r1
 800b50e:	f5b4 2f80 	cmp.w	r4, #262144	; 0x40000
 800b512:	4620      	mov	r0, r4
 800b514:	d1e3      	bne.n	800b4de <DumpSystemROM+0x5a>
 800b516:	a802      	add	r0, sp, #8
 800b518:	f7fc f988 	bl	800782c <f_close>
 800b51c:	2000      	movs	r0, #0
 800b51e:	f7fe ffd7 	bl	800a4d0 <setLED>
 800b522:	4628      	mov	r0, r5
 800b524:	f50d 7d0e 	add.w	sp, sp, #568	; 0x238
 800b528:	e8bd 81f0 	ldmia.w	sp!, {r4, r5, r6, r7, r8, pc}
 800b52c:	f44f 7280 	mov.w	r2, #256	; 0x100
 800b530:	ab01      	add	r3, sp, #4
 800b532:	4639      	mov	r1, r7
 800b534:	a802      	add	r0, sp, #8
 800b536:	f7fc f819 	bl	800756c <f_write>
 800b53a:	9a01      	ldr	r2, [sp, #4]
 800b53c:	463b      	mov	r3, r7
 800b53e:	f5b2 7f80 	cmp.w	r2, #256	; 0x100
 800b542:	d101      	bne.n	800b548 <DumpSystemROM+0xc4>
 800b544:	2800      	cmp	r0, #0
 800b546:	d0d8      	beq.n	800b4fa <DumpSystemROM+0x76>
 800b548:	2500      	movs	r5, #0
 800b54a:	a802      	add	r0, sp, #8
 800b54c:	f7fc f96e 	bl	800782c <f_close>
 800b550:	4628      	mov	r0, r5
 800b552:	f7fe ffbd 	bl	800a4d0 <setLED>
 800b556:	4628      	mov	r0, r5
 800b558:	f50d 7d0e 	add.w	sp, sp, #568	; 0x238
 800b55c:	e8bd 81f0 	ldmia.w	sp!, {r4, r5, r6, r7, r8, pc}
 800b560:	2000      	movs	r0, #0
 800b562:	f7fe ffb5 	bl	800a4d0 <setLED>
 800b566:	e7b4      	b.n	800b4d2 <DumpSystemROM+0x4e>
 800b568:	0800d140 	.word	0x0800d140
 800b56c:	20004c30 	.word	0x20004c30

0800b570 <DoUpdate>:
 800b570:	e92d 4ff0 	stmdb	sp!, {r4, r5, r6, r7, r8, r9, sl, fp, lr}
 800b574:	f5ad 7d21 	sub.w	sp, sp, #644	; 0x284
 800b578:	4993      	ldr	r1, [pc, #588]	; (800b7c8 <DoUpdate+0x258>)
 800b57a:	a807      	add	r0, sp, #28
 800b57c:	f7fc fbac 	bl	8007cd8 <f_opendir>
 800b580:	b130      	cbz	r0, 800b590 <DoUpdate+0x20>
 800b582:	2301      	movs	r3, #1
 800b584:	9301      	str	r3, [sp, #4]
 800b586:	9801      	ldr	r0, [sp, #4]
 800b588:	f50d 7d21 	add.w	sp, sp, #644	; 0x284
 800b58c:	e8bd 8ff0 	ldmia.w	sp!, {r4, r5, r6, r7, r8, r9, sl, fp, pc}
 800b590:	f10d 0950 	add.w	r9, sp, #80	; 0x50
 800b594:	4604      	mov	r4, r0
 800b596:	4a8d      	ldr	r2, [pc, #564]	; (800b7cc <DoUpdate+0x25c>)
 800b598:	a807      	add	r0, sp, #28
 800b59a:	4649      	mov	r1, r9
 800b59c:	f7fd fdfc 	bl	8009198 <search_ext>
 800b5a0:	b948      	cbnz	r0, 800b5b6 <DoUpdate+0x46>
 800b5a2:	2301      	movs	r3, #1
 800b5a4:	a807      	add	r0, sp, #28
 800b5a6:	9301      	str	r3, [sp, #4]
 800b5a8:	f7fc fc16 	bl	8007dd8 <f_closedir>
 800b5ac:	9801      	ldr	r0, [sp, #4]
 800b5ae:	f50d 7d21 	add.w	sp, sp, #644	; 0x284
 800b5b2:	e8bd 8ff0 	ldmia.w	sp!, {r4, r5, r6, r7, r8, r9, sl, fp, pc}
 800b5b6:	4b86      	ldr	r3, [pc, #536]	; (800b7d0 <DoUpdate+0x260>)
 800b5b8:	a807      	add	r0, sp, #28
 800b5ba:	f8dd 106a 	ldr.w	r1, [sp, #106]	; 0x6a
 800b5be:	f8dd 206e 	ldr.w	r2, [sp, #110]	; 0x6e
 800b5c2:	f8dd 5066 	ldr.w	r5, [sp, #102]	; 0x66
 800b5c6:	6059      	str	r1, [r3, #4]
 800b5c8:	601d      	str	r5, [r3, #0]
 800b5ca:	609a      	str	r2, [r3, #8]
 800b5cc:	731c      	strb	r4, [r3, #12]
 800b5ce:	f7fc fc03 	bl	8007dd8 <f_closedir>
 800b5d2:	f7ff fea3 	bl	800b31c <CheckUpdateFile>
 800b5d6:	9001      	str	r0, [sp, #4]
 800b5d8:	2800      	cmp	r0, #0
 800b5da:	d171      	bne.n	800b6c0 <DoUpdate+0x150>
 800b5dc:	4b7d      	ldr	r3, [pc, #500]	; (800b7d4 <DoUpdate+0x264>)
 800b5de:	f44f 2200 	mov.w	r2, #524288	; 0x80000
 800b5e2:	619a      	str	r2, [r3, #24]
 800b5e4:	f7ff fefa 	bl	800b3dc <CPLDUpdate>
 800b5e8:	2800      	cmp	r0, #0
 800b5ea:	d160      	bne.n	800b6ae <DoUpdate+0x13e>
 800b5ec:	f7ff ff4a 	bl	800b484 <DumpSystemROM>
 800b5f0:	4604      	mov	r4, r0
 800b5f2:	2800      	cmp	r0, #0
 800b5f4:	f000 80cb 	beq.w	800b78e <DoUpdate+0x21e>
 800b5f8:	4b77      	ldr	r3, [pc, #476]	; (800b7d8 <DoUpdate+0x268>)
 800b5fa:	4878      	ldr	r0, [pc, #480]	; (800b7dc <DoUpdate+0x26c>)
 800b5fc:	6819      	ldr	r1, [r3, #0]
 800b5fe:	4d78      	ldr	r5, [pc, #480]	; (800b7e0 <DoUpdate+0x270>)
 800b600:	f7fc f9a0 	bl	8007944 <f_lseek>
 800b604:	4622      	mov	r2, r4
 800b606:	4977      	ldr	r1, [pc, #476]	; (800b7e4 <DoUpdate+0x274>)
 800b608:	4877      	ldr	r0, [pc, #476]	; (800b7e8 <DoUpdate+0x278>)
 800b60a:	f000 fbeb 	bl	800bde4 <siprintf>
 800b60e:	682b      	ldr	r3, [r5, #0]
 800b610:	2b00      	cmp	r3, #0
 800b612:	f000 80ca 	beq.w	800b7aa <DoUpdate+0x23a>
 800b616:	2400      	movs	r4, #0
 800b618:	4f70      	ldr	r7, [pc, #448]	; (800b7dc <DoUpdate+0x26c>)
 800b61a:	4e73      	ldr	r6, [pc, #460]	; (800b7e8 <DoUpdate+0x278>)
 800b61c:	e003      	b.n	800b626 <DoUpdate+0xb6>
 800b61e:	3401      	adds	r4, #1
 800b620:	682b      	ldr	r3, [r5, #0]
 800b622:	42a3      	cmp	r3, r4
 800b624:	d90d      	bls.n	800b642 <DoUpdate+0xd2>
 800b626:	2210      	movs	r2, #16
 800b628:	a907      	add	r1, sp, #28
 800b62a:	ab03      	add	r3, sp, #12
 800b62c:	4638      	mov	r0, r7
 800b62e:	f7fb fe67 	bl	8007300 <f_read>
 800b632:	2208      	movs	r2, #8
 800b634:	4631      	mov	r1, r6
 800b636:	a809      	add	r0, sp, #36	; 0x24
 800b638:	f000 faf6 	bl	800bc28 <memcmp>
 800b63c:	2800      	cmp	r0, #0
 800b63e:	d1ee      	bne.n	800b61e <DoUpdate+0xae>
 800b640:	682b      	ldr	r3, [r5, #0]
 800b642:	429c      	cmp	r4, r3
 800b644:	f000 80b1 	beq.w	800b7aa <DoUpdate+0x23a>
 800b648:	4e64      	ldr	r6, [pc, #400]	; (800b7dc <DoUpdate+0x26c>)
 800b64a:	2203      	movs	r2, #3
 800b64c:	4967      	ldr	r1, [pc, #412]	; (800b7ec <DoUpdate+0x27c>)
 800b64e:	4648      	mov	r0, r9
 800b650:	f8df 8194 	ldr.w	r8, [pc, #404]	; 800b7e8 <DoUpdate+0x278>
 800b654:	f7fb fc56 	bl	8006f04 <f_open>
 800b658:	9907      	ldr	r1, [sp, #28]
 800b65a:	4630      	mov	r0, r6
 800b65c:	4645      	mov	r5, r8
 800b65e:	f7fc f971 	bl	8007944 <f_lseek>
 800b662:	4629      	mov	r1, r5
 800b664:	ab03      	add	r3, sp, #12
 800b666:	2206      	movs	r2, #6
 800b668:	4630      	mov	r0, r6
 800b66a:	f7fb fe49 	bl	8007300 <f_read>
 800b66e:	f8d8 1000 	ldr.w	r1, [r8]
 800b672:	f5b1 2f00 	cmp.w	r1, #524288	; 0x80000
 800b676:	d23b      	bcs.n	800b6f0 <DoUpdate+0x180>
 800b678:	1e04      	subs	r4, r0, #0
 800b67a:	bf18      	it	ne
 800b67c:	2401      	movne	r4, #1
 800b67e:	bb30      	cbnz	r0, 800b6ce <DoUpdate+0x15e>
 800b680:	f8b8 7004 	ldrh.w	r7, [r8, #4]
 800b684:	4648      	mov	r0, r9
 800b686:	f7fc f95d 	bl	8007944 <f_lseek>
 800b68a:	2f00      	cmp	r7, #0
 800b68c:	d0e9      	beq.n	800b662 <DoUpdate+0xf2>
 800b68e:	ab03      	add	r3, sp, #12
 800b690:	2201      	movs	r2, #1
 800b692:	4629      	mov	r1, r5
 800b694:	3401      	adds	r4, #1
 800b696:	4630      	mov	r0, r6
 800b698:	f7fb fe32 	bl	8007300 <f_read>
 800b69c:	ab03      	add	r3, sp, #12
 800b69e:	2201      	movs	r2, #1
 800b6a0:	4629      	mov	r1, r5
 800b6a2:	4648      	mov	r0, r9
 800b6a4:	f7fb ff62 	bl	800756c <f_write>
 800b6a8:	42a7      	cmp	r7, r4
 800b6aa:	d1f0      	bne.n	800b68e <DoUpdate+0x11e>
 800b6ac:	e7d9      	b.n	800b662 <DoUpdate+0xf2>
 800b6ae:	4b50      	ldr	r3, [pc, #320]	; (800b7f0 <DoUpdate+0x280>)
 800b6b0:	e893 0007 	ldmia.w	r3, {r0, r1, r2}
 800b6b4:	e889 0007 	stmia.w	r9, {r0, r1, r2}
 800b6b8:	4648      	mov	r0, r9
 800b6ba:	f7fe ff15 	bl	800a4e8 <blink_code>
 800b6be:	e795      	b.n	800b5ec <DoUpdate+0x7c>
 800b6c0:	2302      	movs	r3, #2
 800b6c2:	9301      	str	r3, [sp, #4]
 800b6c4:	9801      	ldr	r0, [sp, #4]
 800b6c6:	f50d 7d21 	add.w	sp, sp, #644	; 0x284
 800b6ca:	e8bd 8ff0 	ldmia.w	sp!, {r4, r5, r6, r7, r8, r9, sl, fp, pc}
 800b6ce:	2301      	movs	r3, #1
 800b6d0:	4648      	mov	r0, r9
 800b6d2:	9301      	str	r3, [sp, #4]
 800b6d4:	f7fc f8aa 	bl	800782c <f_close>
 800b6d8:	4840      	ldr	r0, [pc, #256]	; (800b7dc <DoUpdate+0x26c>)
 800b6da:	f7fc f8a7 	bl	800782c <f_close>
 800b6de:	4a45      	ldr	r2, [pc, #276]	; (800b7f4 <DoUpdate+0x284>)
 800b6e0:	ab04      	add	r3, sp, #16
 800b6e2:	ca07      	ldmia	r2, {r0, r1, r2}
 800b6e4:	e883 0007 	stmia.w	r3, {r0, r1, r2}
 800b6e8:	4618      	mov	r0, r3
 800b6ea:	f7fe fefd 	bl	800a4e8 <blink_code>
 800b6ee:	e74a      	b.n	800b586 <DoUpdate+0x16>
 800b6f0:	4682      	mov	sl, r0
 800b6f2:	2800      	cmp	r0, #0
 800b6f4:	d1eb      	bne.n	800b6ce <DoUpdate+0x15e>
 800b6f6:	4d3c      	ldr	r5, [pc, #240]	; (800b7e8 <DoUpdate+0x278>)
 800b6f8:	4680      	mov	r8, r0
 800b6fa:	2780      	movs	r7, #128	; 0x80
 800b6fc:	f7fe f814 	bl	8009728 <EraseFlash>
 800b700:	1c6e      	adds	r6, r5, #1
 800b702:	4651      	mov	r1, sl
 800b704:	f5a5 2b00 	sub.w	fp, r5, #524288	; 0x80000
 800b708:	46aa      	mov	sl, r5
 800b70a:	4648      	mov	r0, r9
 800b70c:	f7fc f91a 	bl	8007944 <f_lseek>
 800b710:	ab03      	add	r3, sp, #12
 800b712:	f44f 7280 	mov.w	r2, #256	; 0x100
 800b716:	4651      	mov	r1, sl
 800b718:	4648      	mov	r0, r9
 800b71a:	ea4f 14c8 	mov.w	r4, r8, lsl #7
 800b71e:	f7fb fdef 	bl	8007300 <f_read>
 800b722:	f815 3014 	ldrb.w	r3, [r5, r4, lsl #1]
 800b726:	20a0      	movs	r0, #160	; 0xa0
 800b728:	f816 1014 	ldrb.w	r1, [r6, r4, lsl #1]
 800b72c:	eb01 2103 	add.w	r1, r1, r3, lsl #8
 800b730:	b289      	uxth	r1, r1
 800b732:	9100      	str	r1, [sp, #0]
 800b734:	f7fd ff1c 	bl	8009570 <CmdFlash>
 800b738:	4620      	mov	r0, r4
 800b73a:	3401      	adds	r4, #1
 800b73c:	9900      	ldr	r1, [sp, #0]
 800b73e:	f7fd ff8b 	bl	8009658 <WriteFlash>
 800b742:	42a7      	cmp	r7, r4
 800b744:	d1ed      	bne.n	800b722 <DoUpdate+0x1b2>
 800b746:	f018 03ff 	ands.w	r3, r8, #255	; 0xff
 800b74a:	d018      	beq.n	800b77e <DoUpdate+0x20e>
 800b74c:	2b7f      	cmp	r3, #127	; 0x7f
 800b74e:	d01a      	beq.n	800b786 <DoUpdate+0x216>
 800b750:	f5a5 7580 	sub.w	r5, r5, #256	; 0x100
 800b754:	f108 0801 	add.w	r8, r8, #1
 800b758:	f5a6 7680 	sub.w	r6, r6, #256	; 0x100
 800b75c:	3780      	adds	r7, #128	; 0x80
 800b75e:	455d      	cmp	r5, fp
 800b760:	d1d6      	bne.n	800b710 <DoUpdate+0x1a0>
 800b762:	2000      	movs	r0, #0
 800b764:	f7fe feb4 	bl	800a4d0 <setLED>
 800b768:	4648      	mov	r0, r9
 800b76a:	f7fc f85f 	bl	800782c <f_close>
 800b76e:	481b      	ldr	r0, [pc, #108]	; (800b7dc <DoUpdate+0x26c>)
 800b770:	f7fc f85c 	bl	800782c <f_close>
 800b774:	9801      	ldr	r0, [sp, #4]
 800b776:	f50d 7d21 	add.w	sp, sp, #644	; 0x284
 800b77a:	e8bd 8ff0 	ldmia.w	sp!, {r4, r5, r6, r7, r8, r9, sl, fp, pc}
 800b77e:	2004      	movs	r0, #4
 800b780:	f7fe fea6 	bl	800a4d0 <setLED>
 800b784:	e7e4      	b.n	800b750 <DoUpdate+0x1e0>
 800b786:	2000      	movs	r0, #0
 800b788:	f7fe fea2 	bl	800a4d0 <setLED>
 800b78c:	e7e0      	b.n	800b750 <DoUpdate+0x1e0>
 800b78e:	2303      	movs	r3, #3
 800b790:	4812      	ldr	r0, [pc, #72]	; (800b7dc <DoUpdate+0x26c>)
 800b792:	9301      	str	r3, [sp, #4]
 800b794:	f7fc f84a 	bl	800782c <f_close>
 800b798:	4b16      	ldr	r3, [pc, #88]	; (800b7f4 <DoUpdate+0x284>)
 800b79a:	e893 0007 	ldmia.w	r3, {r0, r1, r2}
 800b79e:	e889 0007 	stmia.w	r9, {r0, r1, r2}
 800b7a2:	4648      	mov	r0, r9
 800b7a4:	f7fe fea0 	bl	800a4e8 <blink_code>
 800b7a8:	e6ed      	b.n	800b586 <DoUpdate+0x16>
 800b7aa:	2304      	movs	r3, #4
 800b7ac:	480b      	ldr	r0, [pc, #44]	; (800b7dc <DoUpdate+0x26c>)
 800b7ae:	9301      	str	r3, [sp, #4]
 800b7b0:	f7fc f83c 	bl	800782c <f_close>
 800b7b4:	4b10      	ldr	r3, [pc, #64]	; (800b7f8 <DoUpdate+0x288>)
 800b7b6:	e893 0007 	ldmia.w	r3, {r0, r1, r2}
 800b7ba:	e889 0007 	stmia.w	r9, {r0, r1, r2}
 800b7be:	4648      	mov	r0, r9
 800b7c0:	f7fe fe92 	bl	800a4e8 <blink_code>
 800b7c4:	e6df      	b.n	800b586 <DoUpdate+0x16>
 800b7c6:	bf00      	nop
 800b7c8:	0800d020 	.word	0x0800d020
 800b7cc:	0800d13c 	.word	0x0800d13c
 800b7d0:	200152f0 	.word	0x200152f0
 800b7d4:	40020800 	.word	0x40020800
 800b7d8:	20015304 	.word	0x20015304
 800b7dc:	20000378 	.word	0x20000378
 800b7e0:	20015300 	.word	0x20015300
 800b7e4:	0800d14c 	.word	0x0800d14c
 800b7e8:	20004c30 	.word	0x20004c30
 800b7ec:	0800d140 	.word	0x0800d140
 800b7f0:	0800ceb4 	.word	0x0800ceb4
 800b7f4:	0800cec0 	.word	0x0800cec0
 800b7f8:	0800cecc 	.word	0x0800cecc

0800b7fc <USER_status>:
 800b7fc:	4b02      	ldr	r3, [pc, #8]	; (800b808 <USER_status+0xc>)
 800b7fe:	2200      	movs	r2, #0
 800b800:	701a      	strb	r2, [r3, #0]
 800b802:	7818      	ldrb	r0, [r3, #0]
 800b804:	4770      	bx	lr
 800b806:	bf00      	nop
 800b808:	20000018 	.word	0x20000018

0800b80c <USER_ioctl>:
 800b80c:	2000      	movs	r0, #0
 800b80e:	4770      	bx	lr

0800b810 <USER_initialize>:
 800b810:	2300      	movs	r3, #0
 800b812:	b510      	push	{r4, lr}
 800b814:	4c02      	ldr	r4, [pc, #8]	; (800b820 <USER_initialize+0x10>)
 800b816:	7023      	strb	r3, [r4, #0]
 800b818:	f7ff f946 	bl	800aaa8 <SD_Init>
 800b81c:	7820      	ldrb	r0, [r4, #0]
 800b81e:	bd10      	pop	{r4, pc}
 800b820:	20000018 	.word	0x20000018

0800b824 <USER_read>:
 800b824:	4844      	ldr	r0, [pc, #272]	; (800b938 <USER_read+0x114>)
 800b826:	6800      	ldr	r0, [r0, #0]
 800b828:	2803      	cmp	r0, #3
 800b82a:	e92d 47f0 	stmdb	sp!, {r4, r5, r6, r7, r8, r9, sl, lr}
 800b82e:	460c      	mov	r4, r1
 800b830:	4611      	mov	r1, r2
 800b832:	bf18      	it	ne
 800b834:	0251      	lslne	r1, r2, #9
 800b836:	2b01      	cmp	r3, #1
 800b838:	461e      	mov	r6, r3
 800b83a:	4627      	mov	r7, r4
 800b83c:	d03e      	beq.n	800b8bc <USER_read+0x98>
 800b83e:	2012      	movs	r0, #18
 800b840:	f7ff f866 	bl	800a910 <SD_Cmd>
 800b844:	2800      	cmp	r0, #0
 800b846:	d136      	bne.n	800b8b6 <USER_read+0x92>
 800b848:	b366      	cbz	r6, 800b8a4 <USER_read+0x80>
 800b84a:	f504 7900 	add.w	r9, r4, #512	; 0x200
 800b84e:	4605      	mov	r5, r0
 800b850:	f04f 08ff 	mov.w	r8, #255	; 0xff
 800b854:	4c39      	ldr	r4, [pc, #228]	; (800b93c <USER_read+0x118>)
 800b856:	f8df a0e8 	ldr.w	sl, [pc, #232]	; 800b940 <USER_read+0x11c>
 800b85a:	e006      	b.n	800b86a <USER_read+0x46>
 800b85c:	f1ba 0a01 	subs.w	sl, sl, #1
 800b860:	d029      	beq.n	800b8b6 <USER_read+0x92>
 800b862:	bf00      	nop
 800b864:	bf00      	nop
 800b866:	bf00      	nop
 800b868:	bf00      	nop
 800b86a:	20ff      	movs	r0, #255	; 0xff
 800b86c:	f7ff f81a 	bl	800a8a4 <SPI_Send>
 800b870:	28fe      	cmp	r0, #254	; 0xfe
 800b872:	d1f3      	bne.n	800b85c <USER_read+0x38>
 800b874:	4639      	mov	r1, r7
 800b876:	4643      	mov	r3, r8
 800b878:	7323      	strb	r3, [r4, #12]
 800b87a:	68a2      	ldr	r2, [r4, #8]
 800b87c:	0612      	lsls	r2, r2, #24
 800b87e:	d4fc      	bmi.n	800b87a <USER_read+0x56>
 800b880:	68e2      	ldr	r2, [r4, #12]
 800b882:	f801 2b01 	strb.w	r2, [r1], #1
 800b886:	4549      	cmp	r1, r9
 800b888:	d1f6      	bne.n	800b878 <USER_read+0x54>
 800b88a:	3501      	adds	r5, #1
 800b88c:	20ff      	movs	r0, #255	; 0xff
 800b88e:	f7ff f809 	bl	800a8a4 <SPI_Send>
 800b892:	20ff      	movs	r0, #255	; 0xff
 800b894:	f7ff f806 	bl	800a8a4 <SPI_Send>
 800b898:	42ae      	cmp	r6, r5
 800b89a:	f507 7700 	add.w	r7, r7, #512	; 0x200
 800b89e:	f509 7900 	add.w	r9, r9, #512	; 0x200
 800b8a2:	d1d8      	bne.n	800b856 <USER_read+0x32>
 800b8a4:	240b      	movs	r4, #11
 800b8a6:	2100      	movs	r1, #0
 800b8a8:	200c      	movs	r0, #12
 800b8aa:	f7ff f831 	bl	800a910 <SD_Cmd>
 800b8ae:	2800      	cmp	r0, #0
 800b8b0:	d034      	beq.n	800b91c <USER_read+0xf8>
 800b8b2:	3c01      	subs	r4, #1
 800b8b4:	d1f7      	bne.n	800b8a6 <USER_read+0x82>
 800b8b6:	2001      	movs	r0, #1
 800b8b8:	e8bd 87f0 	ldmia.w	sp!, {r4, r5, r6, r7, r8, r9, sl, pc}
 800b8bc:	2011      	movs	r0, #17
 800b8be:	f7ff f827 	bl	800a910 <SD_Cmd>
 800b8c2:	2800      	cmp	r0, #0
 800b8c4:	d1f7      	bne.n	800b8b6 <USER_read+0x92>
 800b8c6:	4d1e      	ldr	r5, [pc, #120]	; (800b940 <USER_read+0x11c>)
 800b8c8:	e005      	b.n	800b8d6 <USER_read+0xb2>
 800b8ca:	3d01      	subs	r5, #1
 800b8cc:	d0f3      	beq.n	800b8b6 <USER_read+0x92>
 800b8ce:	bf00      	nop
 800b8d0:	bf00      	nop
 800b8d2:	bf00      	nop
 800b8d4:	bf00      	nop
 800b8d6:	20ff      	movs	r0, #255	; 0xff
 800b8d8:	f7fe ffe4 	bl	800a8a4 <SPI_Send>
 800b8dc:	28fe      	cmp	r0, #254	; 0xfe
 800b8de:	d1f4      	bne.n	800b8ca <USER_read+0xa6>
 800b8e0:	1e60      	subs	r0, r4, #1
 800b8e2:	f204 11ff 	addw	r1, r4, #511	; 0x1ff
 800b8e6:	4a15      	ldr	r2, [pc, #84]	; (800b93c <USER_read+0x118>)
 800b8e8:	f04f 34ff 	mov.w	r4, #4294967295
 800b8ec:	7314      	strb	r4, [r2, #12]
 800b8ee:	6893      	ldr	r3, [r2, #8]
 800b8f0:	061d      	lsls	r5, r3, #24
 800b8f2:	d4fc      	bmi.n	800b8ee <USER_read+0xca>
 800b8f4:	68d3      	ldr	r3, [r2, #12]
 800b8f6:	f800 3f01 	strb.w	r3, [r0, #1]!
 800b8fa:	4288      	cmp	r0, r1
 800b8fc:	d1f6      	bne.n	800b8ec <USER_read+0xc8>
 800b8fe:	20ff      	movs	r0, #255	; 0xff
 800b900:	f7fe ffd0 	bl	800a8a4 <SPI_Send>
 800b904:	20ff      	movs	r0, #255	; 0xff
 800b906:	f7fe ffcd 	bl	800a8a4 <SPI_Send>
 800b90a:	4b0e      	ldr	r3, [pc, #56]	; (800b944 <USER_read+0x120>)
 800b90c:	2201      	movs	r2, #1
 800b90e:	20ff      	movs	r0, #255	; 0xff
 800b910:	619a      	str	r2, [r3, #24]
 800b912:	f7fe ffc7 	bl	800a8a4 <SPI_Send>
 800b916:	2000      	movs	r0, #0
 800b918:	e8bd 87f0 	ldmia.w	sp!, {r4, r5, r6, r7, r8, r9, sl, pc}
 800b91c:	4c08      	ldr	r4, [pc, #32]	; (800b940 <USER_read+0x11c>)
 800b91e:	e003      	b.n	800b928 <USER_read+0x104>
 800b920:	bf00      	nop
 800b922:	bf00      	nop
 800b924:	bf00      	nop
 800b926:	bf00      	nop
 800b928:	20ff      	movs	r0, #255	; 0xff
 800b92a:	f7fe ffbb 	bl	800a8a4 <SPI_Send>
 800b92e:	28ff      	cmp	r0, #255	; 0xff
 800b930:	d0eb      	beq.n	800b90a <USER_read+0xe6>
 800b932:	3c01      	subs	r4, #1
 800b934:	d1f4      	bne.n	800b920 <USER_read+0xfc>
 800b936:	e7be      	b.n	800b8b6 <USER_read+0x92>
 800b938:	2000033c 	.word	0x2000033c
 800b93c:	40003800 	.word	0x40003800
 800b940:	000493e1 	.word	0x000493e1
 800b944:	40020800 	.word	0x40020800

0800b948 <USER_write>:
 800b948:	e92d 4ff8 	stmdb	sp!, {r3, r4, r5, r6, r7, r8, r9, sl, fp, lr}
 800b94c:	f8df 90a0 	ldr.w	r9, [pc, #160]	; 800b9f0 <USER_write+0xa8>
 800b950:	4616      	mov	r6, r2
 800b952:	461f      	mov	r7, r3
 800b954:	f8d9 0000 	ldr.w	r0, [r9]
 800b958:	2803      	cmp	r0, #3
 800b95a:	bf18      	it	ne
 800b95c:	0256      	lslne	r6, r2, #9
 800b95e:	2b00      	cmp	r3, #0
 800b960:	d03e      	beq.n	800b9e0 <USER_write+0x98>
 800b962:	f501 7500 	add.w	r5, r1, #512	; 0x200
 800b966:	f04f 0800 	mov.w	r8, #0
 800b96a:	4c20      	ldr	r4, [pc, #128]	; (800b9ec <USER_write+0xa4>)
 800b96c:	f8df a084 	ldr.w	sl, [pc, #132]	; 800b9f4 <USER_write+0xac>
 800b970:	4631      	mov	r1, r6
 800b972:	2018      	movs	r0, #24
 800b974:	f5a5 7b00 	sub.w	fp, r5, #512	; 0x200
 800b978:	f7fe ffca 	bl	800a910 <SD_Cmd>
 800b97c:	bb98      	cbnz	r0, 800b9e6 <USER_write+0x9e>
 800b97e:	20fe      	movs	r0, #254	; 0xfe
 800b980:	f7fe ff90 	bl	800a8a4 <SPI_Send>
 800b984:	f81b 0b01 	ldrb.w	r0, [fp], #1
 800b988:	f7fe ff8c 	bl	800a8a4 <SPI_Send>
 800b98c:	68a1      	ldr	r1, [r4, #8]
 800b98e:	060b      	lsls	r3, r1, #24
 800b990:	d4fc      	bmi.n	800b98c <USER_write+0x44>
 800b992:	45ab      	cmp	fp, r5
 800b994:	d1f6      	bne.n	800b984 <USER_write+0x3c>
 800b996:	20ff      	movs	r0, #255	; 0xff
 800b998:	f7fe ff84 	bl	800a8a4 <SPI_Send>
 800b99c:	20ff      	movs	r0, #255	; 0xff
 800b99e:	f7fe ff81 	bl	800a8a4 <SPI_Send>
 800b9a2:	20ff      	movs	r0, #255	; 0xff
 800b9a4:	f7fe ff7e 	bl	800a8a4 <SPI_Send>
 800b9a8:	f000 001f 	and.w	r0, r0, #31
 800b9ac:	2805      	cmp	r0, #5
 800b9ae:	d11a      	bne.n	800b9e6 <USER_write+0x9e>
 800b9b0:	f44f 7016 	mov.w	r0, #600	; 0x258
 800b9b4:	f7fe ff84 	bl	800a8c0 <SD_WaitNotBusy>
 800b9b8:	b9a8      	cbnz	r0, 800b9e6 <USER_write+0x9e>
 800b9ba:	2301      	movs	r3, #1
 800b9bc:	20ff      	movs	r0, #255	; 0xff
 800b9be:	f108 0801 	add.w	r8, r8, #1
 800b9c2:	f505 7500 	add.w	r5, r5, #512	; 0x200
 800b9c6:	f8ca 3018 	str.w	r3, [sl, #24]
 800b9ca:	f7fe ff6b 	bl	800a8a4 <SPI_Send>
 800b9ce:	f8d9 3000 	ldr.w	r3, [r9]
 800b9d2:	2b03      	cmp	r3, #3
 800b9d4:	bf14      	ite	ne
 800b9d6:	f506 7600 	addne.w	r6, r6, #512	; 0x200
 800b9da:	3601      	addeq	r6, #1
 800b9dc:	4547      	cmp	r7, r8
 800b9de:	d1c7      	bne.n	800b970 <USER_write+0x28>
 800b9e0:	2000      	movs	r0, #0
 800b9e2:	e8bd 8ff8 	ldmia.w	sp!, {r3, r4, r5, r6, r7, r8, r9, sl, fp, pc}
 800b9e6:	2001      	movs	r0, #1
 800b9e8:	e8bd 8ff8 	ldmia.w	sp!, {r3, r4, r5, r6, r7, r8, r9, sl, fp, pc}
 800b9ec:	40003800 	.word	0x40003800
 800b9f0:	2000033c 	.word	0x2000033c
 800b9f4:	40020800 	.word	0x40020800

0800b9f8 <ff_convert>:
 800b9f8:	287f      	cmp	r0, #127	; 0x7f
 800b9fa:	bf88      	it	hi
 800b9fc:	2000      	movhi	r0, #0
 800b9fe:	4770      	bx	lr

0800ba00 <ff_wtoupper>:
 800ba00:	287f      	cmp	r0, #127	; 0x7f
 800ba02:	d901      	bls.n	800ba08 <ff_wtoupper+0x8>
 800ba04:	2000      	movs	r0, #0
 800ba06:	4770      	bx	lr
 800ba08:	f1a0 0361 	sub.w	r3, r0, #97	; 0x61
 800ba0c:	2b19      	cmp	r3, #25
 800ba0e:	d8fa      	bhi.n	800ba06 <ff_wtoupper+0x6>
 800ba10:	f020 0020 	bic.w	r0, r0, #32
 800ba14:	b280      	uxth	r0, r0
 800ba16:	4770      	bx	lr

0800ba18 <DMAResetRegisters>:
 800ba18:	2300      	movs	r3, #0
 800ba1a:	2221      	movs	r2, #33	; 0x21
 800ba1c:	6003      	str	r3, [r0, #0]
 800ba1e:	6043      	str	r3, [r0, #4]
 800ba20:	6083      	str	r3, [r0, #8]
 800ba22:	60c3      	str	r3, [r0, #12]
 800ba24:	6103      	str	r3, [r0, #16]
 800ba26:	6142      	str	r2, [r0, #20]
 800ba28:	4770      	bx	lr
 800ba2a:	bf00      	nop

0800ba2c <SetMode>:
 800ba2c:	b5f8      	push	{r3, r4, r5, r6, r7, lr}
 800ba2e:	4604      	mov	r4, r0
 800ba30:	2800      	cmp	r0, #0
 800ba32:	d052      	beq.n	800bada <SetMode+0xae>
 800ba34:	2801      	cmp	r0, #1
 800ba36:	d002      	beq.n	800ba3e <SetMode+0x12>
 800ba38:	4b45      	ldr	r3, [pc, #276]	; (800bb50 <SetMode+0x124>)
 800ba3a:	601c      	str	r4, [r3, #0]
 800ba3c:	bdf8      	pop	{r3, r4, r5, r6, r7, pc}
 800ba3e:	4945      	ldr	r1, [pc, #276]	; (800bb54 <SetMode+0x128>)
 800ba40:	f44f 2200 	mov.w	r2, #524288	; 0x80000
 800ba44:	2380      	movs	r3, #128	; 0x80
 800ba46:	618a      	str	r2, [r1, #24]
 800ba48:	680f      	ldr	r7, [r1, #0]
 800ba4a:	fa93 f5a3 	rbit	r5, r3
 800ba4e:	fab5 f585 	clz	r5, r5
 800ba52:	fa93 f2a3 	rbit	r2, r3
 800ba56:	2003      	movs	r0, #3
 800ba58:	fab2 f282 	clz	r2, r2
 800ba5c:	006d      	lsls	r5, r5, #1
 800ba5e:	4e3e      	ldr	r6, [pc, #248]	; (800bb58 <SetMode+0x12c>)
 800ba60:	0052      	lsls	r2, r2, #1
 800ba62:	f44f 7380 	mov.w	r3, #256	; 0x100
 800ba66:	fa00 f505 	lsl.w	r5, r0, r5
 800ba6a:	fa04 f202 	lsl.w	r2, r4, r2
 800ba6e:	ea27 0505 	bic.w	r5, r7, r5
 800ba72:	432a      	orrs	r2, r5
 800ba74:	600a      	str	r2, [r1, #0]
 800ba76:	6837      	ldr	r7, [r6, #0]
 800ba78:	fa93 f5a3 	rbit	r5, r3
 800ba7c:	fab5 f585 	clz	r5, r5
 800ba80:	fa93 f2a3 	rbit	r2, r3
 800ba84:	fab2 f282 	clz	r2, r2
 800ba88:	006d      	lsls	r5, r5, #1
 800ba8a:	f44f 6300 	mov.w	r3, #2048	; 0x800
 800ba8e:	fa00 f505 	lsl.w	r5, r0, r5
 800ba92:	0052      	lsls	r2, r2, #1
 800ba94:	ea27 0505 	bic.w	r5, r7, r5
 800ba98:	fa04 f202 	lsl.w	r2, r4, r2
 800ba9c:	432a      	orrs	r2, r5
 800ba9e:	6032      	str	r2, [r6, #0]
 800baa0:	680a      	ldr	r2, [r1, #0]
 800baa2:	fa93 f5a3 	rbit	r5, r3
 800baa6:	fab5 f585 	clz	r5, r5
 800baaa:	fa93 f3a3 	rbit	r3, r3
 800baae:	006d      	lsls	r5, r5, #1
 800bab0:	fab3 f383 	clz	r3, r3
 800bab4:	2740      	movs	r7, #64	; 0x40
 800bab6:	f04f 7680 	mov.w	r6, #16777216	; 0x1000000
 800baba:	40a8      	lsls	r0, r5
 800babc:	005b      	lsls	r3, r3, #1
 800babe:	f04f 6500 	mov.w	r5, #134217728	; 0x8000000
 800bac2:	fa04 f303 	lsl.w	r3, r4, r3
 800bac6:	ea22 0000 	bic.w	r0, r2, r0
 800baca:	4303      	orrs	r3, r0
 800bacc:	600b      	str	r3, [r1, #0]
 800bace:	4b20      	ldr	r3, [pc, #128]	; (800bb50 <SetMode+0x124>)
 800bad0:	618f      	str	r7, [r1, #24]
 800bad2:	618e      	str	r6, [r1, #24]
 800bad4:	618d      	str	r5, [r1, #24]
 800bad6:	601c      	str	r4, [r3, #0]
 800bad8:	bdf8      	pop	{r3, r4, r5, r6, r7, pc}
 800bada:	f7fd f8cd 	bl	8008c78 <SetMCUBusInput>
 800bade:	4b1d      	ldr	r3, [pc, #116]	; (800bb54 <SetMode+0x128>)
 800bae0:	2580      	movs	r5, #128	; 0x80
 800bae2:	6818      	ldr	r0, [r3, #0]
 800bae4:	fa95 f2a5 	rbit	r2, r5
 800bae8:	fab2 f282 	clz	r2, r2
 800baec:	2103      	movs	r1, #3
 800baee:	0052      	lsls	r2, r2, #1
 800baf0:	fa01 f202 	lsl.w	r2, r1, r2
 800baf4:	ea20 0202 	bic.w	r2, r0, r2
 800baf8:	fa95 f5a5 	rbit	r5, r5
 800bafc:	4e16      	ldr	r6, [pc, #88]	; (800bb58 <SetMode+0x12c>)
 800bafe:	f44f 7580 	mov.w	r5, #256	; 0x100
 800bb02:	601a      	str	r2, [r3, #0]
 800bb04:	6830      	ldr	r0, [r6, #0]
 800bb06:	fa95 f2a5 	rbit	r2, r5
 800bb0a:	fab2 f282 	clz	r2, r2
 800bb0e:	0052      	lsls	r2, r2, #1
 800bb10:	fa01 f202 	lsl.w	r2, r1, r2
 800bb14:	ea20 0202 	bic.w	r2, r0, r2
 800bb18:	fa95 f5a5 	rbit	r5, r5
 800bb1c:	f44f 6500 	mov.w	r5, #2048	; 0x800
 800bb20:	6032      	str	r2, [r6, #0]
 800bb22:	6818      	ldr	r0, [r3, #0]
 800bb24:	fa95 f2a5 	rbit	r2, r5
 800bb28:	fab2 f282 	clz	r2, r2
 800bb2c:	0052      	lsls	r2, r2, #1
 800bb2e:	4091      	lsls	r1, r2
 800bb30:	ea20 0101 	bic.w	r1, r0, r1
 800bb34:	fa95 f5a5 	rbit	r5, r5
 800bb38:	f44f 0580 	mov.w	r5, #4194304	; 0x400000
 800bb3c:	f04f 7080 	mov.w	r0, #16777216	; 0x1000000
 800bb40:	2208      	movs	r2, #8
 800bb42:	6019      	str	r1, [r3, #0]
 800bb44:	619d      	str	r5, [r3, #24]
 800bb46:	6198      	str	r0, [r3, #24]
 800bb48:	619a      	str	r2, [r3, #24]
 800bb4a:	4b01      	ldr	r3, [pc, #4]	; (800bb50 <SetMode+0x124>)
 800bb4c:	601c      	str	r4, [r3, #0]
 800bb4e:	bdf8      	pop	{r3, r4, r5, r6, r7, pc}
 800bb50:	20000344 	.word	0x20000344
 800bb54:	40020800 	.word	0x40020800
 800bb58:	40020000 	.word	0x40020000

0800bb5c <delay_us>:
 800bb5c:	4a03      	ldr	r2, [pc, #12]	; (800bb6c <delay_us+0x10>)
 800bb5e:	2300      	movs	r3, #0
 800bb60:	6812      	ldr	r2, [r2, #0]
 800bb62:	6253      	str	r3, [r2, #36]	; 0x24
 800bb64:	6a53      	ldr	r3, [r2, #36]	; 0x24
 800bb66:	4283      	cmp	r3, r0
 800bb68:	d3fc      	bcc.n	800bb64 <delay_us+0x8>
 800bb6a:	4770      	bx	lr
 800bb6c:	2001530c 	.word	0x2001530c

0800bb70 <BCDtoHex>:
 800bb70:	0903      	lsrs	r3, r0, #4
 800bb72:	220a      	movs	r2, #10
 800bb74:	f000 000f 	and.w	r0, r0, #15
 800bb78:	fb02 0003 	mla	r0, r2, r3, r0
 800bb7c:	4770      	bx	lr
 800bb7e:	bf00      	nop

0800bb80 <Reset_Handler>:
 800bb80:	f8df d034 	ldr.w	sp, [pc, #52]	; 800bbb8 <LoopFillZerobss+0x14>
 800bb84:	2100      	movs	r1, #0
 800bb86:	e003      	b.n	800bb90 <LoopCopyDataInit>

0800bb88 <CopyDataInit>:
 800bb88:	4b0c      	ldr	r3, [pc, #48]	; (800bbbc <LoopFillZerobss+0x18>)
 800bb8a:	585b      	ldr	r3, [r3, r1]
 800bb8c:	5043      	str	r3, [r0, r1]
 800bb8e:	3104      	adds	r1, #4

0800bb90 <LoopCopyDataInit>:
 800bb90:	480b      	ldr	r0, [pc, #44]	; (800bbc0 <LoopFillZerobss+0x1c>)
 800bb92:	4b0c      	ldr	r3, [pc, #48]	; (800bbc4 <LoopFillZerobss+0x20>)
 800bb94:	1842      	adds	r2, r0, r1
 800bb96:	429a      	cmp	r2, r3
 800bb98:	d3f6      	bcc.n	800bb88 <CopyDataInit>
 800bb9a:	4a0b      	ldr	r2, [pc, #44]	; (800bbc8 <LoopFillZerobss+0x24>)
 800bb9c:	e002      	b.n	800bba4 <LoopFillZerobss>

0800bb9e <FillZerobss>:
 800bb9e:	2300      	movs	r3, #0
 800bba0:	f842 3b04 	str.w	r3, [r2], #4

0800bba4 <LoopFillZerobss>:
 800bba4:	4b09      	ldr	r3, [pc, #36]	; (800bbcc <LoopFillZerobss+0x28>)
 800bba6:	429a      	cmp	r2, r3
 800bba8:	d3f9      	bcc.n	800bb9e <FillZerobss>
 800bbaa:	f7ff fb57 	bl	800b25c <SystemInit>
 800bbae:	f000 f817 	bl	800bbe0 <__libc_init_array>
 800bbb2:	f7fe fcbf 	bl	800a534 <main>
 800bbb6:	4770      	bx	lr
 800bbb8:	2003ffff 	.word	0x2003ffff
 800bbbc:	0800d30c 	.word	0x0800d30c
 800bbc0:	20000000 	.word	0x20000000
 800bbc4:	20000094 	.word	0x20000094
 800bbc8:	20000094 	.word	0x20000094
 800bbcc:	2001535c 	.word	0x2001535c

0800bbd0 <ADC_IRQHandler>:
 800bbd0:	e7fe      	b.n	800bbd0 <ADC_IRQHandler>
	...

0800bbd4 <__errno>:
 800bbd4:	4b01      	ldr	r3, [pc, #4]	; (800bbdc <__errno+0x8>)
 800bbd6:	6818      	ldr	r0, [r3, #0]
 800bbd8:	4770      	bx	lr
 800bbda:	bf00      	nop
 800bbdc:	20000030 	.word	0x20000030

0800bbe0 <__libc_init_array>:
 800bbe0:	b570      	push	{r4, r5, r6, lr}
 800bbe2:	4d0d      	ldr	r5, [pc, #52]	; (800bc18 <__libc_init_array+0x38>)
 800bbe4:	4c0d      	ldr	r4, [pc, #52]	; (800bc1c <__libc_init_array+0x3c>)
 800bbe6:	1b64      	subs	r4, r4, r5
 800bbe8:	10a4      	asrs	r4, r4, #2
 800bbea:	2600      	movs	r6, #0
 800bbec:	42a6      	cmp	r6, r4
 800bbee:	d109      	bne.n	800bc04 <__libc_init_array+0x24>
 800bbf0:	4d0b      	ldr	r5, [pc, #44]	; (800bc20 <__libc_init_array+0x40>)
 800bbf2:	4c0c      	ldr	r4, [pc, #48]	; (800bc24 <__libc_init_array+0x44>)
 800bbf4:	f001 f952 	bl	800ce9c <_init>
 800bbf8:	1b64      	subs	r4, r4, r5
 800bbfa:	10a4      	asrs	r4, r4, #2
 800bbfc:	2600      	movs	r6, #0
 800bbfe:	42a6      	cmp	r6, r4
 800bc00:	d105      	bne.n	800bc0e <__libc_init_array+0x2e>
 800bc02:	bd70      	pop	{r4, r5, r6, pc}
 800bc04:	f855 3b04 	ldr.w	r3, [r5], #4
 800bc08:	4798      	blx	r3
 800bc0a:	3601      	adds	r6, #1
 800bc0c:	e7ee      	b.n	800bbec <__libc_init_array+0xc>
 800bc0e:	f855 3b04 	ldr.w	r3, [r5], #4
 800bc12:	4798      	blx	r3
 800bc14:	3601      	adds	r6, #1
 800bc16:	e7f2      	b.n	800bbfe <__libc_init_array+0x1e>
 800bc18:	0800d304 	.word	0x0800d304
 800bc1c:	0800d304 	.word	0x0800d304
 800bc20:	0800d304 	.word	0x0800d304
 800bc24:	0800d308 	.word	0x0800d308

0800bc28 <memcmp>:
 800bc28:	b530      	push	{r4, r5, lr}
 800bc2a:	3901      	subs	r1, #1
 800bc2c:	2400      	movs	r4, #0
 800bc2e:	42a2      	cmp	r2, r4
 800bc30:	d101      	bne.n	800bc36 <memcmp+0xe>
 800bc32:	2000      	movs	r0, #0
 800bc34:	e005      	b.n	800bc42 <memcmp+0x1a>
 800bc36:	5d03      	ldrb	r3, [r0, r4]
 800bc38:	3401      	adds	r4, #1
 800bc3a:	5d0d      	ldrb	r5, [r1, r4]
 800bc3c:	42ab      	cmp	r3, r5
 800bc3e:	d0f6      	beq.n	800bc2e <memcmp+0x6>
 800bc40:	1b58      	subs	r0, r3, r5
 800bc42:	bd30      	pop	{r4, r5, pc}

0800bc44 <memcpy>:
 800bc44:	440a      	add	r2, r1
 800bc46:	4291      	cmp	r1, r2
 800bc48:	f100 33ff 	add.w	r3, r0, #4294967295
 800bc4c:	d100      	bne.n	800bc50 <memcpy+0xc>
 800bc4e:	4770      	bx	lr
 800bc50:	b510      	push	{r4, lr}
 800bc52:	f811 4b01 	ldrb.w	r4, [r1], #1
 800bc56:	f803 4f01 	strb.w	r4, [r3, #1]!
 800bc5a:	4291      	cmp	r1, r2
 800bc5c:	d1f9      	bne.n	800bc52 <memcpy+0xe>
 800bc5e:	bd10      	pop	{r4, pc}

0800bc60 <memset>:
 800bc60:	4402      	add	r2, r0
 800bc62:	4603      	mov	r3, r0
 800bc64:	4293      	cmp	r3, r2
 800bc66:	d100      	bne.n	800bc6a <memset+0xa>
 800bc68:	4770      	bx	lr
 800bc6a:	f803 1b01 	strb.w	r1, [r3], #1
 800bc6e:	e7f9      	b.n	800bc64 <memset+0x4>

0800bc70 <_free_r>:
 800bc70:	b537      	push	{r0, r1, r2, r4, r5, lr}
 800bc72:	2900      	cmp	r1, #0
 800bc74:	d048      	beq.n	800bd08 <_free_r+0x98>
 800bc76:	f851 3c04 	ldr.w	r3, [r1, #-4]
 800bc7a:	9001      	str	r0, [sp, #4]
 800bc7c:	2b00      	cmp	r3, #0
 800bc7e:	f1a1 0404 	sub.w	r4, r1, #4
 800bc82:	bfb8      	it	lt
 800bc84:	18e4      	addlt	r4, r4, r3
 800bc86:	f000 f92d 	bl	800bee4 <__malloc_lock>
 800bc8a:	4a20      	ldr	r2, [pc, #128]	; (800bd0c <_free_r+0x9c>)
 800bc8c:	9801      	ldr	r0, [sp, #4]
 800bc8e:	6813      	ldr	r3, [r2, #0]
 800bc90:	4615      	mov	r5, r2
 800bc92:	b933      	cbnz	r3, 800bca2 <_free_r+0x32>
 800bc94:	6063      	str	r3, [r4, #4]
 800bc96:	6014      	str	r4, [r2, #0]
 800bc98:	b003      	add	sp, #12
 800bc9a:	e8bd 4030 	ldmia.w	sp!, {r4, r5, lr}
 800bc9e:	f000 b927 	b.w	800bef0 <__malloc_unlock>
 800bca2:	42a3      	cmp	r3, r4
 800bca4:	d90b      	bls.n	800bcbe <_free_r+0x4e>
 800bca6:	6821      	ldr	r1, [r4, #0]
 800bca8:	1862      	adds	r2, r4, r1
 800bcaa:	4293      	cmp	r3, r2
 800bcac:	bf04      	itt	eq
 800bcae:	681a      	ldreq	r2, [r3, #0]
 800bcb0:	685b      	ldreq	r3, [r3, #4]
 800bcb2:	6063      	str	r3, [r4, #4]
 800bcb4:	bf04      	itt	eq
 800bcb6:	1852      	addeq	r2, r2, r1
 800bcb8:	6022      	streq	r2, [r4, #0]
 800bcba:	602c      	str	r4, [r5, #0]
 800bcbc:	e7ec      	b.n	800bc98 <_free_r+0x28>
 800bcbe:	461a      	mov	r2, r3
 800bcc0:	685b      	ldr	r3, [r3, #4]
 800bcc2:	b10b      	cbz	r3, 800bcc8 <_free_r+0x58>
 800bcc4:	42a3      	cmp	r3, r4
 800bcc6:	d9fa      	bls.n	800bcbe <_free_r+0x4e>
 800bcc8:	6811      	ldr	r1, [r2, #0]
 800bcca:	1855      	adds	r5, r2, r1
 800bccc:	42a5      	cmp	r5, r4
 800bcce:	d10b      	bne.n	800bce8 <_free_r+0x78>
 800bcd0:	6824      	ldr	r4, [r4, #0]
 800bcd2:	4421      	add	r1, r4
 800bcd4:	1854      	adds	r4, r2, r1
 800bcd6:	42a3      	cmp	r3, r4
 800bcd8:	6011      	str	r1, [r2, #0]
 800bcda:	d1dd      	bne.n	800bc98 <_free_r+0x28>
 800bcdc:	681c      	ldr	r4, [r3, #0]
 800bcde:	685b      	ldr	r3, [r3, #4]
 800bce0:	6053      	str	r3, [r2, #4]
 800bce2:	4421      	add	r1, r4
 800bce4:	6011      	str	r1, [r2, #0]
 800bce6:	e7d7      	b.n	800bc98 <_free_r+0x28>
 800bce8:	d902      	bls.n	800bcf0 <_free_r+0x80>
 800bcea:	230c      	movs	r3, #12
 800bcec:	6003      	str	r3, [r0, #0]
 800bcee:	e7d3      	b.n	800bc98 <_free_r+0x28>
 800bcf0:	6825      	ldr	r5, [r4, #0]
 800bcf2:	1961      	adds	r1, r4, r5
 800bcf4:	428b      	cmp	r3, r1
 800bcf6:	bf04      	itt	eq
 800bcf8:	6819      	ldreq	r1, [r3, #0]
 800bcfa:	685b      	ldreq	r3, [r3, #4]
 800bcfc:	6063      	str	r3, [r4, #4]
 800bcfe:	bf04      	itt	eq
 800bd00:	1949      	addeq	r1, r1, r5
 800bd02:	6021      	streq	r1, [r4, #0]
 800bd04:	6054      	str	r4, [r2, #4]
 800bd06:	e7c7      	b.n	800bc98 <_free_r+0x28>
 800bd08:	b003      	add	sp, #12
 800bd0a:	bd30      	pop	{r4, r5, pc}
 800bd0c:	200005a8 	.word	0x200005a8

0800bd10 <_malloc_r>:
 800bd10:	b5f8      	push	{r3, r4, r5, r6, r7, lr}
 800bd12:	1ccd      	adds	r5, r1, #3
 800bd14:	f025 0503 	bic.w	r5, r5, #3
 800bd18:	3508      	adds	r5, #8
 800bd1a:	2d0c      	cmp	r5, #12
 800bd1c:	bf38      	it	cc
 800bd1e:	250c      	movcc	r5, #12
 800bd20:	2d00      	cmp	r5, #0
 800bd22:	4606      	mov	r6, r0
 800bd24:	db01      	blt.n	800bd2a <_malloc_r+0x1a>
 800bd26:	42a9      	cmp	r1, r5
 800bd28:	d903      	bls.n	800bd32 <_malloc_r+0x22>
 800bd2a:	230c      	movs	r3, #12
 800bd2c:	6033      	str	r3, [r6, #0]
 800bd2e:	2000      	movs	r0, #0
 800bd30:	bdf8      	pop	{r3, r4, r5, r6, r7, pc}
 800bd32:	f000 f8d7 	bl	800bee4 <__malloc_lock>
 800bd36:	4921      	ldr	r1, [pc, #132]	; (800bdbc <_malloc_r+0xac>)
 800bd38:	680a      	ldr	r2, [r1, #0]
 800bd3a:	4614      	mov	r4, r2
 800bd3c:	b99c      	cbnz	r4, 800bd66 <_malloc_r+0x56>
 800bd3e:	4f20      	ldr	r7, [pc, #128]	; (800bdc0 <_malloc_r+0xb0>)
 800bd40:	683b      	ldr	r3, [r7, #0]
 800bd42:	b923      	cbnz	r3, 800bd4e <_malloc_r+0x3e>
 800bd44:	4621      	mov	r1, r4
 800bd46:	4630      	mov	r0, r6
 800bd48:	f000 f83c 	bl	800bdc4 <_sbrk_r>
 800bd4c:	6038      	str	r0, [r7, #0]
 800bd4e:	4629      	mov	r1, r5
 800bd50:	4630      	mov	r0, r6
 800bd52:	f000 f837 	bl	800bdc4 <_sbrk_r>
 800bd56:	1c43      	adds	r3, r0, #1
 800bd58:	d123      	bne.n	800bda2 <_malloc_r+0x92>
 800bd5a:	230c      	movs	r3, #12
 800bd5c:	6033      	str	r3, [r6, #0]
 800bd5e:	4630      	mov	r0, r6
 800bd60:	f000 f8c6 	bl	800bef0 <__malloc_unlock>
 800bd64:	e7e3      	b.n	800bd2e <_malloc_r+0x1e>
 800bd66:	6823      	ldr	r3, [r4, #0]
 800bd68:	1b5b      	subs	r3, r3, r5
 800bd6a:	d417      	bmi.n	800bd9c <_malloc_r+0x8c>
 800bd6c:	2b0b      	cmp	r3, #11
 800bd6e:	d903      	bls.n	800bd78 <_malloc_r+0x68>
 800bd70:	6023      	str	r3, [r4, #0]
 800bd72:	441c      	add	r4, r3
 800bd74:	6025      	str	r5, [r4, #0]
 800bd76:	e004      	b.n	800bd82 <_malloc_r+0x72>
 800bd78:	6863      	ldr	r3, [r4, #4]
 800bd7a:	42a2      	cmp	r2, r4
 800bd7c:	bf0c      	ite	eq
 800bd7e:	600b      	streq	r3, [r1, #0]
 800bd80:	6053      	strne	r3, [r2, #4]
 800bd82:	4630      	mov	r0, r6
 800bd84:	f000 f8b4 	bl	800bef0 <__malloc_unlock>
 800bd88:	f104 000b 	add.w	r0, r4, #11
 800bd8c:	1d23      	adds	r3, r4, #4
 800bd8e:	f020 0007 	bic.w	r0, r0, #7
 800bd92:	1ac2      	subs	r2, r0, r3
 800bd94:	d0cc      	beq.n	800bd30 <_malloc_r+0x20>
 800bd96:	1a1b      	subs	r3, r3, r0
 800bd98:	50a3      	str	r3, [r4, r2]
 800bd9a:	e7c9      	b.n	800bd30 <_malloc_r+0x20>
 800bd9c:	4622      	mov	r2, r4
 800bd9e:	6864      	ldr	r4, [r4, #4]
 800bda0:	e7cc      	b.n	800bd3c <_malloc_r+0x2c>
 800bda2:	1cc4      	adds	r4, r0, #3
 800bda4:	f024 0403 	bic.w	r4, r4, #3
 800bda8:	42a0      	cmp	r0, r4
 800bdaa:	d0e3      	beq.n	800bd74 <_malloc_r+0x64>
 800bdac:	1a21      	subs	r1, r4, r0
 800bdae:	4630      	mov	r0, r6
 800bdb0:	f000 f808 	bl	800bdc4 <_sbrk_r>
 800bdb4:	3001      	adds	r0, #1
 800bdb6:	d1dd      	bne.n	800bd74 <_malloc_r+0x64>
 800bdb8:	e7cf      	b.n	800bd5a <_malloc_r+0x4a>
 800bdba:	bf00      	nop
 800bdbc:	200005a8 	.word	0x200005a8
 800bdc0:	200005ac 	.word	0x200005ac

0800bdc4 <_sbrk_r>:
 800bdc4:	b538      	push	{r3, r4, r5, lr}
 800bdc6:	4d06      	ldr	r5, [pc, #24]	; (800bde0 <_sbrk_r+0x1c>)
 800bdc8:	2300      	movs	r3, #0
 800bdca:	4604      	mov	r4, r0
 800bdcc:	4608      	mov	r0, r1
 800bdce:	602b      	str	r3, [r5, #0]
 800bdd0:	f7ff fa24 	bl	800b21c <_sbrk>
 800bdd4:	1c43      	adds	r3, r0, #1
 800bdd6:	d102      	bne.n	800bdde <_sbrk_r+0x1a>
 800bdd8:	682b      	ldr	r3, [r5, #0]
 800bdda:	b103      	cbz	r3, 800bdde <_sbrk_r+0x1a>
 800bddc:	6023      	str	r3, [r4, #0]
 800bdde:	bd38      	pop	{r3, r4, r5, pc}
 800bde0:	2001534c 	.word	0x2001534c

0800bde4 <siprintf>:
 800bde4:	b40e      	push	{r1, r2, r3}
 800bde6:	b500      	push	{lr}
 800bde8:	b09c      	sub	sp, #112	; 0x70
 800bdea:	ab1d      	add	r3, sp, #116	; 0x74
 800bdec:	9002      	str	r0, [sp, #8]
 800bdee:	9006      	str	r0, [sp, #24]
 800bdf0:	f06f 4100 	mvn.w	r1, #2147483648	; 0x80000000
 800bdf4:	4809      	ldr	r0, [pc, #36]	; (800be1c <siprintf+0x38>)
 800bdf6:	9107      	str	r1, [sp, #28]
 800bdf8:	9104      	str	r1, [sp, #16]
 800bdfa:	4909      	ldr	r1, [pc, #36]	; (800be20 <siprintf+0x3c>)
 800bdfc:	f853 2b04 	ldr.w	r2, [r3], #4
 800be00:	9105      	str	r1, [sp, #20]
 800be02:	6800      	ldr	r0, [r0, #0]
 800be04:	9301      	str	r3, [sp, #4]
 800be06:	a902      	add	r1, sp, #8
 800be08:	f000 f8d4 	bl	800bfb4 <_svfiprintf_r>
 800be0c:	9b02      	ldr	r3, [sp, #8]
 800be0e:	2200      	movs	r2, #0
 800be10:	701a      	strb	r2, [r3, #0]
 800be12:	b01c      	add	sp, #112	; 0x70
 800be14:	f85d eb04 	ldr.w	lr, [sp], #4
 800be18:	b003      	add	sp, #12
 800be1a:	4770      	bx	lr
 800be1c:	20000030 	.word	0x20000030
 800be20:	ffff0208 	.word	0xffff0208

0800be24 <siscanf>:
 800be24:	b40e      	push	{r1, r2, r3}
 800be26:	b510      	push	{r4, lr}
 800be28:	b09f      	sub	sp, #124	; 0x7c
 800be2a:	ac21      	add	r4, sp, #132	; 0x84
 800be2c:	f44f 7101 	mov.w	r1, #516	; 0x204
 800be30:	f854 2b04 	ldr.w	r2, [r4], #4
 800be34:	9201      	str	r2, [sp, #4]
 800be36:	f8ad 101c 	strh.w	r1, [sp, #28]
 800be3a:	9004      	str	r0, [sp, #16]
 800be3c:	9008      	str	r0, [sp, #32]
 800be3e:	f7f8 f9ef 	bl	8004220 <strlen>
 800be42:	4b0c      	ldr	r3, [pc, #48]	; (800be74 <siscanf+0x50>)
 800be44:	9005      	str	r0, [sp, #20]
 800be46:	9009      	str	r0, [sp, #36]	; 0x24
 800be48:	930d      	str	r3, [sp, #52]	; 0x34
 800be4a:	480b      	ldr	r0, [pc, #44]	; (800be78 <siscanf+0x54>)
 800be4c:	9a01      	ldr	r2, [sp, #4]
 800be4e:	6800      	ldr	r0, [r0, #0]
 800be50:	9403      	str	r4, [sp, #12]
 800be52:	2300      	movs	r3, #0
 800be54:	9311      	str	r3, [sp, #68]	; 0x44
 800be56:	9316      	str	r3, [sp, #88]	; 0x58
 800be58:	f64f 73ff 	movw	r3, #65535	; 0xffff
 800be5c:	f8ad 301e 	strh.w	r3, [sp, #30]
 800be60:	a904      	add	r1, sp, #16
 800be62:	4623      	mov	r3, r4
 800be64:	f000 fa00 	bl	800c268 <__ssvfiscanf_r>
 800be68:	b01f      	add	sp, #124	; 0x7c
 800be6a:	e8bd 4010 	ldmia.w	sp!, {r4, lr}
 800be6e:	b003      	add	sp, #12
 800be70:	4770      	bx	lr
 800be72:	bf00      	nop
 800be74:	0800be7d 	.word	0x0800be7d
 800be78:	20000030 	.word	0x20000030

0800be7c <__seofread>:
 800be7c:	2000      	movs	r0, #0
 800be7e:	4770      	bx	lr

0800be80 <stpcpy>:
 800be80:	4603      	mov	r3, r0
 800be82:	f811 2b01 	ldrb.w	r2, [r1], #1
 800be86:	4618      	mov	r0, r3
 800be88:	f803 2b01 	strb.w	r2, [r3], #1
 800be8c:	2a00      	cmp	r2, #0
 800be8e:	d1f8      	bne.n	800be82 <stpcpy+0x2>
 800be90:	4770      	bx	lr

0800be92 <strchr>:
 800be92:	b2c9      	uxtb	r1, r1
 800be94:	4603      	mov	r3, r0
 800be96:	f810 2b01 	ldrb.w	r2, [r0], #1
 800be9a:	b11a      	cbz	r2, 800bea4 <strchr+0x12>
 800be9c:	428a      	cmp	r2, r1
 800be9e:	d1f9      	bne.n	800be94 <strchr+0x2>
 800bea0:	4618      	mov	r0, r3
 800bea2:	4770      	bx	lr
 800bea4:	2900      	cmp	r1, #0
 800bea6:	bf18      	it	ne
 800bea8:	2300      	movne	r3, #0
 800beaa:	e7f9      	b.n	800bea0 <strchr+0xe>

0800beac <strcpy>:
 800beac:	4603      	mov	r3, r0
 800beae:	f811 2b01 	ldrb.w	r2, [r1], #1
 800beb2:	f803 2b01 	strb.w	r2, [r3], #1
 800beb6:	2a00      	cmp	r2, #0
 800beb8:	d1f9      	bne.n	800beae <strcpy+0x2>
 800beba:	4770      	bx	lr

0800bebc <strncpy>:
 800bebc:	b510      	push	{r4, lr}
 800bebe:	3901      	subs	r1, #1
 800bec0:	4603      	mov	r3, r0
 800bec2:	b132      	cbz	r2, 800bed2 <strncpy+0x16>
 800bec4:	f811 4f01 	ldrb.w	r4, [r1, #1]!
 800bec8:	f803 4b01 	strb.w	r4, [r3], #1
 800becc:	3a01      	subs	r2, #1
 800bece:	2c00      	cmp	r4, #0
 800bed0:	d1f7      	bne.n	800bec2 <strncpy+0x6>
 800bed2:	441a      	add	r2, r3
 800bed4:	2100      	movs	r1, #0
 800bed6:	4293      	cmp	r3, r2
 800bed8:	d100      	bne.n	800bedc <strncpy+0x20>
 800beda:	bd10      	pop	{r4, pc}
 800bedc:	f803 1b01 	strb.w	r1, [r3], #1
 800bee0:	e7f9      	b.n	800bed6 <strncpy+0x1a>
	...

0800bee4 <__malloc_lock>:
 800bee4:	4801      	ldr	r0, [pc, #4]	; (800beec <__malloc_lock+0x8>)
 800bee6:	f000 bf8f 	b.w	800ce08 <__retarget_lock_acquire_recursive>
 800beea:	bf00      	nop
 800beec:	20015354 	.word	0x20015354

0800bef0 <__malloc_unlock>:
 800bef0:	4801      	ldr	r0, [pc, #4]	; (800bef8 <__malloc_unlock+0x8>)
 800bef2:	f000 bf8a 	b.w	800ce0a <__retarget_lock_release_recursive>
 800bef6:	bf00      	nop
 800bef8:	20015354 	.word	0x20015354

0800befc <__ssputs_r>:
 800befc:	e92d 47f0 	stmdb	sp!, {r4, r5, r6, r7, r8, r9, sl, lr}
 800bf00:	688e      	ldr	r6, [r1, #8]
 800bf02:	429e      	cmp	r6, r3
 800bf04:	4682      	mov	sl, r0
 800bf06:	460c      	mov	r4, r1
 800bf08:	4690      	mov	r8, r2
 800bf0a:	461f      	mov	r7, r3
 800bf0c:	d838      	bhi.n	800bf80 <__ssputs_r+0x84>
 800bf0e:	898a      	ldrh	r2, [r1, #12]
 800bf10:	f412 6f90 	tst.w	r2, #1152	; 0x480
 800bf14:	d032      	beq.n	800bf7c <__ssputs_r+0x80>
 800bf16:	6825      	ldr	r5, [r4, #0]
 800bf18:	6909      	ldr	r1, [r1, #16]
 800bf1a:	eba5 0901 	sub.w	r9, r5, r1
 800bf1e:	6965      	ldr	r5, [r4, #20]
 800bf20:	eb05 0545 	add.w	r5, r5, r5, lsl #1
 800bf24:	eb05 75d5 	add.w	r5, r5, r5, lsr #31
 800bf28:	3301      	adds	r3, #1
 800bf2a:	444b      	add	r3, r9
 800bf2c:	106d      	asrs	r5, r5, #1
 800bf2e:	429d      	cmp	r5, r3
 800bf30:	bf38      	it	cc
 800bf32:	461d      	movcc	r5, r3
 800bf34:	0553      	lsls	r3, r2, #21
 800bf36:	d531      	bpl.n	800bf9c <__ssputs_r+0xa0>
 800bf38:	4629      	mov	r1, r5
 800bf3a:	f7ff fee9 	bl	800bd10 <_malloc_r>
 800bf3e:	4606      	mov	r6, r0
 800bf40:	b950      	cbnz	r0, 800bf58 <__ssputs_r+0x5c>
 800bf42:	230c      	movs	r3, #12
 800bf44:	f8ca 3000 	str.w	r3, [sl]
 800bf48:	89a3      	ldrh	r3, [r4, #12]
 800bf4a:	f043 0340 	orr.w	r3, r3, #64	; 0x40
 800bf4e:	81a3      	strh	r3, [r4, #12]
 800bf50:	f04f 30ff 	mov.w	r0, #4294967295
 800bf54:	e8bd 87f0 	ldmia.w	sp!, {r4, r5, r6, r7, r8, r9, sl, pc}
 800bf58:	6921      	ldr	r1, [r4, #16]
 800bf5a:	464a      	mov	r2, r9
 800bf5c:	f7ff fe72 	bl	800bc44 <memcpy>
 800bf60:	89a3      	ldrh	r3, [r4, #12]
 800bf62:	f423 6390 	bic.w	r3, r3, #1152	; 0x480
 800bf66:	f043 0380 	orr.w	r3, r3, #128	; 0x80
 800bf6a:	81a3      	strh	r3, [r4, #12]
 800bf6c:	6126      	str	r6, [r4, #16]
 800bf6e:	6165      	str	r5, [r4, #20]
 800bf70:	444e      	add	r6, r9
 800bf72:	eba5 0509 	sub.w	r5, r5, r9
 800bf76:	6026      	str	r6, [r4, #0]
 800bf78:	60a5      	str	r5, [r4, #8]
 800bf7a:	463e      	mov	r6, r7
 800bf7c:	42be      	cmp	r6, r7
 800bf7e:	d900      	bls.n	800bf82 <__ssputs_r+0x86>
 800bf80:	463e      	mov	r6, r7
 800bf82:	4632      	mov	r2, r6
 800bf84:	6820      	ldr	r0, [r4, #0]
 800bf86:	4641      	mov	r1, r8
 800bf88:	f000 ff40 	bl	800ce0c <memmove>
 800bf8c:	68a3      	ldr	r3, [r4, #8]
 800bf8e:	6822      	ldr	r2, [r4, #0]
 800bf90:	1b9b      	subs	r3, r3, r6
 800bf92:	4432      	add	r2, r6
 800bf94:	60a3      	str	r3, [r4, #8]
 800bf96:	6022      	str	r2, [r4, #0]
 800bf98:	2000      	movs	r0, #0
 800bf9a:	e7db      	b.n	800bf54 <__ssputs_r+0x58>
 800bf9c:	462a      	mov	r2, r5
 800bf9e:	f000 ff4f 	bl	800ce40 <_realloc_r>
 800bfa2:	4606      	mov	r6, r0
 800bfa4:	2800      	cmp	r0, #0
 800bfa6:	d1e1      	bne.n	800bf6c <__ssputs_r+0x70>
 800bfa8:	6921      	ldr	r1, [r4, #16]
 800bfaa:	4650      	mov	r0, sl
 800bfac:	f7ff fe60 	bl	800bc70 <_free_r>
 800bfb0:	e7c7      	b.n	800bf42 <__ssputs_r+0x46>
	...

0800bfb4 <_svfiprintf_r>:
 800bfb4:	e92d 4ff0 	stmdb	sp!, {r4, r5, r6, r7, r8, r9, sl, fp, lr}
 800bfb8:	4698      	mov	r8, r3
 800bfba:	898b      	ldrh	r3, [r1, #12]
 800bfbc:	061b      	lsls	r3, r3, #24
 800bfbe:	b09d      	sub	sp, #116	; 0x74
 800bfc0:	4607      	mov	r7, r0
 800bfc2:	460d      	mov	r5, r1
 800bfc4:	4614      	mov	r4, r2
 800bfc6:	d50e      	bpl.n	800bfe6 <_svfiprintf_r+0x32>
 800bfc8:	690b      	ldr	r3, [r1, #16]
 800bfca:	b963      	cbnz	r3, 800bfe6 <_svfiprintf_r+0x32>
 800bfcc:	2140      	movs	r1, #64	; 0x40
 800bfce:	f7ff fe9f 	bl	800bd10 <_malloc_r>
 800bfd2:	6028      	str	r0, [r5, #0]
 800bfd4:	6128      	str	r0, [r5, #16]
 800bfd6:	b920      	cbnz	r0, 800bfe2 <_svfiprintf_r+0x2e>
 800bfd8:	230c      	movs	r3, #12
 800bfda:	603b      	str	r3, [r7, #0]
 800bfdc:	f04f 30ff 	mov.w	r0, #4294967295
 800bfe0:	e0d1      	b.n	800c186 <_svfiprintf_r+0x1d2>
 800bfe2:	2340      	movs	r3, #64	; 0x40
 800bfe4:	616b      	str	r3, [r5, #20]
 800bfe6:	2300      	movs	r3, #0
 800bfe8:	9309      	str	r3, [sp, #36]	; 0x24
 800bfea:	2320      	movs	r3, #32
 800bfec:	f88d 3029 	strb.w	r3, [sp, #41]	; 0x29
 800bff0:	f8cd 800c 	str.w	r8, [sp, #12]
 800bff4:	2330      	movs	r3, #48	; 0x30
 800bff6:	f8df 81a8 	ldr.w	r8, [pc, #424]	; 800c1a0 <_svfiprintf_r+0x1ec>
 800bffa:	f88d 302a 	strb.w	r3, [sp, #42]	; 0x2a
 800bffe:	f04f 0901 	mov.w	r9, #1
 800c002:	4623      	mov	r3, r4
 800c004:	469a      	mov	sl, r3
 800c006:	f813 2b01 	ldrb.w	r2, [r3], #1
 800c00a:	b10a      	cbz	r2, 800c010 <_svfiprintf_r+0x5c>
 800c00c:	2a25      	cmp	r2, #37	; 0x25
 800c00e:	d1f9      	bne.n	800c004 <_svfiprintf_r+0x50>
 800c010:	ebba 0b04 	subs.w	fp, sl, r4
 800c014:	d00b      	beq.n	800c02e <_svfiprintf_r+0x7a>
 800c016:	465b      	mov	r3, fp
 800c018:	4622      	mov	r2, r4
 800c01a:	4629      	mov	r1, r5
 800c01c:	4638      	mov	r0, r7
 800c01e:	f7ff ff6d 	bl	800befc <__ssputs_r>
 800c022:	3001      	adds	r0, #1
 800c024:	f000 80aa 	beq.w	800c17c <_svfiprintf_r+0x1c8>
 800c028:	9a09      	ldr	r2, [sp, #36]	; 0x24
 800c02a:	445a      	add	r2, fp
 800c02c:	9209      	str	r2, [sp, #36]	; 0x24
 800c02e:	f89a 3000 	ldrb.w	r3, [sl]
 800c032:	2b00      	cmp	r3, #0
 800c034:	f000 80a2 	beq.w	800c17c <_svfiprintf_r+0x1c8>
 800c038:	2300      	movs	r3, #0
 800c03a:	f04f 32ff 	mov.w	r2, #4294967295
 800c03e:	e9cd 2305 	strd	r2, r3, [sp, #20]
 800c042:	f10a 0a01 	add.w	sl, sl, #1
 800c046:	9304      	str	r3, [sp, #16]
 800c048:	9307      	str	r3, [sp, #28]
 800c04a:	f88d 3053 	strb.w	r3, [sp, #83]	; 0x53
 800c04e:	931a      	str	r3, [sp, #104]	; 0x68
 800c050:	4654      	mov	r4, sl
 800c052:	2205      	movs	r2, #5
 800c054:	f814 1b01 	ldrb.w	r1, [r4], #1
 800c058:	4851      	ldr	r0, [pc, #324]	; (800c1a0 <_svfiprintf_r+0x1ec>)
 800c05a:	f7f8 f8e9 	bl	8004230 <memchr>
 800c05e:	9a04      	ldr	r2, [sp, #16]
 800c060:	b9d8      	cbnz	r0, 800c09a <_svfiprintf_r+0xe6>
 800c062:	06d0      	lsls	r0, r2, #27
 800c064:	bf44      	itt	mi
 800c066:	2320      	movmi	r3, #32
 800c068:	f88d 3053 	strbmi.w	r3, [sp, #83]	; 0x53
 800c06c:	0711      	lsls	r1, r2, #28
 800c06e:	bf44      	itt	mi
 800c070:	232b      	movmi	r3, #43	; 0x2b
 800c072:	f88d 3053 	strbmi.w	r3, [sp, #83]	; 0x53
 800c076:	f89a 3000 	ldrb.w	r3, [sl]
 800c07a:	2b2a      	cmp	r3, #42	; 0x2a
 800c07c:	d015      	beq.n	800c0aa <_svfiprintf_r+0xf6>
 800c07e:	9a07      	ldr	r2, [sp, #28]
 800c080:	4654      	mov	r4, sl
 800c082:	2000      	movs	r0, #0
 800c084:	f04f 0c0a 	mov.w	ip, #10
 800c088:	4621      	mov	r1, r4
 800c08a:	f811 3b01 	ldrb.w	r3, [r1], #1
 800c08e:	3b30      	subs	r3, #48	; 0x30
 800c090:	2b09      	cmp	r3, #9
 800c092:	d94e      	bls.n	800c132 <_svfiprintf_r+0x17e>
 800c094:	b1b0      	cbz	r0, 800c0c4 <_svfiprintf_r+0x110>
 800c096:	9207      	str	r2, [sp, #28]
 800c098:	e014      	b.n	800c0c4 <_svfiprintf_r+0x110>
 800c09a:	eba0 0308 	sub.w	r3, r0, r8
 800c09e:	fa09 f303 	lsl.w	r3, r9, r3
 800c0a2:	4313      	orrs	r3, r2
 800c0a4:	9304      	str	r3, [sp, #16]
 800c0a6:	46a2      	mov	sl, r4
 800c0a8:	e7d2      	b.n	800c050 <_svfiprintf_r+0x9c>
 800c0aa:	9b03      	ldr	r3, [sp, #12]
 800c0ac:	1d19      	adds	r1, r3, #4
 800c0ae:	681b      	ldr	r3, [r3, #0]
 800c0b0:	9103      	str	r1, [sp, #12]
 800c0b2:	2b00      	cmp	r3, #0
 800c0b4:	bfbb      	ittet	lt
 800c0b6:	425b      	neglt	r3, r3
 800c0b8:	f042 0202 	orrlt.w	r2, r2, #2
 800c0bc:	9307      	strge	r3, [sp, #28]
 800c0be:	9307      	strlt	r3, [sp, #28]
 800c0c0:	bfb8      	it	lt
 800c0c2:	9204      	strlt	r2, [sp, #16]
 800c0c4:	7823      	ldrb	r3, [r4, #0]
 800c0c6:	2b2e      	cmp	r3, #46	; 0x2e
 800c0c8:	d10c      	bne.n	800c0e4 <_svfiprintf_r+0x130>
 800c0ca:	7863      	ldrb	r3, [r4, #1]
 800c0cc:	2b2a      	cmp	r3, #42	; 0x2a
 800c0ce:	d135      	bne.n	800c13c <_svfiprintf_r+0x188>
 800c0d0:	9b03      	ldr	r3, [sp, #12]
 800c0d2:	1d1a      	adds	r2, r3, #4
 800c0d4:	681b      	ldr	r3, [r3, #0]
 800c0d6:	9203      	str	r2, [sp, #12]
 800c0d8:	2b00      	cmp	r3, #0
 800c0da:	bfb8      	it	lt
 800c0dc:	f04f 33ff 	movlt.w	r3, #4294967295
 800c0e0:	3402      	adds	r4, #2
 800c0e2:	9305      	str	r3, [sp, #20]
 800c0e4:	f8df a0c8 	ldr.w	sl, [pc, #200]	; 800c1b0 <_svfiprintf_r+0x1fc>
 800c0e8:	7821      	ldrb	r1, [r4, #0]
 800c0ea:	2203      	movs	r2, #3
 800c0ec:	4650      	mov	r0, sl
 800c0ee:	f7f8 f89f 	bl	8004230 <memchr>
 800c0f2:	b140      	cbz	r0, 800c106 <_svfiprintf_r+0x152>
 800c0f4:	2340      	movs	r3, #64	; 0x40
 800c0f6:	eba0 000a 	sub.w	r0, r0, sl
 800c0fa:	fa03 f000 	lsl.w	r0, r3, r0
 800c0fe:	9b04      	ldr	r3, [sp, #16]
 800c100:	4303      	orrs	r3, r0
 800c102:	3401      	adds	r4, #1
 800c104:	9304      	str	r3, [sp, #16]
 800c106:	f814 1b01 	ldrb.w	r1, [r4], #1
 800c10a:	4826      	ldr	r0, [pc, #152]	; (800c1a4 <_svfiprintf_r+0x1f0>)
 800c10c:	f88d 1028 	strb.w	r1, [sp, #40]	; 0x28
 800c110:	2206      	movs	r2, #6
 800c112:	f7f8 f88d 	bl	8004230 <memchr>
 800c116:	2800      	cmp	r0, #0
 800c118:	d038      	beq.n	800c18c <_svfiprintf_r+0x1d8>
 800c11a:	4b23      	ldr	r3, [pc, #140]	; (800c1a8 <_svfiprintf_r+0x1f4>)
 800c11c:	bb1b      	cbnz	r3, 800c166 <_svfiprintf_r+0x1b2>
 800c11e:	9b03      	ldr	r3, [sp, #12]
 800c120:	3307      	adds	r3, #7
 800c122:	f023 0307 	bic.w	r3, r3, #7
 800c126:	3308      	adds	r3, #8
 800c128:	9303      	str	r3, [sp, #12]
 800c12a:	9b09      	ldr	r3, [sp, #36]	; 0x24
 800c12c:	4433      	add	r3, r6
 800c12e:	9309      	str	r3, [sp, #36]	; 0x24
 800c130:	e767      	b.n	800c002 <_svfiprintf_r+0x4e>
 800c132:	fb0c 3202 	mla	r2, ip, r2, r3
 800c136:	460c      	mov	r4, r1
 800c138:	2001      	movs	r0, #1
 800c13a:	e7a5      	b.n	800c088 <_svfiprintf_r+0xd4>
 800c13c:	2300      	movs	r3, #0
 800c13e:	3401      	adds	r4, #1
 800c140:	9305      	str	r3, [sp, #20]
 800c142:	4619      	mov	r1, r3
 800c144:	f04f 0c0a 	mov.w	ip, #10
 800c148:	4620      	mov	r0, r4
 800c14a:	f810 2b01 	ldrb.w	r2, [r0], #1
 800c14e:	3a30      	subs	r2, #48	; 0x30
 800c150:	2a09      	cmp	r2, #9
 800c152:	d903      	bls.n	800c15c <_svfiprintf_r+0x1a8>
 800c154:	2b00      	cmp	r3, #0
 800c156:	d0c5      	beq.n	800c0e4 <_svfiprintf_r+0x130>
 800c158:	9105      	str	r1, [sp, #20]
 800c15a:	e7c3      	b.n	800c0e4 <_svfiprintf_r+0x130>
 800c15c:	fb0c 2101 	mla	r1, ip, r1, r2
 800c160:	4604      	mov	r4, r0
 800c162:	2301      	movs	r3, #1
 800c164:	e7f0      	b.n	800c148 <_svfiprintf_r+0x194>
 800c166:	ab03      	add	r3, sp, #12
 800c168:	9300      	str	r3, [sp, #0]
 800c16a:	462a      	mov	r2, r5
 800c16c:	4b0f      	ldr	r3, [pc, #60]	; (800c1ac <_svfiprintf_r+0x1f8>)
 800c16e:	a904      	add	r1, sp, #16
 800c170:	4638      	mov	r0, r7
 800c172:	f3af 8000 	nop.w
 800c176:	1c42      	adds	r2, r0, #1
 800c178:	4606      	mov	r6, r0
 800c17a:	d1d6      	bne.n	800c12a <_svfiprintf_r+0x176>
 800c17c:	89ab      	ldrh	r3, [r5, #12]
 800c17e:	065b      	lsls	r3, r3, #25
 800c180:	f53f af2c 	bmi.w	800bfdc <_svfiprintf_r+0x28>
 800c184:	9809      	ldr	r0, [sp, #36]	; 0x24
 800c186:	b01d      	add	sp, #116	; 0x74
 800c188:	e8bd 8ff0 	ldmia.w	sp!, {r4, r5, r6, r7, r8, r9, sl, fp, pc}
 800c18c:	ab03      	add	r3, sp, #12
 800c18e:	9300      	str	r3, [sp, #0]
 800c190:	462a      	mov	r2, r5
 800c192:	4b06      	ldr	r3, [pc, #24]	; (800c1ac <_svfiprintf_r+0x1f8>)
 800c194:	a904      	add	r1, sp, #16
 800c196:	4638      	mov	r0, r7
 800c198:	f000 fa4c 	bl	800c634 <_printf_i>
 800c19c:	e7eb      	b.n	800c176 <_svfiprintf_r+0x1c2>
 800c19e:	bf00      	nop
 800c1a0:	0800d256 	.word	0x0800d256
 800c1a4:	0800d260 	.word	0x0800d260
 800c1a8:	00000000 	.word	0x00000000
 800c1ac:	0800befd 	.word	0x0800befd
 800c1b0:	0800d25c 	.word	0x0800d25c

0800c1b4 <_sungetc_r>:
 800c1b4:	b538      	push	{r3, r4, r5, lr}
 800c1b6:	1c4b      	adds	r3, r1, #1
 800c1b8:	4614      	mov	r4, r2
 800c1ba:	d103      	bne.n	800c1c4 <_sungetc_r+0x10>
 800c1bc:	f04f 35ff 	mov.w	r5, #4294967295
 800c1c0:	4628      	mov	r0, r5
 800c1c2:	bd38      	pop	{r3, r4, r5, pc}
 800c1c4:	8993      	ldrh	r3, [r2, #12]
 800c1c6:	f023 0320 	bic.w	r3, r3, #32
 800c1ca:	8193      	strh	r3, [r2, #12]
 800c1cc:	6b63      	ldr	r3, [r4, #52]	; 0x34
 800c1ce:	6852      	ldr	r2, [r2, #4]
 800c1d0:	b2cd      	uxtb	r5, r1
 800c1d2:	b18b      	cbz	r3, 800c1f8 <_sungetc_r+0x44>
 800c1d4:	6ba3      	ldr	r3, [r4, #56]	; 0x38
 800c1d6:	4293      	cmp	r3, r2
 800c1d8:	dd08      	ble.n	800c1ec <_sungetc_r+0x38>
 800c1da:	6823      	ldr	r3, [r4, #0]
 800c1dc:	1e5a      	subs	r2, r3, #1
 800c1de:	6022      	str	r2, [r4, #0]
 800c1e0:	f803 5c01 	strb.w	r5, [r3, #-1]
 800c1e4:	6863      	ldr	r3, [r4, #4]
 800c1e6:	3301      	adds	r3, #1
 800c1e8:	6063      	str	r3, [r4, #4]
 800c1ea:	e7e9      	b.n	800c1c0 <_sungetc_r+0xc>
 800c1ec:	4621      	mov	r1, r4
 800c1ee:	f000 fdd1 	bl	800cd94 <__submore>
 800c1f2:	2800      	cmp	r0, #0
 800c1f4:	d0f1      	beq.n	800c1da <_sungetc_r+0x26>
 800c1f6:	e7e1      	b.n	800c1bc <_sungetc_r+0x8>
 800c1f8:	6921      	ldr	r1, [r4, #16]
 800c1fa:	6823      	ldr	r3, [r4, #0]
 800c1fc:	b151      	cbz	r1, 800c214 <_sungetc_r+0x60>
 800c1fe:	4299      	cmp	r1, r3
 800c200:	d208      	bcs.n	800c214 <_sungetc_r+0x60>
 800c202:	f813 1c01 	ldrb.w	r1, [r3, #-1]
 800c206:	42a9      	cmp	r1, r5
 800c208:	d104      	bne.n	800c214 <_sungetc_r+0x60>
 800c20a:	3b01      	subs	r3, #1
 800c20c:	3201      	adds	r2, #1
 800c20e:	6023      	str	r3, [r4, #0]
 800c210:	6062      	str	r2, [r4, #4]
 800c212:	e7d5      	b.n	800c1c0 <_sungetc_r+0xc>
 800c214:	e9c4 320f 	strd	r3, r2, [r4, #60]	; 0x3c
 800c218:	f104 0344 	add.w	r3, r4, #68	; 0x44
 800c21c:	6363      	str	r3, [r4, #52]	; 0x34
 800c21e:	2303      	movs	r3, #3
 800c220:	63a3      	str	r3, [r4, #56]	; 0x38
 800c222:	4623      	mov	r3, r4
 800c224:	f803 5f46 	strb.w	r5, [r3, #70]!
 800c228:	6023      	str	r3, [r4, #0]
 800c22a:	2301      	movs	r3, #1
 800c22c:	e7dc      	b.n	800c1e8 <_sungetc_r+0x34>

0800c22e <__ssrefill_r>:
 800c22e:	b510      	push	{r4, lr}
 800c230:	460c      	mov	r4, r1
 800c232:	6b49      	ldr	r1, [r1, #52]	; 0x34
 800c234:	b169      	cbz	r1, 800c252 <__ssrefill_r+0x24>
 800c236:	f104 0344 	add.w	r3, r4, #68	; 0x44
 800c23a:	4299      	cmp	r1, r3
 800c23c:	d001      	beq.n	800c242 <__ssrefill_r+0x14>
 800c23e:	f7ff fd17 	bl	800bc70 <_free_r>
 800c242:	6c23      	ldr	r3, [r4, #64]	; 0x40
 800c244:	6063      	str	r3, [r4, #4]
 800c246:	2000      	movs	r0, #0
 800c248:	6360      	str	r0, [r4, #52]	; 0x34
 800c24a:	b113      	cbz	r3, 800c252 <__ssrefill_r+0x24>
 800c24c:	6be3      	ldr	r3, [r4, #60]	; 0x3c
 800c24e:	6023      	str	r3, [r4, #0]
 800c250:	bd10      	pop	{r4, pc}
 800c252:	6923      	ldr	r3, [r4, #16]
 800c254:	6023      	str	r3, [r4, #0]
 800c256:	2300      	movs	r3, #0
 800c258:	6063      	str	r3, [r4, #4]
 800c25a:	89a3      	ldrh	r3, [r4, #12]
 800c25c:	f043 0320 	orr.w	r3, r3, #32
 800c260:	81a3      	strh	r3, [r4, #12]
 800c262:	f04f 30ff 	mov.w	r0, #4294967295
 800c266:	e7f3      	b.n	800c250 <__ssrefill_r+0x22>

0800c268 <__ssvfiscanf_r>:
 800c268:	e92d 4ff0 	stmdb	sp!, {r4, r5, r6, r7, r8, r9, sl, fp, lr}
 800c26c:	460c      	mov	r4, r1
 800c26e:	f5ad 7d23 	sub.w	sp, sp, #652	; 0x28c
 800c272:	2100      	movs	r1, #0
 800c274:	e9cd 1144 	strd	r1, r1, [sp, #272]	; 0x110
 800c278:	49b2      	ldr	r1, [pc, #712]	; (800c544 <__ssvfiscanf_r+0x2dc>)
 800c27a:	91a0      	str	r1, [sp, #640]	; 0x280
 800c27c:	f10d 0804 	add.w	r8, sp, #4
 800c280:	49b1      	ldr	r1, [pc, #708]	; (800c548 <__ssvfiscanf_r+0x2e0>)
 800c282:	4fb2      	ldr	r7, [pc, #712]	; (800c54c <__ssvfiscanf_r+0x2e4>)
 800c284:	f8df 92c8 	ldr.w	r9, [pc, #712]	; 800c550 <__ssvfiscanf_r+0x2e8>
 800c288:	f8cd 8118 	str.w	r8, [sp, #280]	; 0x118
 800c28c:	4606      	mov	r6, r0
 800c28e:	91a1      	str	r1, [sp, #644]	; 0x284
 800c290:	9300      	str	r3, [sp, #0]
 800c292:	f892 a000 	ldrb.w	sl, [r2]
 800c296:	f1ba 0f00 	cmp.w	sl, #0
 800c29a:	f000 8151 	beq.w	800c540 <__ssvfiscanf_r+0x2d8>
 800c29e:	f81a 3007 	ldrb.w	r3, [sl, r7]
 800c2a2:	f013 0308 	ands.w	r3, r3, #8
 800c2a6:	f102 0501 	add.w	r5, r2, #1
 800c2aa:	d019      	beq.n	800c2e0 <__ssvfiscanf_r+0x78>
 800c2ac:	6863      	ldr	r3, [r4, #4]
 800c2ae:	2b00      	cmp	r3, #0
 800c2b0:	dd0f      	ble.n	800c2d2 <__ssvfiscanf_r+0x6a>
 800c2b2:	6823      	ldr	r3, [r4, #0]
 800c2b4:	781a      	ldrb	r2, [r3, #0]
 800c2b6:	5cba      	ldrb	r2, [r7, r2]
 800c2b8:	0712      	lsls	r2, r2, #28
 800c2ba:	d401      	bmi.n	800c2c0 <__ssvfiscanf_r+0x58>
 800c2bc:	462a      	mov	r2, r5
 800c2be:	e7e8      	b.n	800c292 <__ssvfiscanf_r+0x2a>
 800c2c0:	9a45      	ldr	r2, [sp, #276]	; 0x114
 800c2c2:	3201      	adds	r2, #1
 800c2c4:	9245      	str	r2, [sp, #276]	; 0x114
 800c2c6:	6862      	ldr	r2, [r4, #4]
 800c2c8:	3301      	adds	r3, #1
 800c2ca:	3a01      	subs	r2, #1
 800c2cc:	6062      	str	r2, [r4, #4]
 800c2ce:	6023      	str	r3, [r4, #0]
 800c2d0:	e7ec      	b.n	800c2ac <__ssvfiscanf_r+0x44>
 800c2d2:	9ba1      	ldr	r3, [sp, #644]	; 0x284
 800c2d4:	4621      	mov	r1, r4
 800c2d6:	4630      	mov	r0, r6
 800c2d8:	4798      	blx	r3
 800c2da:	2800      	cmp	r0, #0
 800c2dc:	d0e9      	beq.n	800c2b2 <__ssvfiscanf_r+0x4a>
 800c2de:	e7ed      	b.n	800c2bc <__ssvfiscanf_r+0x54>
 800c2e0:	f1ba 0f25 	cmp.w	sl, #37	; 0x25
 800c2e4:	f040 8083 	bne.w	800c3ee <__ssvfiscanf_r+0x186>
 800c2e8:	9341      	str	r3, [sp, #260]	; 0x104
 800c2ea:	9343      	str	r3, [sp, #268]	; 0x10c
 800c2ec:	7853      	ldrb	r3, [r2, #1]
 800c2ee:	2b2a      	cmp	r3, #42	; 0x2a
 800c2f0:	bf02      	ittt	eq
 800c2f2:	2310      	moveq	r3, #16
 800c2f4:	1c95      	addeq	r5, r2, #2
 800c2f6:	9341      	streq	r3, [sp, #260]	; 0x104
 800c2f8:	220a      	movs	r2, #10
 800c2fa:	46ab      	mov	fp, r5
 800c2fc:	f81b 1b01 	ldrb.w	r1, [fp], #1
 800c300:	f1a1 0330 	sub.w	r3, r1, #48	; 0x30
 800c304:	2b09      	cmp	r3, #9
 800c306:	d91d      	bls.n	800c344 <__ssvfiscanf_r+0xdc>
 800c308:	4891      	ldr	r0, [pc, #580]	; (800c550 <__ssvfiscanf_r+0x2e8>)
 800c30a:	2203      	movs	r2, #3
 800c30c:	f7f7 ff90 	bl	8004230 <memchr>
 800c310:	b140      	cbz	r0, 800c324 <__ssvfiscanf_r+0xbc>
 800c312:	2301      	movs	r3, #1
 800c314:	eba0 0009 	sub.w	r0, r0, r9
 800c318:	fa03 f000 	lsl.w	r0, r3, r0
 800c31c:	9b41      	ldr	r3, [sp, #260]	; 0x104
 800c31e:	4318      	orrs	r0, r3
 800c320:	9041      	str	r0, [sp, #260]	; 0x104
 800c322:	465d      	mov	r5, fp
 800c324:	f815 3b01 	ldrb.w	r3, [r5], #1
 800c328:	2b78      	cmp	r3, #120	; 0x78
 800c32a:	d806      	bhi.n	800c33a <__ssvfiscanf_r+0xd2>
 800c32c:	2b57      	cmp	r3, #87	; 0x57
 800c32e:	d810      	bhi.n	800c352 <__ssvfiscanf_r+0xea>
 800c330:	2b25      	cmp	r3, #37	; 0x25
 800c332:	d05c      	beq.n	800c3ee <__ssvfiscanf_r+0x186>
 800c334:	d856      	bhi.n	800c3e4 <__ssvfiscanf_r+0x17c>
 800c336:	2b00      	cmp	r3, #0
 800c338:	d074      	beq.n	800c424 <__ssvfiscanf_r+0x1bc>
 800c33a:	2303      	movs	r3, #3
 800c33c:	9347      	str	r3, [sp, #284]	; 0x11c
 800c33e:	230a      	movs	r3, #10
 800c340:	9342      	str	r3, [sp, #264]	; 0x108
 800c342:	e081      	b.n	800c448 <__ssvfiscanf_r+0x1e0>
 800c344:	9b43      	ldr	r3, [sp, #268]	; 0x10c
 800c346:	fb02 1303 	mla	r3, r2, r3, r1
 800c34a:	3b30      	subs	r3, #48	; 0x30
 800c34c:	9343      	str	r3, [sp, #268]	; 0x10c
 800c34e:	465d      	mov	r5, fp
 800c350:	e7d3      	b.n	800c2fa <__ssvfiscanf_r+0x92>
 800c352:	f1a3 0258 	sub.w	r2, r3, #88	; 0x58
 800c356:	2a20      	cmp	r2, #32
 800c358:	d8ef      	bhi.n	800c33a <__ssvfiscanf_r+0xd2>
 800c35a:	a101      	add	r1, pc, #4	; (adr r1, 800c360 <__ssvfiscanf_r+0xf8>)
 800c35c:	f851 f022 	ldr.w	pc, [r1, r2, lsl #2]
 800c360:	0800c433 	.word	0x0800c433
 800c364:	0800c33b 	.word	0x0800c33b
 800c368:	0800c33b 	.word	0x0800c33b
 800c36c:	0800c491 	.word	0x0800c491
 800c370:	0800c33b 	.word	0x0800c33b
 800c374:	0800c33b 	.word	0x0800c33b
 800c378:	0800c33b 	.word	0x0800c33b
 800c37c:	0800c33b 	.word	0x0800c33b
 800c380:	0800c33b 	.word	0x0800c33b
 800c384:	0800c33b 	.word	0x0800c33b
 800c388:	0800c33b 	.word	0x0800c33b
 800c38c:	0800c4a7 	.word	0x0800c4a7
 800c390:	0800c47d 	.word	0x0800c47d
 800c394:	0800c3eb 	.word	0x0800c3eb
 800c398:	0800c3eb 	.word	0x0800c3eb
 800c39c:	0800c3eb 	.word	0x0800c3eb
 800c3a0:	0800c33b 	.word	0x0800c33b
 800c3a4:	0800c481 	.word	0x0800c481
 800c3a8:	0800c33b 	.word	0x0800c33b
 800c3ac:	0800c33b 	.word	0x0800c33b
 800c3b0:	0800c33b 	.word	0x0800c33b
 800c3b4:	0800c33b 	.word	0x0800c33b
 800c3b8:	0800c4b7 	.word	0x0800c4b7
 800c3bc:	0800c489 	.word	0x0800c489
 800c3c0:	0800c42b 	.word	0x0800c42b
 800c3c4:	0800c33b 	.word	0x0800c33b
 800c3c8:	0800c33b 	.word	0x0800c33b
 800c3cc:	0800c4b3 	.word	0x0800c4b3
 800c3d0:	0800c33b 	.word	0x0800c33b
 800c3d4:	0800c47d 	.word	0x0800c47d
 800c3d8:	0800c33b 	.word	0x0800c33b
 800c3dc:	0800c33b 	.word	0x0800c33b
 800c3e0:	0800c433 	.word	0x0800c433
 800c3e4:	3b45      	subs	r3, #69	; 0x45
 800c3e6:	2b02      	cmp	r3, #2
 800c3e8:	d8a7      	bhi.n	800c33a <__ssvfiscanf_r+0xd2>
 800c3ea:	2305      	movs	r3, #5
 800c3ec:	e02b      	b.n	800c446 <__ssvfiscanf_r+0x1de>
 800c3ee:	6863      	ldr	r3, [r4, #4]
 800c3f0:	2b00      	cmp	r3, #0
 800c3f2:	dd0d      	ble.n	800c410 <__ssvfiscanf_r+0x1a8>
 800c3f4:	6823      	ldr	r3, [r4, #0]
 800c3f6:	781a      	ldrb	r2, [r3, #0]
 800c3f8:	4552      	cmp	r2, sl
 800c3fa:	f040 80a1 	bne.w	800c540 <__ssvfiscanf_r+0x2d8>
 800c3fe:	3301      	adds	r3, #1
 800c400:	6862      	ldr	r2, [r4, #4]
 800c402:	6023      	str	r3, [r4, #0]
 800c404:	9b45      	ldr	r3, [sp, #276]	; 0x114
 800c406:	3a01      	subs	r2, #1
 800c408:	3301      	adds	r3, #1
 800c40a:	6062      	str	r2, [r4, #4]
 800c40c:	9345      	str	r3, [sp, #276]	; 0x114
 800c40e:	e755      	b.n	800c2bc <__ssvfiscanf_r+0x54>
 800c410:	9ba1      	ldr	r3, [sp, #644]	; 0x284
 800c412:	4621      	mov	r1, r4
 800c414:	4630      	mov	r0, r6
 800c416:	4798      	blx	r3
 800c418:	2800      	cmp	r0, #0
 800c41a:	d0eb      	beq.n	800c3f4 <__ssvfiscanf_r+0x18c>
 800c41c:	9844      	ldr	r0, [sp, #272]	; 0x110
 800c41e:	2800      	cmp	r0, #0
 800c420:	f040 8084 	bne.w	800c52c <__ssvfiscanf_r+0x2c4>
 800c424:	f04f 30ff 	mov.w	r0, #4294967295
 800c428:	e086      	b.n	800c538 <__ssvfiscanf_r+0x2d0>
 800c42a:	9a41      	ldr	r2, [sp, #260]	; 0x104
 800c42c:	f042 0220 	orr.w	r2, r2, #32
 800c430:	9241      	str	r2, [sp, #260]	; 0x104
 800c432:	9a41      	ldr	r2, [sp, #260]	; 0x104
 800c434:	f442 7200 	orr.w	r2, r2, #512	; 0x200
 800c438:	9241      	str	r2, [sp, #260]	; 0x104
 800c43a:	2210      	movs	r2, #16
 800c43c:	2b6f      	cmp	r3, #111	; 0x6f
 800c43e:	9242      	str	r2, [sp, #264]	; 0x108
 800c440:	bf34      	ite	cc
 800c442:	2303      	movcc	r3, #3
 800c444:	2304      	movcs	r3, #4
 800c446:	9347      	str	r3, [sp, #284]	; 0x11c
 800c448:	6863      	ldr	r3, [r4, #4]
 800c44a:	2b00      	cmp	r3, #0
 800c44c:	dd41      	ble.n	800c4d2 <__ssvfiscanf_r+0x26a>
 800c44e:	9b41      	ldr	r3, [sp, #260]	; 0x104
 800c450:	0659      	lsls	r1, r3, #25
 800c452:	d404      	bmi.n	800c45e <__ssvfiscanf_r+0x1f6>
 800c454:	6823      	ldr	r3, [r4, #0]
 800c456:	781a      	ldrb	r2, [r3, #0]
 800c458:	5cba      	ldrb	r2, [r7, r2]
 800c45a:	0712      	lsls	r2, r2, #28
 800c45c:	d440      	bmi.n	800c4e0 <__ssvfiscanf_r+0x278>
 800c45e:	9b47      	ldr	r3, [sp, #284]	; 0x11c
 800c460:	2b02      	cmp	r3, #2
 800c462:	dc4f      	bgt.n	800c504 <__ssvfiscanf_r+0x29c>
 800c464:	466b      	mov	r3, sp
 800c466:	4622      	mov	r2, r4
 800c468:	a941      	add	r1, sp, #260	; 0x104
 800c46a:	4630      	mov	r0, r6
 800c46c:	f000 fa08 	bl	800c880 <_scanf_chars>
 800c470:	2801      	cmp	r0, #1
 800c472:	d065      	beq.n	800c540 <__ssvfiscanf_r+0x2d8>
 800c474:	2802      	cmp	r0, #2
 800c476:	f47f af21 	bne.w	800c2bc <__ssvfiscanf_r+0x54>
 800c47a:	e7cf      	b.n	800c41c <__ssvfiscanf_r+0x1b4>
 800c47c:	220a      	movs	r2, #10
 800c47e:	e7dd      	b.n	800c43c <__ssvfiscanf_r+0x1d4>
 800c480:	2300      	movs	r3, #0
 800c482:	9342      	str	r3, [sp, #264]	; 0x108
 800c484:	2303      	movs	r3, #3
 800c486:	e7de      	b.n	800c446 <__ssvfiscanf_r+0x1de>
 800c488:	2308      	movs	r3, #8
 800c48a:	9342      	str	r3, [sp, #264]	; 0x108
 800c48c:	2304      	movs	r3, #4
 800c48e:	e7da      	b.n	800c446 <__ssvfiscanf_r+0x1de>
 800c490:	4629      	mov	r1, r5
 800c492:	4640      	mov	r0, r8
 800c494:	f000 fb40 	bl	800cb18 <__sccl>
 800c498:	9b41      	ldr	r3, [sp, #260]	; 0x104
 800c49a:	f043 0340 	orr.w	r3, r3, #64	; 0x40
 800c49e:	9341      	str	r3, [sp, #260]	; 0x104
 800c4a0:	4605      	mov	r5, r0
 800c4a2:	2301      	movs	r3, #1
 800c4a4:	e7cf      	b.n	800c446 <__ssvfiscanf_r+0x1de>
 800c4a6:	9b41      	ldr	r3, [sp, #260]	; 0x104
 800c4a8:	f043 0340 	orr.w	r3, r3, #64	; 0x40
 800c4ac:	9341      	str	r3, [sp, #260]	; 0x104
 800c4ae:	2300      	movs	r3, #0
 800c4b0:	e7c9      	b.n	800c446 <__ssvfiscanf_r+0x1de>
 800c4b2:	2302      	movs	r3, #2
 800c4b4:	e7c7      	b.n	800c446 <__ssvfiscanf_r+0x1de>
 800c4b6:	9841      	ldr	r0, [sp, #260]	; 0x104
 800c4b8:	06c3      	lsls	r3, r0, #27
 800c4ba:	f53f aeff 	bmi.w	800c2bc <__ssvfiscanf_r+0x54>
 800c4be:	9b00      	ldr	r3, [sp, #0]
 800c4c0:	9a45      	ldr	r2, [sp, #276]	; 0x114
 800c4c2:	1d19      	adds	r1, r3, #4
 800c4c4:	9100      	str	r1, [sp, #0]
 800c4c6:	681b      	ldr	r3, [r3, #0]
 800c4c8:	07c0      	lsls	r0, r0, #31
 800c4ca:	bf4c      	ite	mi
 800c4cc:	801a      	strhmi	r2, [r3, #0]
 800c4ce:	601a      	strpl	r2, [r3, #0]
 800c4d0:	e6f4      	b.n	800c2bc <__ssvfiscanf_r+0x54>
 800c4d2:	9ba1      	ldr	r3, [sp, #644]	; 0x284
 800c4d4:	4621      	mov	r1, r4
 800c4d6:	4630      	mov	r0, r6
 800c4d8:	4798      	blx	r3
 800c4da:	2800      	cmp	r0, #0
 800c4dc:	d0b7      	beq.n	800c44e <__ssvfiscanf_r+0x1e6>
 800c4de:	e79d      	b.n	800c41c <__ssvfiscanf_r+0x1b4>
 800c4e0:	9a45      	ldr	r2, [sp, #276]	; 0x114
 800c4e2:	3201      	adds	r2, #1
 800c4e4:	9245      	str	r2, [sp, #276]	; 0x114
 800c4e6:	6862      	ldr	r2, [r4, #4]
 800c4e8:	3a01      	subs	r2, #1
 800c4ea:	2a00      	cmp	r2, #0
 800c4ec:	6062      	str	r2, [r4, #4]
 800c4ee:	dd02      	ble.n	800c4f6 <__ssvfiscanf_r+0x28e>
 800c4f0:	3301      	adds	r3, #1
 800c4f2:	6023      	str	r3, [r4, #0]
 800c4f4:	e7ae      	b.n	800c454 <__ssvfiscanf_r+0x1ec>
 800c4f6:	9ba1      	ldr	r3, [sp, #644]	; 0x284
 800c4f8:	4621      	mov	r1, r4
 800c4fa:	4630      	mov	r0, r6
 800c4fc:	4798      	blx	r3
 800c4fe:	2800      	cmp	r0, #0
 800c500:	d0a8      	beq.n	800c454 <__ssvfiscanf_r+0x1ec>
 800c502:	e78b      	b.n	800c41c <__ssvfiscanf_r+0x1b4>
 800c504:	2b04      	cmp	r3, #4
 800c506:	dc06      	bgt.n	800c516 <__ssvfiscanf_r+0x2ae>
 800c508:	466b      	mov	r3, sp
 800c50a:	4622      	mov	r2, r4
 800c50c:	a941      	add	r1, sp, #260	; 0x104
 800c50e:	4630      	mov	r0, r6
 800c510:	f000 fa0e 	bl	800c930 <_scanf_i>
 800c514:	e7ac      	b.n	800c470 <__ssvfiscanf_r+0x208>
 800c516:	4b0f      	ldr	r3, [pc, #60]	; (800c554 <__ssvfiscanf_r+0x2ec>)
 800c518:	2b00      	cmp	r3, #0
 800c51a:	f43f aecf 	beq.w	800c2bc <__ssvfiscanf_r+0x54>
 800c51e:	466b      	mov	r3, sp
 800c520:	4622      	mov	r2, r4
 800c522:	a941      	add	r1, sp, #260	; 0x104
 800c524:	4630      	mov	r0, r6
 800c526:	f3af 8000 	nop.w
 800c52a:	e7a1      	b.n	800c470 <__ssvfiscanf_r+0x208>
 800c52c:	89a3      	ldrh	r3, [r4, #12]
 800c52e:	f013 0f40 	tst.w	r3, #64	; 0x40
 800c532:	bf18      	it	ne
 800c534:	f04f 30ff 	movne.w	r0, #4294967295
 800c538:	f50d 7d23 	add.w	sp, sp, #652	; 0x28c
 800c53c:	e8bd 8ff0 	ldmia.w	sp!, {r4, r5, r6, r7, r8, r9, sl, fp, pc}
 800c540:	9844      	ldr	r0, [sp, #272]	; 0x110
 800c542:	e7f9      	b.n	800c538 <__ssvfiscanf_r+0x2d0>
 800c544:	0800c1b5 	.word	0x0800c1b5
 800c548:	0800c22f 	.word	0x0800c22f
 800c54c:	0800d156 	.word	0x0800d156
 800c550:	0800d25c 	.word	0x0800d25c
 800c554:	00000000 	.word	0x00000000

0800c558 <_printf_common>:
 800c558:	e92d 47f0 	stmdb	sp!, {r4, r5, r6, r7, r8, r9, sl, lr}
 800c55c:	4616      	mov	r6, r2
 800c55e:	4699      	mov	r9, r3
 800c560:	688a      	ldr	r2, [r1, #8]
 800c562:	690b      	ldr	r3, [r1, #16]
 800c564:	f8dd 8020 	ldr.w	r8, [sp, #32]
 800c568:	4293      	cmp	r3, r2
 800c56a:	bfb8      	it	lt
 800c56c:	4613      	movlt	r3, r2
 800c56e:	6033      	str	r3, [r6, #0]
 800c570:	f891 2043 	ldrb.w	r2, [r1, #67]	; 0x43
 800c574:	4607      	mov	r7, r0
 800c576:	460c      	mov	r4, r1
 800c578:	b10a      	cbz	r2, 800c57e <_printf_common+0x26>
 800c57a:	3301      	adds	r3, #1
 800c57c:	6033      	str	r3, [r6, #0]
 800c57e:	6823      	ldr	r3, [r4, #0]
 800c580:	0699      	lsls	r1, r3, #26
 800c582:	bf42      	ittt	mi
 800c584:	6833      	ldrmi	r3, [r6, #0]
 800c586:	3302      	addmi	r3, #2
 800c588:	6033      	strmi	r3, [r6, #0]
 800c58a:	6825      	ldr	r5, [r4, #0]
 800c58c:	f015 0506 	ands.w	r5, r5, #6
 800c590:	d106      	bne.n	800c5a0 <_printf_common+0x48>
 800c592:	f104 0a19 	add.w	sl, r4, #25
 800c596:	68e3      	ldr	r3, [r4, #12]
 800c598:	6832      	ldr	r2, [r6, #0]
 800c59a:	1a9b      	subs	r3, r3, r2
 800c59c:	42ab      	cmp	r3, r5
 800c59e:	dc26      	bgt.n	800c5ee <_printf_common+0x96>
 800c5a0:	f894 2043 	ldrb.w	r2, [r4, #67]	; 0x43
 800c5a4:	1e13      	subs	r3, r2, #0
 800c5a6:	6822      	ldr	r2, [r4, #0]
 800c5a8:	bf18      	it	ne
 800c5aa:	2301      	movne	r3, #1
 800c5ac:	0692      	lsls	r2, r2, #26
 800c5ae:	d42b      	bmi.n	800c608 <_printf_common+0xb0>
 800c5b0:	f104 0243 	add.w	r2, r4, #67	; 0x43
 800c5b4:	4649      	mov	r1, r9
 800c5b6:	4638      	mov	r0, r7
 800c5b8:	47c0      	blx	r8
 800c5ba:	3001      	adds	r0, #1
 800c5bc:	d01e      	beq.n	800c5fc <_printf_common+0xa4>
 800c5be:	6823      	ldr	r3, [r4, #0]
 800c5c0:	68e5      	ldr	r5, [r4, #12]
 800c5c2:	6832      	ldr	r2, [r6, #0]
 800c5c4:	f003 0306 	and.w	r3, r3, #6
 800c5c8:	2b04      	cmp	r3, #4
 800c5ca:	bf08      	it	eq
 800c5cc:	1aad      	subeq	r5, r5, r2
 800c5ce:	68a3      	ldr	r3, [r4, #8]
 800c5d0:	6922      	ldr	r2, [r4, #16]
 800c5d2:	bf0c      	ite	eq
 800c5d4:	ea25 75e5 	biceq.w	r5, r5, r5, asr #31
 800c5d8:	2500      	movne	r5, #0
 800c5da:	4293      	cmp	r3, r2
 800c5dc:	bfc4      	itt	gt
 800c5de:	1a9b      	subgt	r3, r3, r2
 800c5e0:	18ed      	addgt	r5, r5, r3
 800c5e2:	2600      	movs	r6, #0
 800c5e4:	341a      	adds	r4, #26
 800c5e6:	42b5      	cmp	r5, r6
 800c5e8:	d11a      	bne.n	800c620 <_printf_common+0xc8>
 800c5ea:	2000      	movs	r0, #0
 800c5ec:	e008      	b.n	800c600 <_printf_common+0xa8>
 800c5ee:	2301      	movs	r3, #1
 800c5f0:	4652      	mov	r2, sl
 800c5f2:	4649      	mov	r1, r9
 800c5f4:	4638      	mov	r0, r7
 800c5f6:	47c0      	blx	r8
 800c5f8:	3001      	adds	r0, #1
 800c5fa:	d103      	bne.n	800c604 <_printf_common+0xac>
 800c5fc:	f04f 30ff 	mov.w	r0, #4294967295
 800c600:	e8bd 87f0 	ldmia.w	sp!, {r4, r5, r6, r7, r8, r9, sl, pc}
 800c604:	3501      	adds	r5, #1
 800c606:	e7c6      	b.n	800c596 <_printf_common+0x3e>
 800c608:	18e1      	adds	r1, r4, r3
 800c60a:	1c5a      	adds	r2, r3, #1
 800c60c:	2030      	movs	r0, #48	; 0x30
 800c60e:	f881 0043 	strb.w	r0, [r1, #67]	; 0x43
 800c612:	4422      	add	r2, r4
 800c614:	f894 1045 	ldrb.w	r1, [r4, #69]	; 0x45
 800c618:	f882 1043 	strb.w	r1, [r2, #67]	; 0x43
 800c61c:	3302      	adds	r3, #2
 800c61e:	e7c7      	b.n	800c5b0 <_printf_common+0x58>
 800c620:	2301      	movs	r3, #1
 800c622:	4622      	mov	r2, r4
 800c624:	4649      	mov	r1, r9
 800c626:	4638      	mov	r0, r7
 800c628:	47c0      	blx	r8
 800c62a:	3001      	adds	r0, #1
 800c62c:	d0e6      	beq.n	800c5fc <_printf_common+0xa4>
 800c62e:	3601      	adds	r6, #1
 800c630:	e7d9      	b.n	800c5e6 <_printf_common+0x8e>
	...

0800c634 <_printf_i>:
 800c634:	e92d 47ff 	stmdb	sp!, {r0, r1, r2, r3, r4, r5, r6, r7, r8, r9, sl, lr}
 800c638:	460c      	mov	r4, r1
 800c63a:	4691      	mov	r9, r2
 800c63c:	7e27      	ldrb	r7, [r4, #24]
 800c63e:	990c      	ldr	r1, [sp, #48]	; 0x30
 800c640:	2f78      	cmp	r7, #120	; 0x78
 800c642:	4680      	mov	r8, r0
 800c644:	469a      	mov	sl, r3
 800c646:	f104 0243 	add.w	r2, r4, #67	; 0x43
 800c64a:	d807      	bhi.n	800c65c <_printf_i+0x28>
 800c64c:	2f62      	cmp	r7, #98	; 0x62
 800c64e:	d80a      	bhi.n	800c666 <_printf_i+0x32>
 800c650:	2f00      	cmp	r7, #0
 800c652:	f000 80d8 	beq.w	800c806 <_printf_i+0x1d2>
 800c656:	2f58      	cmp	r7, #88	; 0x58
 800c658:	f000 80a3 	beq.w	800c7a2 <_printf_i+0x16e>
 800c65c:	f104 0642 	add.w	r6, r4, #66	; 0x42
 800c660:	f884 7042 	strb.w	r7, [r4, #66]	; 0x42
 800c664:	e03a      	b.n	800c6dc <_printf_i+0xa8>
 800c666:	f1a7 0363 	sub.w	r3, r7, #99	; 0x63
 800c66a:	2b15      	cmp	r3, #21
 800c66c:	d8f6      	bhi.n	800c65c <_printf_i+0x28>
 800c66e:	a001      	add	r0, pc, #4	; (adr r0, 800c674 <_printf_i+0x40>)
 800c670:	f850 f023 	ldr.w	pc, [r0, r3, lsl #2]
 800c674:	0800c6cd 	.word	0x0800c6cd
 800c678:	0800c6e1 	.word	0x0800c6e1
 800c67c:	0800c65d 	.word	0x0800c65d
 800c680:	0800c65d 	.word	0x0800c65d
 800c684:	0800c65d 	.word	0x0800c65d
 800c688:	0800c65d 	.word	0x0800c65d
 800c68c:	0800c6e1 	.word	0x0800c6e1
 800c690:	0800c65d 	.word	0x0800c65d
 800c694:	0800c65d 	.word	0x0800c65d
 800c698:	0800c65d 	.word	0x0800c65d
 800c69c:	0800c65d 	.word	0x0800c65d
 800c6a0:	0800c7ed 	.word	0x0800c7ed
 800c6a4:	0800c711 	.word	0x0800c711
 800c6a8:	0800c7cf 	.word	0x0800c7cf
 800c6ac:	0800c65d 	.word	0x0800c65d
 800c6b0:	0800c65d 	.word	0x0800c65d
 800c6b4:	0800c80f 	.word	0x0800c80f
 800c6b8:	0800c65d 	.word	0x0800c65d
 800c6bc:	0800c711 	.word	0x0800c711
 800c6c0:	0800c65d 	.word	0x0800c65d
 800c6c4:	0800c65d 	.word	0x0800c65d
 800c6c8:	0800c7d7 	.word	0x0800c7d7
 800c6cc:	680b      	ldr	r3, [r1, #0]
 800c6ce:	1d1a      	adds	r2, r3, #4
 800c6d0:	681b      	ldr	r3, [r3, #0]
 800c6d2:	600a      	str	r2, [r1, #0]
 800c6d4:	f104 0642 	add.w	r6, r4, #66	; 0x42
 800c6d8:	f884 3042 	strb.w	r3, [r4, #66]	; 0x42
 800c6dc:	2301      	movs	r3, #1
 800c6de:	e0a3      	b.n	800c828 <_printf_i+0x1f4>
 800c6e0:	6825      	ldr	r5, [r4, #0]
 800c6e2:	6808      	ldr	r0, [r1, #0]
 800c6e4:	062e      	lsls	r6, r5, #24
 800c6e6:	f100 0304 	add.w	r3, r0, #4
 800c6ea:	d50a      	bpl.n	800c702 <_printf_i+0xce>
 800c6ec:	6805      	ldr	r5, [r0, #0]
 800c6ee:	600b      	str	r3, [r1, #0]
 800c6f0:	2d00      	cmp	r5, #0
 800c6f2:	da03      	bge.n	800c6fc <_printf_i+0xc8>
 800c6f4:	232d      	movs	r3, #45	; 0x2d
 800c6f6:	426d      	negs	r5, r5
 800c6f8:	f884 3043 	strb.w	r3, [r4, #67]	; 0x43
 800c6fc:	485e      	ldr	r0, [pc, #376]	; (800c878 <_printf_i+0x244>)
 800c6fe:	230a      	movs	r3, #10
 800c700:	e019      	b.n	800c736 <_printf_i+0x102>
 800c702:	f015 0f40 	tst.w	r5, #64	; 0x40
 800c706:	6805      	ldr	r5, [r0, #0]
 800c708:	600b      	str	r3, [r1, #0]
 800c70a:	bf18      	it	ne
 800c70c:	b22d      	sxthne	r5, r5
 800c70e:	e7ef      	b.n	800c6f0 <_printf_i+0xbc>
 800c710:	680b      	ldr	r3, [r1, #0]
 800c712:	6825      	ldr	r5, [r4, #0]
 800c714:	1d18      	adds	r0, r3, #4
 800c716:	6008      	str	r0, [r1, #0]
 800c718:	0628      	lsls	r0, r5, #24
 800c71a:	d501      	bpl.n	800c720 <_printf_i+0xec>
 800c71c:	681d      	ldr	r5, [r3, #0]
 800c71e:	e002      	b.n	800c726 <_printf_i+0xf2>
 800c720:	0669      	lsls	r1, r5, #25
 800c722:	d5fb      	bpl.n	800c71c <_printf_i+0xe8>
 800c724:	881d      	ldrh	r5, [r3, #0]
 800c726:	4854      	ldr	r0, [pc, #336]	; (800c878 <_printf_i+0x244>)
 800c728:	2f6f      	cmp	r7, #111	; 0x6f
 800c72a:	bf0c      	ite	eq
 800c72c:	2308      	moveq	r3, #8
 800c72e:	230a      	movne	r3, #10
 800c730:	2100      	movs	r1, #0
 800c732:	f884 1043 	strb.w	r1, [r4, #67]	; 0x43
 800c736:	6866      	ldr	r6, [r4, #4]
 800c738:	60a6      	str	r6, [r4, #8]
 800c73a:	2e00      	cmp	r6, #0
 800c73c:	bfa2      	ittt	ge
 800c73e:	6821      	ldrge	r1, [r4, #0]
 800c740:	f021 0104 	bicge.w	r1, r1, #4
 800c744:	6021      	strge	r1, [r4, #0]
 800c746:	b90d      	cbnz	r5, 800c74c <_printf_i+0x118>
 800c748:	2e00      	cmp	r6, #0
 800c74a:	d04d      	beq.n	800c7e8 <_printf_i+0x1b4>
 800c74c:	4616      	mov	r6, r2
 800c74e:	fbb5 f1f3 	udiv	r1, r5, r3
 800c752:	fb03 5711 	mls	r7, r3, r1, r5
 800c756:	5dc7      	ldrb	r7, [r0, r7]
 800c758:	f806 7d01 	strb.w	r7, [r6, #-1]!
 800c75c:	462f      	mov	r7, r5
 800c75e:	42bb      	cmp	r3, r7
 800c760:	460d      	mov	r5, r1
 800c762:	d9f4      	bls.n	800c74e <_printf_i+0x11a>
 800c764:	2b08      	cmp	r3, #8
 800c766:	d10b      	bne.n	800c780 <_printf_i+0x14c>
 800c768:	6823      	ldr	r3, [r4, #0]
 800c76a:	07df      	lsls	r7, r3, #31
 800c76c:	d508      	bpl.n	800c780 <_printf_i+0x14c>
 800c76e:	6923      	ldr	r3, [r4, #16]
 800c770:	6861      	ldr	r1, [r4, #4]
 800c772:	4299      	cmp	r1, r3
 800c774:	bfde      	ittt	le
 800c776:	2330      	movle	r3, #48	; 0x30
 800c778:	f806 3c01 	strble.w	r3, [r6, #-1]
 800c77c:	f106 36ff 	addle.w	r6, r6, #4294967295
 800c780:	1b92      	subs	r2, r2, r6
 800c782:	6122      	str	r2, [r4, #16]
 800c784:	f8cd a000 	str.w	sl, [sp]
 800c788:	464b      	mov	r3, r9
 800c78a:	aa03      	add	r2, sp, #12
 800c78c:	4621      	mov	r1, r4
 800c78e:	4640      	mov	r0, r8
 800c790:	f7ff fee2 	bl	800c558 <_printf_common>
 800c794:	3001      	adds	r0, #1
 800c796:	d14c      	bne.n	800c832 <_printf_i+0x1fe>
 800c798:	f04f 30ff 	mov.w	r0, #4294967295
 800c79c:	b004      	add	sp, #16
 800c79e:	e8bd 87f0 	ldmia.w	sp!, {r4, r5, r6, r7, r8, r9, sl, pc}
 800c7a2:	4835      	ldr	r0, [pc, #212]	; (800c878 <_printf_i+0x244>)
 800c7a4:	f884 7045 	strb.w	r7, [r4, #69]	; 0x45
 800c7a8:	6823      	ldr	r3, [r4, #0]
 800c7aa:	680e      	ldr	r6, [r1, #0]
 800c7ac:	061f      	lsls	r7, r3, #24
 800c7ae:	f856 5b04 	ldr.w	r5, [r6], #4
 800c7b2:	600e      	str	r6, [r1, #0]
 800c7b4:	d514      	bpl.n	800c7e0 <_printf_i+0x1ac>
 800c7b6:	07d9      	lsls	r1, r3, #31
 800c7b8:	bf44      	itt	mi
 800c7ba:	f043 0320 	orrmi.w	r3, r3, #32
 800c7be:	6023      	strmi	r3, [r4, #0]
 800c7c0:	b91d      	cbnz	r5, 800c7ca <_printf_i+0x196>
 800c7c2:	6823      	ldr	r3, [r4, #0]
 800c7c4:	f023 0320 	bic.w	r3, r3, #32
 800c7c8:	6023      	str	r3, [r4, #0]
 800c7ca:	2310      	movs	r3, #16
 800c7cc:	e7b0      	b.n	800c730 <_printf_i+0xfc>
 800c7ce:	6823      	ldr	r3, [r4, #0]
 800c7d0:	f043 0320 	orr.w	r3, r3, #32
 800c7d4:	6023      	str	r3, [r4, #0]
 800c7d6:	2378      	movs	r3, #120	; 0x78
 800c7d8:	4828      	ldr	r0, [pc, #160]	; (800c87c <_printf_i+0x248>)
 800c7da:	f884 3045 	strb.w	r3, [r4, #69]	; 0x45
 800c7de:	e7e3      	b.n	800c7a8 <_printf_i+0x174>
 800c7e0:	065e      	lsls	r6, r3, #25
 800c7e2:	bf48      	it	mi
 800c7e4:	b2ad      	uxthmi	r5, r5
 800c7e6:	e7e6      	b.n	800c7b6 <_printf_i+0x182>
 800c7e8:	4616      	mov	r6, r2
 800c7ea:	e7bb      	b.n	800c764 <_printf_i+0x130>
 800c7ec:	680b      	ldr	r3, [r1, #0]
 800c7ee:	6826      	ldr	r6, [r4, #0]
 800c7f0:	6960      	ldr	r0, [r4, #20]
 800c7f2:	1d1d      	adds	r5, r3, #4
 800c7f4:	600d      	str	r5, [r1, #0]
 800c7f6:	0635      	lsls	r5, r6, #24
 800c7f8:	681b      	ldr	r3, [r3, #0]
 800c7fa:	d501      	bpl.n	800c800 <_printf_i+0x1cc>
 800c7fc:	6018      	str	r0, [r3, #0]
 800c7fe:	e002      	b.n	800c806 <_printf_i+0x1d2>
 800c800:	0671      	lsls	r1, r6, #25
 800c802:	d5fb      	bpl.n	800c7fc <_printf_i+0x1c8>
 800c804:	8018      	strh	r0, [r3, #0]
 800c806:	2300      	movs	r3, #0
 800c808:	6123      	str	r3, [r4, #16]
 800c80a:	4616      	mov	r6, r2
 800c80c:	e7ba      	b.n	800c784 <_printf_i+0x150>
 800c80e:	680b      	ldr	r3, [r1, #0]
 800c810:	1d1a      	adds	r2, r3, #4
 800c812:	600a      	str	r2, [r1, #0]
 800c814:	681e      	ldr	r6, [r3, #0]
 800c816:	6862      	ldr	r2, [r4, #4]
 800c818:	2100      	movs	r1, #0
 800c81a:	4630      	mov	r0, r6
 800c81c:	f7f7 fd08 	bl	8004230 <memchr>
 800c820:	b108      	cbz	r0, 800c826 <_printf_i+0x1f2>
 800c822:	1b80      	subs	r0, r0, r6
 800c824:	6060      	str	r0, [r4, #4]
 800c826:	6863      	ldr	r3, [r4, #4]
 800c828:	6123      	str	r3, [r4, #16]
 800c82a:	2300      	movs	r3, #0
 800c82c:	f884 3043 	strb.w	r3, [r4, #67]	; 0x43
 800c830:	e7a8      	b.n	800c784 <_printf_i+0x150>
 800c832:	6923      	ldr	r3, [r4, #16]
 800c834:	4632      	mov	r2, r6
 800c836:	4649      	mov	r1, r9
 800c838:	4640      	mov	r0, r8
 800c83a:	47d0      	blx	sl
 800c83c:	3001      	adds	r0, #1
 800c83e:	d0ab      	beq.n	800c798 <_printf_i+0x164>
 800c840:	6823      	ldr	r3, [r4, #0]
 800c842:	079b      	lsls	r3, r3, #30
 800c844:	d413      	bmi.n	800c86e <_printf_i+0x23a>
 800c846:	68e0      	ldr	r0, [r4, #12]
 800c848:	9b03      	ldr	r3, [sp, #12]
 800c84a:	4298      	cmp	r0, r3
 800c84c:	bfb8      	it	lt
 800c84e:	4618      	movlt	r0, r3
 800c850:	e7a4      	b.n	800c79c <_printf_i+0x168>
 800c852:	2301      	movs	r3, #1
 800c854:	4632      	mov	r2, r6
 800c856:	4649      	mov	r1, r9
 800c858:	4640      	mov	r0, r8
 800c85a:	47d0      	blx	sl
 800c85c:	3001      	adds	r0, #1
 800c85e:	d09b      	beq.n	800c798 <_printf_i+0x164>
 800c860:	3501      	adds	r5, #1
 800c862:	68e3      	ldr	r3, [r4, #12]
 800c864:	9903      	ldr	r1, [sp, #12]
 800c866:	1a5b      	subs	r3, r3, r1
 800c868:	42ab      	cmp	r3, r5
 800c86a:	dcf2      	bgt.n	800c852 <_printf_i+0x21e>
 800c86c:	e7eb      	b.n	800c846 <_printf_i+0x212>
 800c86e:	2500      	movs	r5, #0
 800c870:	f104 0619 	add.w	r6, r4, #25
 800c874:	e7f5      	b.n	800c862 <_printf_i+0x22e>
 800c876:	bf00      	nop
 800c878:	0800d267 	.word	0x0800d267
 800c87c:	0800d278 	.word	0x0800d278

0800c880 <_scanf_chars>:
 800c880:	e92d 43f8 	stmdb	sp!, {r3, r4, r5, r6, r7, r8, r9, lr}
 800c884:	4615      	mov	r5, r2
 800c886:	688a      	ldr	r2, [r1, #8]
 800c888:	4680      	mov	r8, r0
 800c88a:	460c      	mov	r4, r1
 800c88c:	b932      	cbnz	r2, 800c89c <_scanf_chars+0x1c>
 800c88e:	698a      	ldr	r2, [r1, #24]
 800c890:	2a00      	cmp	r2, #0
 800c892:	bf0c      	ite	eq
 800c894:	2201      	moveq	r2, #1
 800c896:	f04f 32ff 	movne.w	r2, #4294967295
 800c89a:	608a      	str	r2, [r1, #8]
 800c89c:	6822      	ldr	r2, [r4, #0]
 800c89e:	f8df 908c 	ldr.w	r9, [pc, #140]	; 800c92c <_scanf_chars+0xac>
 800c8a2:	06d1      	lsls	r1, r2, #27
 800c8a4:	bf5f      	itttt	pl
 800c8a6:	681a      	ldrpl	r2, [r3, #0]
 800c8a8:	1d11      	addpl	r1, r2, #4
 800c8aa:	6019      	strpl	r1, [r3, #0]
 800c8ac:	6816      	ldrpl	r6, [r2, #0]
 800c8ae:	2700      	movs	r7, #0
 800c8b0:	69a0      	ldr	r0, [r4, #24]
 800c8b2:	b188      	cbz	r0, 800c8d8 <_scanf_chars+0x58>
 800c8b4:	2801      	cmp	r0, #1
 800c8b6:	d107      	bne.n	800c8c8 <_scanf_chars+0x48>
 800c8b8:	682b      	ldr	r3, [r5, #0]
 800c8ba:	781a      	ldrb	r2, [r3, #0]
 800c8bc:	6963      	ldr	r3, [r4, #20]
 800c8be:	5c9b      	ldrb	r3, [r3, r2]
 800c8c0:	b953      	cbnz	r3, 800c8d8 <_scanf_chars+0x58>
 800c8c2:	bb27      	cbnz	r7, 800c90e <_scanf_chars+0x8e>
 800c8c4:	e8bd 83f8 	ldmia.w	sp!, {r3, r4, r5, r6, r7, r8, r9, pc}
 800c8c8:	2802      	cmp	r0, #2
 800c8ca:	d120      	bne.n	800c90e <_scanf_chars+0x8e>
 800c8cc:	682b      	ldr	r3, [r5, #0]
 800c8ce:	781b      	ldrb	r3, [r3, #0]
 800c8d0:	f813 3009 	ldrb.w	r3, [r3, r9]
 800c8d4:	071b      	lsls	r3, r3, #28
 800c8d6:	d41a      	bmi.n	800c90e <_scanf_chars+0x8e>
 800c8d8:	6823      	ldr	r3, [r4, #0]
 800c8da:	06da      	lsls	r2, r3, #27
 800c8dc:	bf5e      	ittt	pl
 800c8de:	682b      	ldrpl	r3, [r5, #0]
 800c8e0:	781b      	ldrbpl	r3, [r3, #0]
 800c8e2:	f806 3b01 	strbpl.w	r3, [r6], #1
 800c8e6:	682a      	ldr	r2, [r5, #0]
 800c8e8:	686b      	ldr	r3, [r5, #4]
 800c8ea:	3201      	adds	r2, #1
 800c8ec:	602a      	str	r2, [r5, #0]
 800c8ee:	68a2      	ldr	r2, [r4, #8]
 800c8f0:	3b01      	subs	r3, #1
 800c8f2:	3a01      	subs	r2, #1
 800c8f4:	606b      	str	r3, [r5, #4]
 800c8f6:	3701      	adds	r7, #1
 800c8f8:	60a2      	str	r2, [r4, #8]
 800c8fa:	b142      	cbz	r2, 800c90e <_scanf_chars+0x8e>
 800c8fc:	2b00      	cmp	r3, #0
 800c8fe:	dcd7      	bgt.n	800c8b0 <_scanf_chars+0x30>
 800c900:	f8d4 3180 	ldr.w	r3, [r4, #384]	; 0x180
 800c904:	4629      	mov	r1, r5
 800c906:	4640      	mov	r0, r8
 800c908:	4798      	blx	r3
 800c90a:	2800      	cmp	r0, #0
 800c90c:	d0d0      	beq.n	800c8b0 <_scanf_chars+0x30>
 800c90e:	6823      	ldr	r3, [r4, #0]
 800c910:	f013 0310 	ands.w	r3, r3, #16
 800c914:	d105      	bne.n	800c922 <_scanf_chars+0xa2>
 800c916:	68e2      	ldr	r2, [r4, #12]
 800c918:	3201      	adds	r2, #1
 800c91a:	60e2      	str	r2, [r4, #12]
 800c91c:	69a2      	ldr	r2, [r4, #24]
 800c91e:	b102      	cbz	r2, 800c922 <_scanf_chars+0xa2>
 800c920:	7033      	strb	r3, [r6, #0]
 800c922:	6923      	ldr	r3, [r4, #16]
 800c924:	441f      	add	r7, r3
 800c926:	6127      	str	r7, [r4, #16]
 800c928:	2000      	movs	r0, #0
 800c92a:	e7cb      	b.n	800c8c4 <_scanf_chars+0x44>
 800c92c:	0800d156 	.word	0x0800d156

0800c930 <_scanf_i>:
 800c930:	e92d 4ff0 	stmdb	sp!, {r4, r5, r6, r7, r8, r9, sl, fp, lr}
 800c934:	4698      	mov	r8, r3
 800c936:	4b74      	ldr	r3, [pc, #464]	; (800cb08 <_scanf_i+0x1d8>)
 800c938:	460c      	mov	r4, r1
 800c93a:	4682      	mov	sl, r0
 800c93c:	4616      	mov	r6, r2
 800c93e:	e893 0007 	ldmia.w	r3, {r0, r1, r2}
 800c942:	b087      	sub	sp, #28
 800c944:	ab03      	add	r3, sp, #12
 800c946:	e883 0007 	stmia.w	r3, {r0, r1, r2}
 800c94a:	4b70      	ldr	r3, [pc, #448]	; (800cb0c <_scanf_i+0x1dc>)
 800c94c:	69a1      	ldr	r1, [r4, #24]
 800c94e:	4a70      	ldr	r2, [pc, #448]	; (800cb10 <_scanf_i+0x1e0>)
 800c950:	2903      	cmp	r1, #3
 800c952:	bf18      	it	ne
 800c954:	461a      	movne	r2, r3
 800c956:	68a3      	ldr	r3, [r4, #8]
 800c958:	9201      	str	r2, [sp, #4]
 800c95a:	1e5a      	subs	r2, r3, #1
 800c95c:	f5b2 7fae 	cmp.w	r2, #348	; 0x15c
 800c960:	bf88      	it	hi
 800c962:	f46f 75ae 	mvnhi.w	r5, #348	; 0x15c
 800c966:	4627      	mov	r7, r4
 800c968:	bf82      	ittt	hi
 800c96a:	eb03 0905 	addhi.w	r9, r3, r5
 800c96e:	f240 135d 	movwhi	r3, #349	; 0x15d
 800c972:	60a3      	strhi	r3, [r4, #8]
 800c974:	f857 3b1c 	ldr.w	r3, [r7], #28
 800c978:	f443 6350 	orr.w	r3, r3, #3328	; 0xd00
 800c97c:	bf98      	it	ls
 800c97e:	f04f 0900 	movls.w	r9, #0
 800c982:	6023      	str	r3, [r4, #0]
 800c984:	463d      	mov	r5, r7
 800c986:	f04f 0b00 	mov.w	fp, #0
 800c98a:	6831      	ldr	r1, [r6, #0]
 800c98c:	ab03      	add	r3, sp, #12
 800c98e:	7809      	ldrb	r1, [r1, #0]
 800c990:	f853 002b 	ldr.w	r0, [r3, fp, lsl #2]
 800c994:	2202      	movs	r2, #2
 800c996:	f7f7 fc4b 	bl	8004230 <memchr>
 800c99a:	b328      	cbz	r0, 800c9e8 <_scanf_i+0xb8>
 800c99c:	f1bb 0f01 	cmp.w	fp, #1
 800c9a0:	d159      	bne.n	800ca56 <_scanf_i+0x126>
 800c9a2:	6862      	ldr	r2, [r4, #4]
 800c9a4:	b92a      	cbnz	r2, 800c9b2 <_scanf_i+0x82>
 800c9a6:	6822      	ldr	r2, [r4, #0]
 800c9a8:	2308      	movs	r3, #8
 800c9aa:	f442 7200 	orr.w	r2, r2, #512	; 0x200
 800c9ae:	6063      	str	r3, [r4, #4]
 800c9b0:	6022      	str	r2, [r4, #0]
 800c9b2:	6822      	ldr	r2, [r4, #0]
 800c9b4:	f422 62a0 	bic.w	r2, r2, #1280	; 0x500
 800c9b8:	6022      	str	r2, [r4, #0]
 800c9ba:	68a2      	ldr	r2, [r4, #8]
 800c9bc:	1e51      	subs	r1, r2, #1
 800c9be:	60a1      	str	r1, [r4, #8]
 800c9c0:	b192      	cbz	r2, 800c9e8 <_scanf_i+0xb8>
 800c9c2:	6832      	ldr	r2, [r6, #0]
 800c9c4:	1c51      	adds	r1, r2, #1
 800c9c6:	6031      	str	r1, [r6, #0]
 800c9c8:	7812      	ldrb	r2, [r2, #0]
 800c9ca:	f805 2b01 	strb.w	r2, [r5], #1
 800c9ce:	6872      	ldr	r2, [r6, #4]
 800c9d0:	3a01      	subs	r2, #1
 800c9d2:	2a00      	cmp	r2, #0
 800c9d4:	6072      	str	r2, [r6, #4]
 800c9d6:	dc07      	bgt.n	800c9e8 <_scanf_i+0xb8>
 800c9d8:	f8d4 2180 	ldr.w	r2, [r4, #384]	; 0x180
 800c9dc:	4631      	mov	r1, r6
 800c9de:	4650      	mov	r0, sl
 800c9e0:	4790      	blx	r2
 800c9e2:	2800      	cmp	r0, #0
 800c9e4:	f040 8085 	bne.w	800caf2 <_scanf_i+0x1c2>
 800c9e8:	f10b 0b01 	add.w	fp, fp, #1
 800c9ec:	f1bb 0f03 	cmp.w	fp, #3
 800c9f0:	d1cb      	bne.n	800c98a <_scanf_i+0x5a>
 800c9f2:	6863      	ldr	r3, [r4, #4]
 800c9f4:	b90b      	cbnz	r3, 800c9fa <_scanf_i+0xca>
 800c9f6:	230a      	movs	r3, #10
 800c9f8:	6063      	str	r3, [r4, #4]
 800c9fa:	6863      	ldr	r3, [r4, #4]
 800c9fc:	4945      	ldr	r1, [pc, #276]	; (800cb14 <_scanf_i+0x1e4>)
 800c9fe:	6960      	ldr	r0, [r4, #20]
 800ca00:	1ac9      	subs	r1, r1, r3
 800ca02:	f000 f889 	bl	800cb18 <__sccl>
 800ca06:	f04f 0b00 	mov.w	fp, #0
 800ca0a:	68a3      	ldr	r3, [r4, #8]
 800ca0c:	6822      	ldr	r2, [r4, #0]
 800ca0e:	2b00      	cmp	r3, #0
 800ca10:	d03d      	beq.n	800ca8e <_scanf_i+0x15e>
 800ca12:	6831      	ldr	r1, [r6, #0]
 800ca14:	6960      	ldr	r0, [r4, #20]
 800ca16:	f891 c000 	ldrb.w	ip, [r1]
 800ca1a:	f810 000c 	ldrb.w	r0, [r0, ip]
 800ca1e:	2800      	cmp	r0, #0
 800ca20:	d035      	beq.n	800ca8e <_scanf_i+0x15e>
 800ca22:	f1bc 0f30 	cmp.w	ip, #48	; 0x30
 800ca26:	d124      	bne.n	800ca72 <_scanf_i+0x142>
 800ca28:	0510      	lsls	r0, r2, #20
 800ca2a:	d522      	bpl.n	800ca72 <_scanf_i+0x142>
 800ca2c:	f10b 0b01 	add.w	fp, fp, #1
 800ca30:	f1b9 0f00 	cmp.w	r9, #0
 800ca34:	d003      	beq.n	800ca3e <_scanf_i+0x10e>
 800ca36:	3301      	adds	r3, #1
 800ca38:	f109 39ff 	add.w	r9, r9, #4294967295
 800ca3c:	60a3      	str	r3, [r4, #8]
 800ca3e:	6873      	ldr	r3, [r6, #4]
 800ca40:	3b01      	subs	r3, #1
 800ca42:	2b00      	cmp	r3, #0
 800ca44:	6073      	str	r3, [r6, #4]
 800ca46:	dd1b      	ble.n	800ca80 <_scanf_i+0x150>
 800ca48:	6833      	ldr	r3, [r6, #0]
 800ca4a:	3301      	adds	r3, #1
 800ca4c:	6033      	str	r3, [r6, #0]
 800ca4e:	68a3      	ldr	r3, [r4, #8]
 800ca50:	3b01      	subs	r3, #1
 800ca52:	60a3      	str	r3, [r4, #8]
 800ca54:	e7d9      	b.n	800ca0a <_scanf_i+0xda>
 800ca56:	f1bb 0f02 	cmp.w	fp, #2
 800ca5a:	d1ae      	bne.n	800c9ba <_scanf_i+0x8a>
 800ca5c:	6822      	ldr	r2, [r4, #0]
 800ca5e:	f402 61c0 	and.w	r1, r2, #1536	; 0x600
 800ca62:	f5b1 7f00 	cmp.w	r1, #512	; 0x200
 800ca66:	d1bf      	bne.n	800c9e8 <_scanf_i+0xb8>
 800ca68:	2310      	movs	r3, #16
 800ca6a:	6063      	str	r3, [r4, #4]
 800ca6c:	f442 7280 	orr.w	r2, r2, #256	; 0x100
 800ca70:	e7a2      	b.n	800c9b8 <_scanf_i+0x88>
 800ca72:	f422 6210 	bic.w	r2, r2, #2304	; 0x900
 800ca76:	6022      	str	r2, [r4, #0]
 800ca78:	780b      	ldrb	r3, [r1, #0]
 800ca7a:	f805 3b01 	strb.w	r3, [r5], #1
 800ca7e:	e7de      	b.n	800ca3e <_scanf_i+0x10e>
 800ca80:	f8d4 3180 	ldr.w	r3, [r4, #384]	; 0x180
 800ca84:	4631      	mov	r1, r6
 800ca86:	4650      	mov	r0, sl
 800ca88:	4798      	blx	r3
 800ca8a:	2800      	cmp	r0, #0
 800ca8c:	d0df      	beq.n	800ca4e <_scanf_i+0x11e>
 800ca8e:	6823      	ldr	r3, [r4, #0]
 800ca90:	05d9      	lsls	r1, r3, #23
 800ca92:	d50d      	bpl.n	800cab0 <_scanf_i+0x180>
 800ca94:	42bd      	cmp	r5, r7
 800ca96:	d909      	bls.n	800caac <_scanf_i+0x17c>
 800ca98:	f815 1c01 	ldrb.w	r1, [r5, #-1]
 800ca9c:	f8d4 317c 	ldr.w	r3, [r4, #380]	; 0x17c
 800caa0:	4632      	mov	r2, r6
 800caa2:	4650      	mov	r0, sl
 800caa4:	4798      	blx	r3
 800caa6:	f105 39ff 	add.w	r9, r5, #4294967295
 800caaa:	464d      	mov	r5, r9
 800caac:	42bd      	cmp	r5, r7
 800caae:	d028      	beq.n	800cb02 <_scanf_i+0x1d2>
 800cab0:	6822      	ldr	r2, [r4, #0]
 800cab2:	f012 0210 	ands.w	r2, r2, #16
 800cab6:	d113      	bne.n	800cae0 <_scanf_i+0x1b0>
 800cab8:	702a      	strb	r2, [r5, #0]
 800caba:	6863      	ldr	r3, [r4, #4]
 800cabc:	9e01      	ldr	r6, [sp, #4]
 800cabe:	4639      	mov	r1, r7
 800cac0:	4650      	mov	r0, sl
 800cac2:	47b0      	blx	r6
 800cac4:	f8d8 3000 	ldr.w	r3, [r8]
 800cac8:	6821      	ldr	r1, [r4, #0]
 800caca:	1d1a      	adds	r2, r3, #4
 800cacc:	f8c8 2000 	str.w	r2, [r8]
 800cad0:	f011 0f20 	tst.w	r1, #32
 800cad4:	681b      	ldr	r3, [r3, #0]
 800cad6:	d00f      	beq.n	800caf8 <_scanf_i+0x1c8>
 800cad8:	6018      	str	r0, [r3, #0]
 800cada:	68e3      	ldr	r3, [r4, #12]
 800cadc:	3301      	adds	r3, #1
 800cade:	60e3      	str	r3, [r4, #12]
 800cae0:	1bed      	subs	r5, r5, r7
 800cae2:	44ab      	add	fp, r5
 800cae4:	6925      	ldr	r5, [r4, #16]
 800cae6:	445d      	add	r5, fp
 800cae8:	6125      	str	r5, [r4, #16]
 800caea:	2000      	movs	r0, #0
 800caec:	b007      	add	sp, #28
 800caee:	e8bd 8ff0 	ldmia.w	sp!, {r4, r5, r6, r7, r8, r9, sl, fp, pc}
 800caf2:	f04f 0b00 	mov.w	fp, #0
 800caf6:	e7ca      	b.n	800ca8e <_scanf_i+0x15e>
 800caf8:	07ca      	lsls	r2, r1, #31
 800cafa:	bf4c      	ite	mi
 800cafc:	8018      	strhmi	r0, [r3, #0]
 800cafe:	6018      	strpl	r0, [r3, #0]
 800cb00:	e7eb      	b.n	800cada <_scanf_i+0x1aa>
 800cb02:	2001      	movs	r0, #1
 800cb04:	e7f2      	b.n	800caec <_scanf_i+0x1bc>
 800cb06:	bf00      	nop
 800cb08:	0800ced8 	.word	0x0800ced8
 800cb0c:	0800cd91 	.word	0x0800cd91
 800cb10:	0800cc95 	.word	0x0800cc95
 800cb14:	0800d2a2 	.word	0x0800d2a2

0800cb18 <__sccl>:
 800cb18:	b570      	push	{r4, r5, r6, lr}
 800cb1a:	780b      	ldrb	r3, [r1, #0]
 800cb1c:	4604      	mov	r4, r0
 800cb1e:	2b5e      	cmp	r3, #94	; 0x5e
 800cb20:	bf0b      	itete	eq
 800cb22:	784b      	ldrbeq	r3, [r1, #1]
 800cb24:	1c48      	addne	r0, r1, #1
 800cb26:	1c88      	addeq	r0, r1, #2
 800cb28:	2200      	movne	r2, #0
 800cb2a:	bf08      	it	eq
 800cb2c:	2201      	moveq	r2, #1
 800cb2e:	1e61      	subs	r1, r4, #1
 800cb30:	f104 05ff 	add.w	r5, r4, #255	; 0xff
 800cb34:	f801 2f01 	strb.w	r2, [r1, #1]!
 800cb38:	42a9      	cmp	r1, r5
 800cb3a:	d1fb      	bne.n	800cb34 <__sccl+0x1c>
 800cb3c:	b90b      	cbnz	r3, 800cb42 <__sccl+0x2a>
 800cb3e:	3801      	subs	r0, #1
 800cb40:	bd70      	pop	{r4, r5, r6, pc}
 800cb42:	f082 0101 	eor.w	r1, r2, #1
 800cb46:	54e1      	strb	r1, [r4, r3]
 800cb48:	1c42      	adds	r2, r0, #1
 800cb4a:	f812 5c01 	ldrb.w	r5, [r2, #-1]
 800cb4e:	2d2d      	cmp	r5, #45	; 0x2d
 800cb50:	f102 36ff 	add.w	r6, r2, #4294967295
 800cb54:	4610      	mov	r0, r2
 800cb56:	d006      	beq.n	800cb66 <__sccl+0x4e>
 800cb58:	2d5d      	cmp	r5, #93	; 0x5d
 800cb5a:	d0f1      	beq.n	800cb40 <__sccl+0x28>
 800cb5c:	b90d      	cbnz	r5, 800cb62 <__sccl+0x4a>
 800cb5e:	4630      	mov	r0, r6
 800cb60:	e7ee      	b.n	800cb40 <__sccl+0x28>
 800cb62:	462b      	mov	r3, r5
 800cb64:	e7ef      	b.n	800cb46 <__sccl+0x2e>
 800cb66:	7816      	ldrb	r6, [r2, #0]
 800cb68:	2e5d      	cmp	r6, #93	; 0x5d
 800cb6a:	d0fa      	beq.n	800cb62 <__sccl+0x4a>
 800cb6c:	42b3      	cmp	r3, r6
 800cb6e:	dcf8      	bgt.n	800cb62 <__sccl+0x4a>
 800cb70:	4618      	mov	r0, r3
 800cb72:	3001      	adds	r0, #1
 800cb74:	4286      	cmp	r6, r0
 800cb76:	5421      	strb	r1, [r4, r0]
 800cb78:	dcfb      	bgt.n	800cb72 <__sccl+0x5a>
 800cb7a:	43d8      	mvns	r0, r3
 800cb7c:	4430      	add	r0, r6
 800cb7e:	1c5d      	adds	r5, r3, #1
 800cb80:	42b3      	cmp	r3, r6
 800cb82:	bfa8      	it	ge
 800cb84:	2000      	movge	r0, #0
 800cb86:	182b      	adds	r3, r5, r0
 800cb88:	3202      	adds	r2, #2
 800cb8a:	e7de      	b.n	800cb4a <__sccl+0x32>

0800cb8c <_strtol_l.isra.0>:
 800cb8c:	2b01      	cmp	r3, #1
 800cb8e:	e92d 47f0 	stmdb	sp!, {r4, r5, r6, r7, r8, r9, sl, lr}
 800cb92:	d001      	beq.n	800cb98 <_strtol_l.isra.0+0xc>
 800cb94:	2b24      	cmp	r3, #36	; 0x24
 800cb96:	d906      	bls.n	800cba6 <_strtol_l.isra.0+0x1a>
 800cb98:	f7ff f81c 	bl	800bbd4 <__errno>
 800cb9c:	2316      	movs	r3, #22
 800cb9e:	6003      	str	r3, [r0, #0]
 800cba0:	2000      	movs	r0, #0
 800cba2:	e8bd 87f0 	ldmia.w	sp!, {r4, r5, r6, r7, r8, r9, sl, pc}
 800cba6:	4f3a      	ldr	r7, [pc, #232]	; (800cc90 <_strtol_l.isra.0+0x104>)
 800cba8:	468e      	mov	lr, r1
 800cbaa:	4676      	mov	r6, lr
 800cbac:	f81e 4b01 	ldrb.w	r4, [lr], #1
 800cbb0:	5de5      	ldrb	r5, [r4, r7]
 800cbb2:	f015 0508 	ands.w	r5, r5, #8
 800cbb6:	d1f8      	bne.n	800cbaa <_strtol_l.isra.0+0x1e>
 800cbb8:	2c2d      	cmp	r4, #45	; 0x2d
 800cbba:	d134      	bne.n	800cc26 <_strtol_l.isra.0+0x9a>
 800cbbc:	f89e 4000 	ldrb.w	r4, [lr]
 800cbc0:	f04f 0801 	mov.w	r8, #1
 800cbc4:	f106 0e02 	add.w	lr, r6, #2
 800cbc8:	2b00      	cmp	r3, #0
 800cbca:	d05c      	beq.n	800cc86 <_strtol_l.isra.0+0xfa>
 800cbcc:	2b10      	cmp	r3, #16
 800cbce:	d10c      	bne.n	800cbea <_strtol_l.isra.0+0x5e>
 800cbd0:	2c30      	cmp	r4, #48	; 0x30
 800cbd2:	d10a      	bne.n	800cbea <_strtol_l.isra.0+0x5e>
 800cbd4:	f89e 4000 	ldrb.w	r4, [lr]
 800cbd8:	f004 04df 	and.w	r4, r4, #223	; 0xdf
 800cbdc:	2c58      	cmp	r4, #88	; 0x58
 800cbde:	d14d      	bne.n	800cc7c <_strtol_l.isra.0+0xf0>
 800cbe0:	f89e 4001 	ldrb.w	r4, [lr, #1]
 800cbe4:	2310      	movs	r3, #16
 800cbe6:	f10e 0e02 	add.w	lr, lr, #2
 800cbea:	f108 4c00 	add.w	ip, r8, #2147483648	; 0x80000000
 800cbee:	f10c 3cff 	add.w	ip, ip, #4294967295
 800cbf2:	2600      	movs	r6, #0
 800cbf4:	fbbc f9f3 	udiv	r9, ip, r3
 800cbf8:	4635      	mov	r5, r6
 800cbfa:	fb03 ca19 	mls	sl, r3, r9, ip
 800cbfe:	f1a4 0730 	sub.w	r7, r4, #48	; 0x30
 800cc02:	2f09      	cmp	r7, #9
 800cc04:	d818      	bhi.n	800cc38 <_strtol_l.isra.0+0xac>
 800cc06:	463c      	mov	r4, r7
 800cc08:	42a3      	cmp	r3, r4
 800cc0a:	dd24      	ble.n	800cc56 <_strtol_l.isra.0+0xca>
 800cc0c:	2e00      	cmp	r6, #0
 800cc0e:	db1f      	blt.n	800cc50 <_strtol_l.isra.0+0xc4>
 800cc10:	45a9      	cmp	r9, r5
 800cc12:	d31d      	bcc.n	800cc50 <_strtol_l.isra.0+0xc4>
 800cc14:	d101      	bne.n	800cc1a <_strtol_l.isra.0+0x8e>
 800cc16:	45a2      	cmp	sl, r4
 800cc18:	db1a      	blt.n	800cc50 <_strtol_l.isra.0+0xc4>
 800cc1a:	fb05 4503 	mla	r5, r5, r3, r4
 800cc1e:	2601      	movs	r6, #1
 800cc20:	f81e 4b01 	ldrb.w	r4, [lr], #1
 800cc24:	e7eb      	b.n	800cbfe <_strtol_l.isra.0+0x72>
 800cc26:	2c2b      	cmp	r4, #43	; 0x2b
 800cc28:	bf08      	it	eq
 800cc2a:	f89e 4000 	ldrbeq.w	r4, [lr]
 800cc2e:	46a8      	mov	r8, r5
 800cc30:	bf08      	it	eq
 800cc32:	f106 0e02 	addeq.w	lr, r6, #2
 800cc36:	e7c7      	b.n	800cbc8 <_strtol_l.isra.0+0x3c>
 800cc38:	f1a4 0741 	sub.w	r7, r4, #65	; 0x41
 800cc3c:	2f19      	cmp	r7, #25
 800cc3e:	d801      	bhi.n	800cc44 <_strtol_l.isra.0+0xb8>
 800cc40:	3c37      	subs	r4, #55	; 0x37
 800cc42:	e7e1      	b.n	800cc08 <_strtol_l.isra.0+0x7c>
 800cc44:	f1a4 0761 	sub.w	r7, r4, #97	; 0x61
 800cc48:	2f19      	cmp	r7, #25
 800cc4a:	d804      	bhi.n	800cc56 <_strtol_l.isra.0+0xca>
 800cc4c:	3c57      	subs	r4, #87	; 0x57
 800cc4e:	e7db      	b.n	800cc08 <_strtol_l.isra.0+0x7c>
 800cc50:	f04f 36ff 	mov.w	r6, #4294967295
 800cc54:	e7e4      	b.n	800cc20 <_strtol_l.isra.0+0x94>
 800cc56:	2e00      	cmp	r6, #0
 800cc58:	da05      	bge.n	800cc66 <_strtol_l.isra.0+0xda>
 800cc5a:	2322      	movs	r3, #34	; 0x22
 800cc5c:	6003      	str	r3, [r0, #0]
 800cc5e:	4665      	mov	r5, ip
 800cc60:	b942      	cbnz	r2, 800cc74 <_strtol_l.isra.0+0xe8>
 800cc62:	4628      	mov	r0, r5
 800cc64:	e79d      	b.n	800cba2 <_strtol_l.isra.0+0x16>
 800cc66:	f1b8 0f00 	cmp.w	r8, #0
 800cc6a:	d000      	beq.n	800cc6e <_strtol_l.isra.0+0xe2>
 800cc6c:	426d      	negs	r5, r5
 800cc6e:	2a00      	cmp	r2, #0
 800cc70:	d0f7      	beq.n	800cc62 <_strtol_l.isra.0+0xd6>
 800cc72:	b10e      	cbz	r6, 800cc78 <_strtol_l.isra.0+0xec>
 800cc74:	f10e 31ff 	add.w	r1, lr, #4294967295
 800cc78:	6011      	str	r1, [r2, #0]
 800cc7a:	e7f2      	b.n	800cc62 <_strtol_l.isra.0+0xd6>
 800cc7c:	2430      	movs	r4, #48	; 0x30
 800cc7e:	2b00      	cmp	r3, #0
 800cc80:	d1b3      	bne.n	800cbea <_strtol_l.isra.0+0x5e>
 800cc82:	2308      	movs	r3, #8
 800cc84:	e7b1      	b.n	800cbea <_strtol_l.isra.0+0x5e>
 800cc86:	2c30      	cmp	r4, #48	; 0x30
 800cc88:	d0a4      	beq.n	800cbd4 <_strtol_l.isra.0+0x48>
 800cc8a:	230a      	movs	r3, #10
 800cc8c:	e7ad      	b.n	800cbea <_strtol_l.isra.0+0x5e>
 800cc8e:	bf00      	nop
 800cc90:	0800d156 	.word	0x0800d156

0800cc94 <_strtol_r>:
 800cc94:	f7ff bf7a 	b.w	800cb8c <_strtol_l.isra.0>

0800cc98 <_strtoul_l.isra.0>:
 800cc98:	e92d 43f0 	stmdb	sp!, {r4, r5, r6, r7, r8, r9, lr}
 800cc9c:	4e3b      	ldr	r6, [pc, #236]	; (800cd8c <_strtoul_l.isra.0+0xf4>)
 800cc9e:	4686      	mov	lr, r0
 800cca0:	468c      	mov	ip, r1
 800cca2:	4660      	mov	r0, ip
 800cca4:	f81c 4b01 	ldrb.w	r4, [ip], #1
 800cca8:	5da5      	ldrb	r5, [r4, r6]
 800ccaa:	f015 0508 	ands.w	r5, r5, #8
 800ccae:	d1f8      	bne.n	800cca2 <_strtoul_l.isra.0+0xa>
 800ccb0:	2c2d      	cmp	r4, #45	; 0x2d
 800ccb2:	d134      	bne.n	800cd1e <_strtoul_l.isra.0+0x86>
 800ccb4:	f89c 4000 	ldrb.w	r4, [ip]
 800ccb8:	f04f 0801 	mov.w	r8, #1
 800ccbc:	f100 0c02 	add.w	ip, r0, #2
 800ccc0:	2b00      	cmp	r3, #0
 800ccc2:	d05e      	beq.n	800cd82 <_strtoul_l.isra.0+0xea>
 800ccc4:	2b10      	cmp	r3, #16
 800ccc6:	d10c      	bne.n	800cce2 <_strtoul_l.isra.0+0x4a>
 800ccc8:	2c30      	cmp	r4, #48	; 0x30
 800ccca:	d10a      	bne.n	800cce2 <_strtoul_l.isra.0+0x4a>
 800cccc:	f89c 0000 	ldrb.w	r0, [ip]
 800ccd0:	f000 00df 	and.w	r0, r0, #223	; 0xdf
 800ccd4:	2858      	cmp	r0, #88	; 0x58
 800ccd6:	d14f      	bne.n	800cd78 <_strtoul_l.isra.0+0xe0>
 800ccd8:	f89c 4001 	ldrb.w	r4, [ip, #1]
 800ccdc:	2310      	movs	r3, #16
 800ccde:	f10c 0c02 	add.w	ip, ip, #2
 800cce2:	f04f 37ff 	mov.w	r7, #4294967295
 800cce6:	2500      	movs	r5, #0
 800cce8:	fbb7 f7f3 	udiv	r7, r7, r3
 800ccec:	fb03 f907 	mul.w	r9, r3, r7
 800ccf0:	ea6f 0909 	mvn.w	r9, r9
 800ccf4:	4628      	mov	r0, r5
 800ccf6:	f1a4 0630 	sub.w	r6, r4, #48	; 0x30
 800ccfa:	2e09      	cmp	r6, #9
 800ccfc:	d818      	bhi.n	800cd30 <_strtoul_l.isra.0+0x98>
 800ccfe:	4634      	mov	r4, r6
 800cd00:	42a3      	cmp	r3, r4
 800cd02:	dd24      	ble.n	800cd4e <_strtoul_l.isra.0+0xb6>
 800cd04:	2d00      	cmp	r5, #0
 800cd06:	db1f      	blt.n	800cd48 <_strtoul_l.isra.0+0xb0>
 800cd08:	4287      	cmp	r7, r0
 800cd0a:	d31d      	bcc.n	800cd48 <_strtoul_l.isra.0+0xb0>
 800cd0c:	d101      	bne.n	800cd12 <_strtoul_l.isra.0+0x7a>
 800cd0e:	45a1      	cmp	r9, r4
 800cd10:	db1a      	blt.n	800cd48 <_strtoul_l.isra.0+0xb0>
 800cd12:	fb00 4003 	mla	r0, r0, r3, r4
 800cd16:	2501      	movs	r5, #1
 800cd18:	f81c 4b01 	ldrb.w	r4, [ip], #1
 800cd1c:	e7eb      	b.n	800ccf6 <_strtoul_l.isra.0+0x5e>
 800cd1e:	2c2b      	cmp	r4, #43	; 0x2b
 800cd20:	bf08      	it	eq
 800cd22:	f89c 4000 	ldrbeq.w	r4, [ip]
 800cd26:	46a8      	mov	r8, r5
 800cd28:	bf08      	it	eq
 800cd2a:	f100 0c02 	addeq.w	ip, r0, #2
 800cd2e:	e7c7      	b.n	800ccc0 <_strtoul_l.isra.0+0x28>
 800cd30:	f1a4 0641 	sub.w	r6, r4, #65	; 0x41
 800cd34:	2e19      	cmp	r6, #25
 800cd36:	d801      	bhi.n	800cd3c <_strtoul_l.isra.0+0xa4>
 800cd38:	3c37      	subs	r4, #55	; 0x37
 800cd3a:	e7e1      	b.n	800cd00 <_strtoul_l.isra.0+0x68>
 800cd3c:	f1a4 0661 	sub.w	r6, r4, #97	; 0x61
 800cd40:	2e19      	cmp	r6, #25
 800cd42:	d804      	bhi.n	800cd4e <_strtoul_l.isra.0+0xb6>
 800cd44:	3c57      	subs	r4, #87	; 0x57
 800cd46:	e7db      	b.n	800cd00 <_strtoul_l.isra.0+0x68>
 800cd48:	f04f 35ff 	mov.w	r5, #4294967295
 800cd4c:	e7e4      	b.n	800cd18 <_strtoul_l.isra.0+0x80>
 800cd4e:	2d00      	cmp	r5, #0
 800cd50:	da07      	bge.n	800cd62 <_strtoul_l.isra.0+0xca>
 800cd52:	2322      	movs	r3, #34	; 0x22
 800cd54:	f8ce 3000 	str.w	r3, [lr]
 800cd58:	f04f 30ff 	mov.w	r0, #4294967295
 800cd5c:	b942      	cbnz	r2, 800cd70 <_strtoul_l.isra.0+0xd8>
 800cd5e:	e8bd 83f0 	ldmia.w	sp!, {r4, r5, r6, r7, r8, r9, pc}
 800cd62:	f1b8 0f00 	cmp.w	r8, #0
 800cd66:	d000      	beq.n	800cd6a <_strtoul_l.isra.0+0xd2>
 800cd68:	4240      	negs	r0, r0
 800cd6a:	2a00      	cmp	r2, #0
 800cd6c:	d0f7      	beq.n	800cd5e <_strtoul_l.isra.0+0xc6>
 800cd6e:	b10d      	cbz	r5, 800cd74 <_strtoul_l.isra.0+0xdc>
 800cd70:	f10c 31ff 	add.w	r1, ip, #4294967295
 800cd74:	6011      	str	r1, [r2, #0]
 800cd76:	e7f2      	b.n	800cd5e <_strtoul_l.isra.0+0xc6>
 800cd78:	2430      	movs	r4, #48	; 0x30
 800cd7a:	2b00      	cmp	r3, #0
 800cd7c:	d1b1      	bne.n	800cce2 <_strtoul_l.isra.0+0x4a>
 800cd7e:	2308      	movs	r3, #8
 800cd80:	e7af      	b.n	800cce2 <_strtoul_l.isra.0+0x4a>
 800cd82:	2c30      	cmp	r4, #48	; 0x30
 800cd84:	d0a2      	beq.n	800cccc <_strtoul_l.isra.0+0x34>
 800cd86:	230a      	movs	r3, #10
 800cd88:	e7ab      	b.n	800cce2 <_strtoul_l.isra.0+0x4a>
 800cd8a:	bf00      	nop
 800cd8c:	0800d156 	.word	0x0800d156

0800cd90 <_strtoul_r>:
 800cd90:	f7ff bf82 	b.w	800cc98 <_strtoul_l.isra.0>

0800cd94 <__submore>:
 800cd94:	e92d 41f0 	stmdb	sp!, {r4, r5, r6, r7, r8, lr}
 800cd98:	460c      	mov	r4, r1
 800cd9a:	6b49      	ldr	r1, [r1, #52]	; 0x34
 800cd9c:	f104 0344 	add.w	r3, r4, #68	; 0x44
 800cda0:	4299      	cmp	r1, r3
 800cda2:	d11d      	bne.n	800cde0 <__submore+0x4c>
 800cda4:	f44f 6180 	mov.w	r1, #1024	; 0x400
 800cda8:	f7fe ffb2 	bl	800bd10 <_malloc_r>
 800cdac:	b918      	cbnz	r0, 800cdb6 <__submore+0x22>
 800cdae:	f04f 30ff 	mov.w	r0, #4294967295
 800cdb2:	e8bd 81f0 	ldmia.w	sp!, {r4, r5, r6, r7, r8, pc}
 800cdb6:	f44f 6380 	mov.w	r3, #1024	; 0x400
 800cdba:	63a3      	str	r3, [r4, #56]	; 0x38
 800cdbc:	f894 3046 	ldrb.w	r3, [r4, #70]	; 0x46
 800cdc0:	6360      	str	r0, [r4, #52]	; 0x34
 800cdc2:	f880 33ff 	strb.w	r3, [r0, #1023]	; 0x3ff
 800cdc6:	f894 3045 	ldrb.w	r3, [r4, #69]	; 0x45
 800cdca:	f880 33fe 	strb.w	r3, [r0, #1022]	; 0x3fe
 800cdce:	f894 3044 	ldrb.w	r3, [r4, #68]	; 0x44
 800cdd2:	f880 33fd 	strb.w	r3, [r0, #1021]	; 0x3fd
 800cdd6:	f200 30fd 	addw	r0, r0, #1021	; 0x3fd
 800cdda:	6020      	str	r0, [r4, #0]
 800cddc:	2000      	movs	r0, #0
 800cdde:	e7e8      	b.n	800cdb2 <__submore+0x1e>
 800cde0:	6ba6      	ldr	r6, [r4, #56]	; 0x38
 800cde2:	0077      	lsls	r7, r6, #1
 800cde4:	463a      	mov	r2, r7
 800cde6:	f000 f82b 	bl	800ce40 <_realloc_r>
 800cdea:	4605      	mov	r5, r0
 800cdec:	2800      	cmp	r0, #0
 800cdee:	d0de      	beq.n	800cdae <__submore+0x1a>
 800cdf0:	eb00 0806 	add.w	r8, r0, r6
 800cdf4:	4601      	mov	r1, r0
 800cdf6:	4632      	mov	r2, r6
 800cdf8:	4640      	mov	r0, r8
 800cdfa:	f7fe ff23 	bl	800bc44 <memcpy>
 800cdfe:	e9c4 570d 	strd	r5, r7, [r4, #52]	; 0x34
 800ce02:	f8c4 8000 	str.w	r8, [r4]
 800ce06:	e7e9      	b.n	800cddc <__submore+0x48>

0800ce08 <__retarget_lock_acquire_recursive>:
 800ce08:	4770      	bx	lr

0800ce0a <__retarget_lock_release_recursive>:
 800ce0a:	4770      	bx	lr

0800ce0c <memmove>:
 800ce0c:	4288      	cmp	r0, r1
 800ce0e:	b510      	push	{r4, lr}
 800ce10:	eb01 0402 	add.w	r4, r1, r2
 800ce14:	d902      	bls.n	800ce1c <memmove+0x10>
 800ce16:	4284      	cmp	r4, r0
 800ce18:	4623      	mov	r3, r4
 800ce1a:	d807      	bhi.n	800ce2c <memmove+0x20>
 800ce1c:	1e43      	subs	r3, r0, #1
 800ce1e:	42a1      	cmp	r1, r4
 800ce20:	d008      	beq.n	800ce34 <memmove+0x28>
 800ce22:	f811 2b01 	ldrb.w	r2, [r1], #1
 800ce26:	f803 2f01 	strb.w	r2, [r3, #1]!
 800ce2a:	e7f8      	b.n	800ce1e <memmove+0x12>
 800ce2c:	4402      	add	r2, r0
 800ce2e:	4601      	mov	r1, r0
 800ce30:	428a      	cmp	r2, r1
 800ce32:	d100      	bne.n	800ce36 <memmove+0x2a>
 800ce34:	bd10      	pop	{r4, pc}
 800ce36:	f813 4d01 	ldrb.w	r4, [r3, #-1]!
 800ce3a:	f802 4d01 	strb.w	r4, [r2, #-1]!
 800ce3e:	e7f7      	b.n	800ce30 <memmove+0x24>

0800ce40 <_realloc_r>:
 800ce40:	b5f8      	push	{r3, r4, r5, r6, r7, lr}
 800ce42:	4607      	mov	r7, r0
 800ce44:	4614      	mov	r4, r2
 800ce46:	460e      	mov	r6, r1
 800ce48:	b921      	cbnz	r1, 800ce54 <_realloc_r+0x14>
 800ce4a:	e8bd 40f8 	ldmia.w	sp!, {r3, r4, r5, r6, r7, lr}
 800ce4e:	4611      	mov	r1, r2
 800ce50:	f7fe bf5e 	b.w	800bd10 <_malloc_r>
 800ce54:	b922      	cbnz	r2, 800ce60 <_realloc_r+0x20>
 800ce56:	f7fe ff0b 	bl	800bc70 <_free_r>
 800ce5a:	4625      	mov	r5, r4
 800ce5c:	4628      	mov	r0, r5
 800ce5e:	bdf8      	pop	{r3, r4, r5, r6, r7, pc}
 800ce60:	f000 f814 	bl	800ce8c <_malloc_usable_size_r>
 800ce64:	42a0      	cmp	r0, r4
 800ce66:	d20f      	bcs.n	800ce88 <_realloc_r+0x48>
 800ce68:	4621      	mov	r1, r4
 800ce6a:	4638      	mov	r0, r7
 800ce6c:	f7fe ff50 	bl	800bd10 <_malloc_r>
 800ce70:	4605      	mov	r5, r0
 800ce72:	2800      	cmp	r0, #0
 800ce74:	d0f2      	beq.n	800ce5c <_realloc_r+0x1c>
 800ce76:	4631      	mov	r1, r6
 800ce78:	4622      	mov	r2, r4
 800ce7a:	f7fe fee3 	bl	800bc44 <memcpy>
 800ce7e:	4631      	mov	r1, r6
 800ce80:	4638      	mov	r0, r7
 800ce82:	f7fe fef5 	bl	800bc70 <_free_r>
 800ce86:	e7e9      	b.n	800ce5c <_realloc_r+0x1c>
 800ce88:	4635      	mov	r5, r6
 800ce8a:	e7e7      	b.n	800ce5c <_realloc_r+0x1c>

0800ce8c <_malloc_usable_size_r>:
 800ce8c:	f851 3c04 	ldr.w	r3, [r1, #-4]
 800ce90:	1f18      	subs	r0, r3, #4
 800ce92:	2b00      	cmp	r3, #0
 800ce94:	bfbc      	itt	lt
 800ce96:	580b      	ldrlt	r3, [r1, r0]
 800ce98:	18c0      	addlt	r0, r0, r3
 800ce9a:	4770      	bx	lr

0800ce9c <_init>:
 800ce9c:	b5f8      	push	{r3, r4, r5, r6, r7, lr}
 800ce9e:	bf00      	nop
 800cea0:	bcf8      	pop	{r3, r4, r5, r6, r7}
 800cea2:	bc08      	pop	{r3}
 800cea4:	469e      	mov	lr, r3
 800cea6:	4770      	bx	lr

0800cea8 <_fini>:
 800cea8:	b5f8      	push	{r3, r4, r5, r6, r7, lr}
 800ceaa:	bf00      	nop
 800ceac:	bcf8      	pop	{r3, r4, r5, r6, r7}
 800ceae:	bc08      	pop	{r3}
 800ceb0:	469e      	mov	lr, r3
 800ceb2:	4770      	bx	lr
